
blinkm-test.out:     file format elf32-littlearm

SYMBOL TABLE:
00000000 l    d  startup	00000000 startup
00000050 l    d  prog	00000000 prog
40000000 l    d  .bss	00000000 .bss
00000000 l    d  .ARM.attributes	00000000 .ARM.attributes
00000000 l    d  .comment	00000000 .comment
00000000 l    d  .debug_line	00000000 .debug_line
00000000 l    d  .debug_info	00000000 .debug_info
00000000 l    d  .debug_abbrev	00000000 .debug_abbrev
00000000 l    d  .debug_aranges	00000000 .debug_aranges
00000000 l    d  .debug_ranges	00000000 .debug_ranges
00000000 l    d  .debug_loc	00000000 .debug_loc
00000000 l    d  .debug_pubnames	00000000 .debug_pubnames
00000000 l    d  .debug_pubtypes	00000000 .debug_pubtypes
00000000 l    d  .debug_str	00000000 .debug_str
00000000 l    d  .debug_frame	00000000 .debug_frame
00000004 l       *ABS*	00000000 UND_STACK_SIZE
00000004 l       *ABS*	00000000 ABT_STACK_SIZE
00000004 l       *ABS*	00000000 FIQ_STACK_SIZE
00000100 l       *ABS*	00000000 IRQ_STACK_SIZE
00000100 l       *ABS*	00000000 SVC_STACK_SIZE
00000010 l       *ABS*	00000000 MODE_USR
00000011 l       *ABS*	00000000 MODE_FIQ
00000012 l       *ABS*	00000000 MODE_IRQ
00000013 l       *ABS*	00000000 MODE_SVC
00000017 l       *ABS*	00000000 MODE_ABT
0000001b l       *ABS*	00000000 MODE_UND
0000001f l       *ABS*	00000000 MODE_SYS
00000080 l       *ABS*	00000000 I_BIT
00000040 l       *ABS*	00000000 F_BIT
00000050 l       prog	00000000 _start
00000050 l       prog	00000000 _mainCRTStartup
000000bc l       prog	00000000 .end_clear_loop
000000b0 l       prog	00000000 .clear_loop
000000e0 l       prog	00000000 .end_set_loop
000000d0 l       prog	00000000 .set_loop
00000020 l       startup	00000000 _undf
00000024 l       startup	00000000 _swi
00000028 l       startup	00000000 _pabt
0000002c l       startup	00000000 _dabt
00000030 l       startup	00000000 _fiq
00000034 l       startup	00000000 __undf
00000038 l       startup	00000000 __pabt
0000003c l       startup	00000000 __dabt
00000040 l       startup	00000000 __fiq
00000000 l    df *ABS*	00000000 blinkm-test.c
00000000 l    df *ABS*	00000000 hwsys.c
00000000 l    df *ABS*	00000000 lpc23xx-i2c.c
00000000 l    df *ABS*	00000000 lpc23xx-pll.c
00000000 l    df *ABS*	00000000 lpc23xx-uart.c
40000268 l     O .bss	00000079 uart0_linebuffer.1328
00000000 l    df *ABS*	00000000 lpc23xx-util.c
400002e4 l     O .bss	00000021 ibuf.1602
40000308 l     O .bss	00000021 ibuf.1612
00000000 l       *ABS*	00000000 LOCKED
00000001 l       *ABS*	00000000 UNLOCKED
00001824 l       prog	00000000 is_locked
00001834 l       prog	00000000 not_locked
00001838 l       prog	00000000 end_is_binsem_locked
00001854 l       prog	00000000 spin_lock
00001874 l       prog	00000000 waitcount
00001894 l       prog	00000000 gotlock
000018a4 l       prog	00000000 timeout
000018a8 l       prog	00000000 end_get_binsem
000018ec l       prog	00000000 was_not_locked
000018dc l       prog	00000000 released_lock
000018f0 l       prog	00000000 end_release_binsem
00000000 l    df *ABS*	00000000 olimex2378_util.c
00001abc l       prog	00000000 .udivsi3_skip_div0_test
00001840 g       prog	00000000 get_binsem
00001190 g     F prog	000000ec pllstart_fourtyeightmhz
000015a8 g     F prog	00000060 uart0_getstring
400001c0 g     O .bss	0000008c i2c2_s_g
000009f0 g     F prog	0000000c i2c_create_write_address
40000130 g     O .bss	0000008c i2c1_s_g
000004cc g     F prog	00000004 UNDEF_Routine
000004d0 g     F prog	00000510 i2c0_isr
4000032c g       *ABS*	00000000 _bss_end__
40000094 g     O .bss	0000008c i2c0_s_g
40000124 g     O .bss	00000004 i2c0_s_caller_g
40000128 g     O .bss	00000004 i2c0_binsem_g
00000190 g     F prog	000002c0 blinkm_task
00000f44 g     F prog	00000068 pllstop
4000025c g     O .bss	00000004 pllstat
00000f18 g     F prog	0000002c pllfeed
000004d0 g     F prog	00000000 i2c1_isr
000018b0 g       prog	00000000 release_binsem
000004d0 g     F prog	00000000 i2c2_isr
00001abc g     F prog	000000f8 __udivsi3
40000254 g     O .bss	00000004 i2c1_s_caller_g
000009fc g     F prog	00000044 i2c_init_state
0000129c g     F prog	00000010 uart0_query_stopbits
000012ac g     F prog	00000118 uart0_init_9600
000004c8 g     F prog	00000004 SWI_Routine
00000fac g     F prog	000000f4 pllstart_seventytwomhz
4000012c g     O .bss	00000004 i2c1_binsem_g
000017fc g       prog	00000000 is_binsem_locked
0000162c g     F prog	00000024 millisecondsToCPUTicks
40001f68 g       prog	00000000 __data_beg_src__
7fe00000 g       .ARM.attributes	00000000 __ethram_end__
000004c4 g     F prog	00000004 FIQ_Routine
00001bd4 g     F prog	000000cc __umodsi3
0000192c g     F prog	000000c8 stat_led_flash_slow
40000120 g     O .bss	00000004 _i2c0_FnCallback_g
40000000 g       prog	00000000 __data_end__
00000f08 g     F prog	00000010 pllquery_cclk_mhz
7fe00000 g       .ARM.attributes	00000000 __ethram_beg__
4000032c g       *ABS*	00000000 __bss_end__
0000157c g     F prog	0000002c uart0_getchar
40000000 g       prog	00000000 __data_beg__
00001730 g     F prog	000000a4 util_uitoa
0000128c g     F prog	00000010 uart0_query_charlength
00001608 g     F prog	00000024 microsecondsToCPUTicks
00000450 g     F prog	00000070 main
000010a0 g     F prog	000000f0 pllstart_sixtymhz
00001ca0 g     F prog	00000004 __div0
00001f68 g       *ABS*	00000000 __end_of_text__
00001abc g     F prog	00000000 __aeabi_uidiv
4000032c g       *ABS*	00000000 __end__
000009e0 g     F prog	00000010 i2c_create_read_address
40000090 g     O .bss	00000004 i2c_rdindex_g
00001650 g     F prog	000000e0 util_itoa
4000008c g     O .bss	00000004 i2c_wrindex_g
400001bc g     O .bss	00000004 i2c2_binsem_g
0000127c g     F prog	00000010 uart0_query_baud
000004c0 g     F prog	00000004 IRQ_Routine
7fd00000 g       .ARM.attributes	00000000 __usbram_end__
00000a40 g     F prog	000003e8 i2c_init
000017e0 g       prog	00000000 init_binsem
000014ec g     F prog	00000060 uart0_putchar
40000250 g     O .bss	00000004 _i2c2_FnCallback_g
00001bb4 g     F prog	00000020 __aeabi_uidivmod
7fd00000 g       .ARM.attributes	00000000 __usbram_beg__
7fe00000 g       *ABS*	00000000 _end
40000258 g     O .bss	00000004 i2c2_s_caller_g
40000000 g     O .bss	0000008c xact_s
000017d4 g     F prog	00000004 util_waitticks
40000000 g       .bss	00000000 __bss_beg__
00000050 g       prog	00000000 start
000013c4 g     F prog	00000128 uart0_init_115200
00000e28 g     F prog	000000e0 start_i2c0_master_xact
40007ffc g       *ABS*	00000000 __stack_end__
00000108 g     F prog	00000088 xact_callback
4000024c g     O .bss	00000004 _i2c1_FnCallback_g
000000ec g       prog	00000000 endless_loop
0000154c g     F prog	00000030 uart0_putstring
000019f4 g     F prog	000000c8 stat_led_flash
00001900 g     F prog	0000002c init_stat_led
40000260 g     O .bss	00000008 uart0stat



Disassembly of section startup:

00000000 <_undf-0x20>:
/home/kwilson/Projects/psaseclipse/olimex2378/olimex2378-i2c/blinkm-test/boot.s:139

.section .startup,"ax"
         .code 32
         .align 0

	b     _start						/* reset - _start			*/
   0:	ea000012 	b	50 <start>
/home/kwilson/Projects/psaseclipse/olimex2378/olimex2378-i2c/blinkm-test/boot.s:140
	ldr   pc, _undf						/* undefined - _undf		*/
   4:	e59ff014 	ldr	pc, [pc, #20]	; 20 <_undf>
/home/kwilson/Projects/psaseclipse/olimex2378/olimex2378-i2c/blinkm-test/boot.s:141
	ldr   pc, _swi						/* SWI - _swi				*/
   8:	e59ff014 	ldr	pc, [pc, #20]	; 24 <_swi>
/home/kwilson/Projects/psaseclipse/olimex2378/olimex2378-i2c/blinkm-test/boot.s:142
	ldr   pc, _pabt						/* program abort - _pabt	*/
   c:	e59ff014 	ldr	pc, [pc, #20]	; 28 <_pabt>
/home/kwilson/Projects/psaseclipse/olimex2378/olimex2378-i2c/blinkm-test/boot.s:143
	ldr   pc, _dabt						/* data abort - _dabt		*/
  10:	e59ff014 	ldr	pc, [pc, #20]	; 2c <_dabt>
/home/kwilson/Projects/psaseclipse/olimex2378/olimex2378-i2c/blinkm-test/boot.s:144
	nop									/* reserved					*/
  14:	e1a00000 	nop			; (mov r0, r0)
/home/kwilson/Projects/psaseclipse/olimex2378/olimex2378-i2c/blinkm-test/boot.s:145
	ldr   pc, [pc,#-0x120]				/* IRQ - read the VIC		*/
  18:	e51ff120 	ldr	pc, [pc, #-288]	; ffffff00 <_end+0x801fff00>
/home/kwilson/Projects/psaseclipse/olimex2378/olimex2378-i2c/blinkm-test/boot.s:146
	ldr   pc, _fiq						/* FIQ - _fiq				*/
  1c:	e59ff00c 	ldr	pc, [pc, #12]	; 30 <_fiq>

00000020 <_undf>:
_undf():
  20:	00000034 	.word	0x00000034

00000024 <_swi>:
_swi():
  24:	000004c8 	.word	0x000004c8

00000028 <_pabt>:
_pabt():
  28:	00000038 	.word	0x00000038

0000002c <_dabt>:
_dabt():
  2c:	0000003c 	.word	0x0000003c

00000030 <_fiq>:
_fiq():
  30:	00000040 	.word	0x00000040

00000034 <__undf>:
__undf():
/home/kwilson/Projects/psaseclipse/olimex2378/olimex2378-i2c/blinkm-test/boot.s:154
_swi:   .word SWI_Routine       /* SWI						*/
_pabt:  .word __pabt                    /* program abort			*/
_dabt:  .word __dabt                    /* data abort				*/
_fiq:   .word __fiq                     /* FIQ						*/

__undf: b     .                         /* undefined				*/
  34:	eafffffe 	b	34 <__undf>

00000038 <__pabt>:
__pabt():
/home/kwilson/Projects/psaseclipse/olimex2378/olimex2378-i2c/blinkm-test/boot.s:155
__pabt: b     .                         /* program abort			*/
  38:	eafffffe 	b	38 <__pabt>

0000003c <__dabt>:
__dabt():
/home/kwilson/Projects/psaseclipse/olimex2378/olimex2378-i2c/blinkm-test/boot.s:156
__dabt: b     .                         /* data abort				*/
  3c:	eafffffe 	b	3c <__dabt>

00000040 <__fiq>:
__fiq():
/home/kwilson/Projects/psaseclipse/olimex2378/olimex2378-i2c/blinkm-test/boot.s:157
__fiq:  b     .                         /* FIQ						*/
  40:	eafffffe 	b	40 <__fiq>

Disassembly of section prog:

00000050 <start>:
start():
/home/kwilson/Projects/psaseclipse/olimex2378/olimex2378-i2c/blinkm-test/boot.s:49
_mainCRTStartup:

	/* Setup a stack for each mode - note that this only sets up a usable stack
	for system/user, SWI and IRQ modes.   Also each mode is setup with
	interrupts initially disabled. */
    ldr   r0, .LC6
      50:	e59f00ac 	ldr	r0, [pc, #172]	; 104 <IRQ_STACK_SIZE+0x4>
/home/kwilson/Projects/psaseclipse/olimex2378/olimex2378-i2c/blinkm-test/boot.s:50
    msr   CPSR_c, #MODE_UND|I_BIT|F_BIT /* Undefined Instruction Mode
      54:	e321f0db 	msr	CPSR_c, #219	; 0xdb
/home/kwilson/Projects/psaseclipse/olimex2378/olimex2378-i2c/blinkm-test/boot.s:54
    mov   sp, r0
    sub   r0, r0, #UND_STACK_SIZE
    msr   CPSR_c, #MODE_ABT|I_BIT|F_BIT /* Abort Mode */
    mov   sp, r0
      58:	e1a0d000 	mov	sp, r0
/home/kwilson/Projects/psaseclipse/olimex2378/olimex2378-i2c/blinkm-test/boot.s:55
    sub   r0, r0, #ABT_STACK_SIZE
      5c:	e2400004 	sub	r0, r0, #4
/home/kwilson/Projects/psaseclipse/olimex2378/olimex2378-i2c/blinkm-test/boot.s:56
    msr   CPSR_c, #MODE_FIQ|I_BIT|F_BIT /* FIQ Mode */
      60:	e321f0d1 	msr	CPSR_c, #209	; 0xd1
/home/kwilson/Projects/psaseclipse/olimex2378/olimex2378-i2c/blinkm-test/boot.s:57
    mov   sp, r0
      64:	e1a0d000 	mov	sp, r0
/home/kwilson/Projects/psaseclipse/olimex2378/olimex2378-i2c/blinkm-test/boot.s:58
    sub   r0, r0, #FIQ_STACK_SIZE
      68:	e2400004 	sub	r0, r0, #4
/home/kwilson/Projects/psaseclipse/olimex2378/olimex2378-i2c/blinkm-test/boot.s:59
    msr   CPSR_c, #MODE_IRQ|I_BIT|F_BIT /* IRQ Mode */
      6c:	e321f0d2 	msr	CPSR_c, #210	; 0xd2
/home/kwilson/Projects/psaseclipse/olimex2378/olimex2378-i2c/blinkm-test/boot.s:60
    mov   sp, r0
      70:	e1a0d000 	mov	sp, r0
/home/kwilson/Projects/psaseclipse/olimex2378/olimex2378-i2c/blinkm-test/boot.s:61
    sub   r0, r0, #IRQ_STACK_SIZE
      74:	e2400c01 	sub	r0, r0, #256	; 0x100
/home/kwilson/Projects/psaseclipse/olimex2378/olimex2378-i2c/blinkm-test/boot.s:62
    msr   CPSR_c, #MODE_SVC|I_BIT|F_BIT /* Supervisor Mode */
      78:	e321f0d3 	msr	CPSR_c, #211	; 0xd3
/home/kwilson/Projects/psaseclipse/olimex2378/olimex2378-i2c/blinkm-test/boot.s:63
    mov   sp, r0
      7c:	e1a0d000 	mov	sp, r0
/home/kwilson/Projects/psaseclipse/olimex2378/olimex2378-i2c/blinkm-test/boot.s:64
    sub   r0, r0, #SVC_STACK_SIZE
      80:	e2400c01 	sub	r0, r0, #256	; 0x100
/home/kwilson/Projects/psaseclipse/olimex2378/olimex2378-i2c/blinkm-test/boot.s:65
    msr   CPSR_c, #MODE_SYS|I_BIT|F_BIT /* System Mode */
      84:	e321f0df 	msr	CPSR_c, #223	; 0xdf
/home/kwilson/Projects/psaseclipse/olimex2378/olimex2378-i2c/blinkm-test/boot.s:66
    mov   sp, r0
      88:	e1a0d000 	mov	sp, r0
/home/kwilson/Projects/psaseclipse/olimex2378/olimex2378-i2c/blinkm-test/boot.s:70

	/* We want to start in supervisor mode.  Operation will switch to system
	mode when the first task starts. */
	msr   CPSR_c, #MODE_SVC|I_BIT|F_BIT
      8c:	e321f0d3 	msr	CPSR_c, #211	; 0xd3
/home/kwilson/Projects/psaseclipse/olimex2378/olimex2378-i2c/blinkm-test/boot.s:74

	/* Clear BSS. */

	mov     a2, #0			/* Fill value */
      90:	e3a01000 	mov	r1, #0
/home/kwilson/Projects/psaseclipse/olimex2378/olimex2378-i2c/blinkm-test/boot.s:75
	mov		fp, a2			/* Null frame pointer */
      94:	e1a0b001 	mov	fp, r1
/home/kwilson/Projects/psaseclipse/olimex2378/olimex2378-i2c/blinkm-test/boot.s:76
	mov		r7, a2			/* Null frame pointer for Thumb */
      98:	e1a07001 	mov	r7, r1
/home/kwilson/Projects/psaseclipse/olimex2378/olimex2378-i2c/blinkm-test/boot.s:78

	ldr		r1, .LC1		/* Start of memory block */
      9c:	e59f104c 	ldr	r1, [pc, #76]	; f0 <endless_loop+0x4>
/home/kwilson/Projects/psaseclipse/olimex2378/olimex2378-i2c/blinkm-test/boot.s:79
	ldr		r3, .LC2		/* End of memory block */
      a0:	e59f304c 	ldr	r3, [pc, #76]	; f4 <endless_loop+0x8>
/home/kwilson/Projects/psaseclipse/olimex2378/olimex2378-i2c/blinkm-test/boot.s:80
	subs	r3, r3, r1      /* Length of block */
      a4:	e0533001 	subs	r3, r3, r1
/home/kwilson/Projects/psaseclipse/olimex2378/olimex2378-i2c/blinkm-test/boot.s:81
	beq		.end_clear_loop
      a8:	0a000003 	beq	bc <.end_clear_loop>
/home/kwilson/Projects/psaseclipse/olimex2378/olimex2378-i2c/blinkm-test/boot.s:82
	mov		r2, #0
      ac:	e3a02000 	mov	r2, #0

000000b0 <.clear_loop>:
.clear_loop():
/home/kwilson/Projects/psaseclipse/olimex2378/olimex2378-i2c/blinkm-test/boot.s:85

.clear_loop:
	strb	r2, [r1], #1
      b0:	e4c12001 	strb	r2, [r1], #1
/home/kwilson/Projects/psaseclipse/olimex2378/olimex2378-i2c/blinkm-test/boot.s:86
	subs	r3, r3, #1
      b4:	e2533001 	subs	r3, r3, #1
/home/kwilson/Projects/psaseclipse/olimex2378/olimex2378-i2c/blinkm-test/boot.s:87
	bgt		.clear_loop
      b8:	cafffffc 	bgt	b0 <.clear_loop>

000000bc <.end_clear_loop>:
.end_clear_loop():
/home/kwilson/Projects/psaseclipse/olimex2378/olimex2378-i2c/blinkm-test/boot.s:93

.end_clear_loop:

	/* Initialise data. */

	ldr		r1, .LC3		/* Start of memory block */
      bc:	e59f1034 	ldr	r1, [pc, #52]	; f8 <endless_loop+0xc>
/home/kwilson/Projects/psaseclipse/olimex2378/olimex2378-i2c/blinkm-test/boot.s:94
	ldr		r2, .LC4		/* End of memory block */
      c0:	e59f2034 	ldr	r2, [pc, #52]	; fc <endless_loop+0x10>
/home/kwilson/Projects/psaseclipse/olimex2378/olimex2378-i2c/blinkm-test/boot.s:95
	ldr		r3, .LC5
      c4:	e59f3034 	ldr	r3, [pc, #52]	; 100 <IRQ_STACK_SIZE>
/home/kwilson/Projects/psaseclipse/olimex2378/olimex2378-i2c/blinkm-test/boot.s:96
	subs	r3, r3, r1		/* Length of block */
      c8:	e0533001 	subs	r3, r3, r1
/home/kwilson/Projects/psaseclipse/olimex2378/olimex2378-i2c/blinkm-test/boot.s:97
	beq		.end_set_loop
      cc:	0a000003 	beq	e0 <.end_set_loop>

000000d0 <.set_loop>:
.set_loop():
/home/kwilson/Projects/psaseclipse/olimex2378/olimex2378-i2c/blinkm-test/boot.s:100

.set_loop:
	ldrb	r4, [r2], #1
      d0:	e4d24001 	ldrb	r4, [r2], #1
/home/kwilson/Projects/psaseclipse/olimex2378/olimex2378-i2c/blinkm-test/boot.s:101
	strb	r4, [r1], #1
      d4:	e4c14001 	strb	r4, [r1], #1
/home/kwilson/Projects/psaseclipse/olimex2378/olimex2378-i2c/blinkm-test/boot.s:102
	subs	r3, r3, #1
      d8:	e2533001 	subs	r3, r3, #1
/home/kwilson/Projects/psaseclipse/olimex2378/olimex2378-i2c/blinkm-test/boot.s:103
	bgt		.set_loop
      dc:	cafffffb 	bgt	d0 <.set_loop>

000000e0 <.end_set_loop>:
.end_set_loop():
/home/kwilson/Projects/psaseclipse/olimex2378/olimex2378-i2c/blinkm-test/boot.s:107

.end_set_loop:

	mov		r0, #0          /* no arguments  */
      e0:	e3a00000 	mov	r0, #0
/home/kwilson/Projects/psaseclipse/olimex2378/olimex2378-i2c/blinkm-test/boot.s:108
	mov		r1, #0          /* no argv either */
      e4:	e3a01000 	mov	r1, #0
/home/kwilson/Projects/psaseclipse/olimex2378/olimex2378-i2c/blinkm-test/boot.s:110

	bl		main
      e8:	eb0000d8 	bl	450 <main>

000000ec <endless_loop>:
endless_loop():
/home/kwilson/Projects/psaseclipse/olimex2378/olimex2378-i2c/blinkm-test/boot.s:113

endless_loop:
	b               endless_loop
      ec:	eafffffe 	b	ec <endless_loop>
      f0:	40000000 	.word	0x40000000
      f4:	4000032c 	.word	0x4000032c
      f8:	40000000 	.word	0x40000000
      fc:	40001f68 	.word	0x40001f68
     100:	40000000 	.word	0x40000000
     104:	40007ffc 	.word	0x40007ffc

00000108 <xact_callback>:
xact_callback():
/home/kwilson/Projects/psaseclipse/olimex2378/olimex2378-i2c/blinkm-test/blinkm-test.c:27

/*
 * xact_callback
 * callback function for i2c
 */
void xact_callback(i2c_master_xact_t* caller, i2c_master_xact_t* i2c_s) {
     108:	e92d4030 	push	{r4, r5, lr}
     10c:	e1a04000 	mov	r4, r0
/home/kwilson/Projects/psaseclipse/olimex2378/olimex2378-i2c/blinkm-test/blinkm-test.c:29
    uint16_t i;
    uart0_putstring("In callback\n");
     110:	e59f0074 	ldr	r0, [pc, #116]	; 18c <xact_callback+0x84>
/home/kwilson/Projects/psaseclipse/olimex2378/olimex2378-i2c/blinkm-test/blinkm-test.c:27

/*
 * xact_callback
 * callback function for i2c
 */
void xact_callback(i2c_master_xact_t* caller, i2c_master_xact_t* i2c_s) {
     114:	e1a05001 	mov	r5, r1
/home/kwilson/Projects/psaseclipse/olimex2378/olimex2378-i2c/blinkm-test/blinkm-test.c:29
    uint16_t i;
    uart0_putstring("In callback\n");
     118:	eb00050b 	bl	154c <uart0_putstring>
     11c:	e3a03000 	mov	r3, #0
/home/kwilson/Projects/psaseclipse/olimex2378/olimex2378-i2c/blinkm-test/blinkm-test.c:31
    for(i=0; i<I2C_MAX_BUFFER; ++i) {
        caller->i2c_tx_buffer[i] = i2c_s->i2c_tx_buffer[i];
     120:	e0851003 	add	r1, r5, r3
     124:	e5d10004 	ldrb	r0, [r1, #4]
     128:	e0842003 	add	r2, r4, r3
     12c:	e20000ff 	and	r0, r0, #255	; 0xff
     130:	e5c20004 	strb	r0, [r2, #4]
/home/kwilson/Projects/psaseclipse/olimex2378/olimex2378-i2c/blinkm-test/blinkm-test.c:32
        caller->i2c_rd_buffer[i] = i2c_s->i2c_rd_buffer[i];
     134:	e5d11044 	ldrb	r1, [r1, #68]	; 0x44
     138:	e2833001 	add	r3, r3, #1
     13c:	e20110ff 	and	r1, r1, #255	; 0xff
/home/kwilson/Projects/psaseclipse/olimex2378/olimex2378-i2c/blinkm-test/blinkm-test.c:30
 * callback function for i2c
 */
void xact_callback(i2c_master_xact_t* caller, i2c_master_xact_t* i2c_s) {
    uint16_t i;
    uart0_putstring("In callback\n");
    for(i=0; i<I2C_MAX_BUFFER; ++i) {
     140:	e3530040 	cmp	r3, #64	; 0x40
/home/kwilson/Projects/psaseclipse/olimex2378/olimex2378-i2c/blinkm-test/blinkm-test.c:32
        caller->i2c_tx_buffer[i] = i2c_s->i2c_tx_buffer[i];
        caller->i2c_rd_buffer[i] = i2c_s->i2c_rd_buffer[i];
     144:	e5c21044 	strb	r1, [r2, #68]	; 0x44
/home/kwilson/Projects/psaseclipse/olimex2378/olimex2378-i2c/blinkm-test/blinkm-test.c:30
 * callback function for i2c
 */
void xact_callback(i2c_master_xact_t* caller, i2c_master_xact_t* i2c_s) {
    uint16_t i;
    uart0_putstring("In callback\n");
    for(i=0; i<I2C_MAX_BUFFER; ++i) {
     148:	1afffff4 	bne	120 <xact_callback+0x18>
/home/kwilson/Projects/psaseclipse/olimex2378/olimex2378-i2c/blinkm-test/blinkm-test.c:35
        caller->i2c_tx_buffer[i] = i2c_s->i2c_tx_buffer[i];
        caller->i2c_rd_buffer[i] = i2c_s->i2c_rd_buffer[i];
    }

    caller->i2c_ext_slave_address = i2c_s->i2c_ext_slave_address;
     14c:	e5d53084 	ldrb	r3, [r5, #132]	; 0x84
     150:	e20330ff 	and	r3, r3, #255	; 0xff
     154:	e5c43084 	strb	r3, [r4, #132]	; 0x84
/home/kwilson/Projects/psaseclipse/olimex2378/olimex2378-i2c/blinkm-test/blinkm-test.c:36
    caller->write_length          = i2c_s->write_length;
     158:	e5d53085 	ldrb	r3, [r5, #133]	; 0x85
     15c:	e20330ff 	and	r3, r3, #255	; 0xff
     160:	e5c43085 	strb	r3, [r4, #133]	; 0x85
/home/kwilson/Projects/psaseclipse/olimex2378/olimex2378-i2c/blinkm-test/blinkm-test.c:37
    caller->read_length           = i2c_s->read_length;
     164:	e5d53086 	ldrb	r3, [r5, #134]	; 0x86
     168:	e20330ff 	and	r3, r3, #255	; 0xff
     16c:	e5c43086 	strb	r3, [r4, #134]	; 0x86
/home/kwilson/Projects/psaseclipse/olimex2378/olimex2378-i2c/blinkm-test/blinkm-test.c:38
    caller->xact_active           = i2c_s->xact_active;
     170:	e5d53087 	ldrb	r3, [r5, #135]	; 0x87
     174:	e20330ff 	and	r3, r3, #255	; 0xff
     178:	e5c43087 	strb	r3, [r4, #135]	; 0x87
/home/kwilson/Projects/psaseclipse/olimex2378/olimex2378-i2c/blinkm-test/blinkm-test.c:39
    caller->xact_success          = i2c_s->xact_success;
     17c:	e5d53088 	ldrb	r3, [r5, #136]	; 0x88
     180:	e20330ff 	and	r3, r3, #255	; 0xff
     184:	e5c43088 	strb	r3, [r4, #136]	; 0x88
/home/kwilson/Projects/psaseclipse/olimex2378/olimex2378-i2c/blinkm-test/blinkm-test.c:41
    /* maybe trigger an interrupt here */
}
     188:	e8bd8030 	pop	{r4, r5, pc}
     18c:	00001ca4 	.word	0x00001ca4

00000190 <blinkm_task>:
blinkm_task():
/home/kwilson/Projects/psaseclipse/olimex2378/olimex2378-i2c/blinkm-test/blinkm-test.c:47

/*
 * blinkm_task
 * 
 */
void blinkm_task() {
     190:	e92d45f0 	push	{r4, r5, r6, r7, r8, sl, lr}
/home/kwilson/Projects/psaseclipse/olimex2378/olimex2378-i2c/blinkm-test/blinkm-test.c:52

    uint32_t i;
    uint32_t on;

    xact_s.i2c_tx_buffer[0] =  i2c_create_write_address(BLINKM_ADDR);
     194:	e3a00009 	mov	r0, #9
     198:	eb000214 	bl	9f0 <i2c_create_write_address>
     19c:	e59f4260 	ldr	r4, [pc, #608]	; 404 <blinkm_task+0x274>
/home/kwilson/Projects/psaseclipse/olimex2378/olimex2378-i2c/blinkm-test/blinkm-test.c:53
    xact_s.i2c_tx_buffer[1] =  'o';
     1a0:	e3a0306f 	mov	r3, #111	; 0x6f
/home/kwilson/Projects/psaseclipse/olimex2378/olimex2378-i2c/blinkm-test/blinkm-test.c:52
void blinkm_task() {

    uint32_t i;
    uint32_t on;

    xact_s.i2c_tx_buffer[0] =  i2c_create_write_address(BLINKM_ADDR);
     1a4:	e5c40004 	strb	r0, [r4, #4]
/home/kwilson/Projects/psaseclipse/olimex2378/olimex2378-i2c/blinkm-test/blinkm-test.c:53
    xact_s.i2c_tx_buffer[1] =  'o';
     1a8:	e5c43005 	strb	r3, [r4, #5]
/home/kwilson/Projects/psaseclipse/olimex2378/olimex2378-i2c/blinkm-test/blinkm-test.c:54
    xact_s.i2c_tx_buffer[2] =  'n';
     1ac:	e3a0306e 	mov	r3, #110	; 0x6e
     1b0:	e5c43006 	strb	r3, [r4, #6]
/home/kwilson/Projects/psaseclipse/olimex2378/olimex2378-i2c/blinkm-test/blinkm-test.c:55
    xact_s.i2c_tx_buffer[3] =  0xbd;
     1b4:	e3e03042 	mvn	r3, #66	; 0x42
     1b8:	e5c43007 	strb	r3, [r4, #7]
/home/kwilson/Projects/psaseclipse/olimex2378/olimex2378-i2c/blinkm-test/blinkm-test.c:56
    xact_s.i2c_tx_buffer[4] =  0x10;
     1bc:	e2833053 	add	r3, r3, #83	; 0x53
     1c0:	e5c43008 	strb	r3, [r4, #8]
/home/kwilson/Projects/psaseclipse/olimex2378/olimex2378-i2c/blinkm-test/blinkm-test.c:57
    xact_s.i2c_tx_buffer[5] =  0x03;
     1c4:	e3a03003 	mov	r3, #3
     1c8:	e5c43009 	strb	r3, [r4, #9]
/home/kwilson/Projects/psaseclipse/olimex2378/olimex2378-i2c/blinkm-test/blinkm-test.c:60
    xact_s.write_length     =  0x06;
    xact_s.read_length      =  0x0;
    start_i2c0_master_xact(&xact_s, &xact_callback);
     1cc:	e59f1234 	ldr	r1, [pc, #564]	; 408 <blinkm_task+0x278>
/home/kwilson/Projects/psaseclipse/olimex2378/olimex2378-i2c/blinkm-test/blinkm-test.c:58
    xact_s.i2c_tx_buffer[1] =  'o';
    xact_s.i2c_tx_buffer[2] =  'n';
    xact_s.i2c_tx_buffer[3] =  0xbd;
    xact_s.i2c_tx_buffer[4] =  0x10;
    xact_s.i2c_tx_buffer[5] =  0x03;
    xact_s.write_length     =  0x06;
     1d0:	e0833003 	add	r3, r3, r3
/home/kwilson/Projects/psaseclipse/olimex2378/olimex2378-i2c/blinkm-test/blinkm-test.c:59
    xact_s.read_length      =  0x0;
     1d4:	e3a06000 	mov	r6, #0
/home/kwilson/Projects/psaseclipse/olimex2378/olimex2378-i2c/blinkm-test/blinkm-test.c:60
    start_i2c0_master_xact(&xact_s, &xact_callback);
     1d8:	e1a00004 	mov	r0, r4
/home/kwilson/Projects/psaseclipse/olimex2378/olimex2378-i2c/blinkm-test/blinkm-test.c:58
    xact_s.i2c_tx_buffer[1] =  'o';
    xact_s.i2c_tx_buffer[2] =  'n';
    xact_s.i2c_tx_buffer[3] =  0xbd;
    xact_s.i2c_tx_buffer[4] =  0x10;
    xact_s.i2c_tx_buffer[5] =  0x03;
    xact_s.write_length     =  0x06;
     1dc:	e5c43085 	strb	r3, [r4, #133]	; 0x85
/home/kwilson/Projects/psaseclipse/olimex2378/olimex2378-i2c/blinkm-test/blinkm-test.c:63
    xact_s.read_length      =  0x0;
    start_i2c0_master_xact(&xact_s, &xact_callback);

    uart0_putstring("VICIRQStatus is:\t0b");
    uart0_putstring(util_uitoa(VICIRQStatus,2));
     1e0:	e3e05000 	mvn	r5, #0
/home/kwilson/Projects/psaseclipse/olimex2378/olimex2378-i2c/blinkm-test/blinkm-test.c:59
    xact_s.i2c_tx_buffer[2] =  'n';
    xact_s.i2c_tx_buffer[3] =  0xbd;
    xact_s.i2c_tx_buffer[4] =  0x10;
    xact_s.i2c_tx_buffer[5] =  0x03;
    xact_s.write_length     =  0x06;
    xact_s.read_length      =  0x0;
     1e4:	e5c46086 	strb	r6, [r4, #134]	; 0x86
/home/kwilson/Projects/psaseclipse/olimex2378/olimex2378-i2c/blinkm-test/blinkm-test.c:60
    start_i2c0_master_xact(&xact_s, &xact_callback);
     1e8:	eb00030e 	bl	e28 <start_i2c0_master_xact>
/home/kwilson/Projects/psaseclipse/olimex2378/olimex2378-i2c/blinkm-test/blinkm-test.c:62

    uart0_putstring("VICIRQStatus is:\t0b");
     1ec:	e59f0218 	ldr	r0, [pc, #536]	; 40c <blinkm_task+0x27c>
     1f0:	eb0004d5 	bl	154c <uart0_putstring>
/home/kwilson/Projects/psaseclipse/olimex2378/olimex2378-i2c/blinkm-test/blinkm-test.c:63
    uart0_putstring(util_uitoa(VICIRQStatus,2));
     1f4:	e3a01002 	mov	r1, #2
     1f8:	e5150fff 	ldr	r0, [r5, #-4095]	; 0xfff
     1fc:	eb00054b 	bl	1730 <util_uitoa>
     200:	eb0004d1 	bl	154c <uart0_putstring>
/home/kwilson/Projects/psaseclipse/olimex2378/olimex2378-i2c/blinkm-test/blinkm-test.c:64
    uart0_putstring("\n");
     204:	e59f0204 	ldr	r0, [pc, #516]	; 410 <blinkm_task+0x280>
     208:	eb0004cf 	bl	154c <uart0_putstring>
/home/kwilson/Projects/psaseclipse/olimex2378/olimex2378-i2c/blinkm-test/blinkm-test.c:66

    uart0_putstring("VICRawIntr is:\t0b");
     20c:	e59f0200 	ldr	r0, [pc, #512]	; 414 <blinkm_task+0x284>
     210:	eb0004cd 	bl	154c <uart0_putstring>
/home/kwilson/Projects/psaseclipse/olimex2378/olimex2378-i2c/blinkm-test/blinkm-test.c:67
    uart0_putstring(util_uitoa(VICRawIntr,2));
     214:	e3a01002 	mov	r1, #2
     218:	e5150ff7 	ldr	r0, [r5, #-4087]	; 0xff7
     21c:	eb000543 	bl	1730 <util_uitoa>
     220:	eb0004c9 	bl	154c <uart0_putstring>
/home/kwilson/Projects/psaseclipse/olimex2378/olimex2378-i2c/blinkm-test/blinkm-test.c:68
    uart0_putstring("\n");
     224:	e59f01e4 	ldr	r0, [pc, #484]	; 410 <blinkm_task+0x280>
     228:	eb0004c7 	bl	154c <uart0_putstring>
/home/kwilson/Projects/psaseclipse/olimex2378/olimex2378-i2c/blinkm-test/blinkm-test.c:70

    uart0_putstring("I2C0STAT is:\t0b");
     22c:	e59f01e4 	ldr	r0, [pc, #484]	; 418 <blinkm_task+0x288>
     230:	eb0004c5 	bl	154c <uart0_putstring>
/home/kwilson/Projects/psaseclipse/olimex2378/olimex2378-i2c/blinkm-test/blinkm-test.c:71
    uart0_putstring(util_uitoa(I2C0STAT,2));
     234:	e59f31e0 	ldr	r3, [pc, #480]	; 41c <blinkm_task+0x28c>
     238:	e3a01002 	mov	r1, #2
     23c:	e5d30004 	ldrb	r0, [r3, #4]
     240:	eb00053a 	bl	1730 <util_uitoa>
     244:	eb0004c0 	bl	154c <uart0_putstring>
/home/kwilson/Projects/psaseclipse/olimex2378/olimex2378-i2c/blinkm-test/blinkm-test.c:72
    uart0_putstring("\n");
     248:	e59f01c0 	ldr	r0, [pc, #448]	; 410 <blinkm_task+0x280>
     24c:	eb0004be 	bl	154c <uart0_putstring>
/home/kwilson/Projects/psaseclipse/olimex2378/olimex2378-i2c/blinkm-test/blinkm-test.c:74

    uart0_putstring("VICIntEnable is:\t0b");
     250:	e59f01c8 	ldr	r0, [pc, #456]	; 420 <blinkm_task+0x290>
     254:	eb0004bc 	bl	154c <uart0_putstring>
/home/kwilson/Projects/psaseclipse/olimex2378/olimex2378-i2c/blinkm-test/blinkm-test.c:75
    uart0_putstring(util_uitoa(VICIntEnable,2));
     258:	e3a01002 	mov	r1, #2
     25c:	e5150fef 	ldr	r0, [r5, #-4079]	; 0xfef
     260:	eb000532 	bl	1730 <util_uitoa>
     264:	eb0004b8 	bl	154c <uart0_putstring>
/home/kwilson/Projects/psaseclipse/olimex2378/olimex2378-i2c/blinkm-test/blinkm-test.c:76
    uart0_putstring("\n");
     268:	e59f01a0 	ldr	r0, [pc, #416]	; 410 <blinkm_task+0x280>
     26c:	eb0004b6 	bl	154c <uart0_putstring>
/home/kwilson/Projects/psaseclipse/olimex2378/olimex2378-i2c/blinkm-test/blinkm-test.c:79


    uart0_putstring("VICVectAddr9 is:\t0b");
     270:	e59f01ac 	ldr	r0, [pc, #428]	; 424 <blinkm_task+0x294>
     274:	eb0004b4 	bl	154c <uart0_putstring>
/home/kwilson/Projects/psaseclipse/olimex2378/olimex2378-i2c/blinkm-test/blinkm-test.c:80
    uart0_putstring(util_uitoa(VICVectAddr9,2));
     278:	e3a01002 	mov	r1, #2
     27c:	e5150edb 	ldr	r0, [r5, #-3803]	; 0xedb
     280:	eb00052a 	bl	1730 <util_uitoa>
     284:	eb0004b0 	bl	154c <uart0_putstring>
/home/kwilson/Projects/psaseclipse/olimex2378/olimex2378-i2c/blinkm-test/blinkm-test.c:81
    uart0_putstring("\n");
     288:	e59f0180 	ldr	r0, [pc, #384]	; 410 <blinkm_task+0x280>
     28c:	eb0004ae 	bl	154c <uart0_putstring>
/home/kwilson/Projects/psaseclipse/olimex2378/olimex2378-i2c/blinkm-test/blinkm-test.c:83

    uart0_putstring("VICVectAddr8 is:\t0b");
     290:	e59f0190 	ldr	r0, [pc, #400]	; 428 <blinkm_task+0x298>
     294:	eb0004ac 	bl	154c <uart0_putstring>
/home/kwilson/Projects/psaseclipse/olimex2378/olimex2378-i2c/blinkm-test/blinkm-test.c:84
    uart0_putstring(util_uitoa(VICVectAddr8,2));
     298:	e3a01002 	mov	r1, #2
     29c:	e5150edf 	ldr	r0, [r5, #-3807]	; 0xedf
     2a0:	eb000522 	bl	1730 <util_uitoa>
     2a4:	eb0004a8 	bl	154c <uart0_putstring>
/home/kwilson/Projects/psaseclipse/olimex2378/olimex2378-i2c/blinkm-test/blinkm-test.c:93


    //VICSoftInt = (1<<VIC_I2C0_BIT);


    STAT_LED_OFF;
     2a8:	e59f817c 	ldr	r8, [pc, #380]	; 42c <blinkm_task+0x29c>
/home/kwilson/Projects/psaseclipse/olimex2378/olimex2378-i2c/blinkm-test/blinkm-test.c:85
    uart0_putstring(util_uitoa(VICVectAddr9,2));
    uart0_putstring("\n");

    uart0_putstring("VICVectAddr8 is:\t0b");
    uart0_putstring(util_uitoa(VICVectAddr8,2));
    uart0_putstring("\n");
     2ac:	e59f015c 	ldr	r0, [pc, #348]	; 410 <blinkm_task+0x280>
     2b0:	eb0004a5 	bl	154c <uart0_putstring>
/home/kwilson/Projects/psaseclipse/olimex2378/olimex2378-i2c/blinkm-test/blinkm-test.c:93


    //VICSoftInt = (1<<VIC_I2C0_BIT);


    STAT_LED_OFF;
     2b4:	e3a07702 	mov	r7, #524288	; 0x80000
/home/kwilson/Projects/psaseclipse/olimex2378/olimex2378-i2c/blinkm-test/blinkm-test.c:87

    uart0_putstring("VICVectAddr8 is:\t0b");
    uart0_putstring(util_uitoa(VICVectAddr8,2));
    uart0_putstring("\n");

    uart0_putstring("past start xaction write .\n");
     2b8:	e59f0170 	ldr	r0, [pc, #368]	; 430 <blinkm_task+0x2a0>
     2bc:	eb0004a2 	bl	154c <uart0_putstring>
/home/kwilson/Projects/psaseclipse/olimex2378/olimex2378-i2c/blinkm-test/blinkm-test.c:95
    //VICSoftInt = (1<<VIC_I2C0_BIT);


    STAT_LED_OFF;
    i = 0;
    on = 0;
     2c0:	e1a05006 	mov	r5, r6
/home/kwilson/Projects/psaseclipse/olimex2378/olimex2378-i2c/blinkm-test/blinkm-test.c:93


    //VICSoftInt = (1<<VIC_I2C0_BIT);


    STAT_LED_OFF;
     2c4:	e5087fc7 	str	r7, [r8, #-4039]	; 0xfc7
/home/kwilson/Projects/psaseclipse/olimex2378/olimex2378-i2c/blinkm-test/blinkm-test.c:97
    i = 0;
    on = 0;
    // poll
    while(xact_s.xact_active == 1) {
     2c8:	ea00000a 	b	2f8 <blinkm_task+0x168>
/home/kwilson/Projects/psaseclipse/olimex2378/olimex2378-i2c/blinkm-test/blinkm-test.c:98
        i++;
     2cc:	e2866001 	add	r6, r6, #1
/home/kwilson/Projects/psaseclipse/olimex2378/olimex2378-i2c/blinkm-test/blinkm-test.c:99
        if(i % BLINKM_POLL_WAITTICKS == 0) {
     2d0:	e1a00006 	mov	r0, r6
     2d4:	e59f1158 	ldr	r1, [pc, #344]	; 434 <blinkm_task+0x2a4>
     2d8:	eb00063d 	bl	1bd4 <__umodsi3>
     2dc:	e3500000 	cmp	r0, #0
     2e0:	1a000005 	bne	2fc <blinkm_task+0x16c>
/home/kwilson/Projects/psaseclipse/olimex2378/olimex2378-i2c/blinkm-test/blinkm-test.c:101
         //   uart0_putstring("waiting....\n");
            if(on==0) {
     2e4:	e3550000 	cmp	r5, #0
/home/kwilson/Projects/psaseclipse/olimex2378/olimex2378-i2c/blinkm-test/blinkm-test.c:102
                STAT_LED_ON;
     2e8:	05087fc3 	streq	r7, [r8, #-4035]	; 0xfc3
/home/kwilson/Projects/psaseclipse/olimex2378/olimex2378-i2c/blinkm-test/blinkm-test.c:106
                on = 1;
            } else {
                on = 0;
                STAT_LED_OFF;
     2ec:	15087fc7 	strne	r7, [r8, #-4039]	; 0xfc7
/home/kwilson/Projects/psaseclipse/olimex2378/olimex2378-i2c/blinkm-test/blinkm-test.c:103
        i++;
        if(i % BLINKM_POLL_WAITTICKS == 0) {
         //   uart0_putstring("waiting....\n");
            if(on==0) {
                STAT_LED_ON;
                on = 1;
     2f0:	01a0500a 	moveq	r5, sl
/home/kwilson/Projects/psaseclipse/olimex2378/olimex2378-i2c/blinkm-test/blinkm-test.c:105
            } else {
                on = 0;
     2f4:	11a05000 	movne	r5, r0
/home/kwilson/Projects/psaseclipse/olimex2378/olimex2378-i2c/blinkm-test/blinkm-test.c:95
    //VICSoftInt = (1<<VIC_I2C0_BIT);


    STAT_LED_OFF;
    i = 0;
    on = 0;
     2f8:	e3a06000 	mov	r6, #0
/home/kwilson/Projects/psaseclipse/olimex2378/olimex2378-i2c/blinkm-test/blinkm-test.c:97
    // poll
    while(xact_s.xact_active == 1) {
     2fc:	e5d4a087 	ldrb	sl, [r4, #135]	; 0x87
     300:	e20aa0ff 	and	sl, sl, #255	; 0xff
     304:	e35a0001 	cmp	sl, #1
     308:	0affffef 	beq	2cc <blinkm_task+0x13c>
/home/kwilson/Projects/psaseclipse/olimex2378/olimex2378-i2c/blinkm-test/blinkm-test.c:112
            }
            i = 0;
        }
    }

    if(xact_s.xact_success == 1) {
     30c:	e59f30f0 	ldr	r3, [pc, #240]	; 404 <blinkm_task+0x274>
     310:	e5d33088 	ldrb	r3, [r3, #136]	; 0x88
     314:	e3530001 	cmp	r3, #1
/home/kwilson/Projects/psaseclipse/olimex2378/olimex2378-i2c/blinkm-test/blinkm-test.c:113
        uart0_putstring("i2c write xaction success.\n");
     318:	059f0118 	ldreq	r0, [pc, #280]	; 438 <blinkm_task+0x2a8>
/home/kwilson/Projects/psaseclipse/olimex2378/olimex2378-i2c/blinkm-test/blinkm-test.c:115
    } else {
        uart0_putstring("i2c write xaction fail.\n");
     31c:	159f0118 	ldrne	r0, [pc, #280]	; 43c <blinkm_task+0x2ac>
     320:	eb000489 	bl	154c <uart0_putstring>
/home/kwilson/Projects/psaseclipse/olimex2378/olimex2378-i2c/blinkm-test/blinkm-test.c:118
    }

    uart0_putstring("i2c Read Color Task...\n");
     324:	e59f0114 	ldr	r0, [pc, #276]	; 440 <blinkm_task+0x2b0>
     328:	eb000487 	bl	154c <uart0_putstring>
/home/kwilson/Projects/psaseclipse/olimex2378/olimex2378-i2c/blinkm-test/blinkm-test.c:122

    // xact_s.I2C_TX_buffer[1] =  'Z';
    //
    xact_s.i2c_tx_buffer[0] =  i2c_create_write_address(BLINKM_ADDR);
     32c:	e3a00009 	mov	r0, #9
     330:	eb0001ae 	bl	9f0 <i2c_create_write_address>
     334:	e59f40c8 	ldr	r4, [pc, #200]	; 404 <blinkm_task+0x274>
/home/kwilson/Projects/psaseclipse/olimex2378/olimex2378-i2c/blinkm-test/blinkm-test.c:123
    xact_s.i2c_tx_buffer[1] =  'g';
     338:	e3a03067 	mov	r3, #103	; 0x67
/home/kwilson/Projects/psaseclipse/olimex2378/olimex2378-i2c/blinkm-test/blinkm-test.c:122

    uart0_putstring("i2c Read Color Task...\n");

    // xact_s.I2C_TX_buffer[1] =  'Z';
    //
    xact_s.i2c_tx_buffer[0] =  i2c_create_write_address(BLINKM_ADDR);
     33c:	e5c40004 	strb	r0, [r4, #4]
/home/kwilson/Projects/psaseclipse/olimex2378/olimex2378-i2c/blinkm-test/blinkm-test.c:123
    xact_s.i2c_tx_buffer[1] =  'g';
     340:	e5c43005 	strb	r3, [r4, #5]
/home/kwilson/Projects/psaseclipse/olimex2378/olimex2378-i2c/blinkm-test/blinkm-test.c:125
    xact_s.write_length     =  0x02;
    xact_s.i2c_tx_buffer[2] =  i2c_create_read_address(BLINKM_ADDR);
     344:	e3a00009 	mov	r0, #9
/home/kwilson/Projects/psaseclipse/olimex2378/olimex2378-i2c/blinkm-test/blinkm-test.c:124

    // xact_s.I2C_TX_buffer[1] =  'Z';
    //
    xact_s.i2c_tx_buffer[0] =  i2c_create_write_address(BLINKM_ADDR);
    xact_s.i2c_tx_buffer[1] =  'g';
    xact_s.write_length     =  0x02;
     348:	e3a03002 	mov	r3, #2
     34c:	e5c43085 	strb	r3, [r4, #133]	; 0x85
/home/kwilson/Projects/psaseclipse/olimex2378/olimex2378-i2c/blinkm-test/blinkm-test.c:125
    xact_s.i2c_tx_buffer[2] =  i2c_create_read_address(BLINKM_ADDR);
     350:	eb0001a2 	bl	9e0 <i2c_create_read_address>
/home/kwilson/Projects/psaseclipse/olimex2378/olimex2378-i2c/blinkm-test/blinkm-test.c:126
    xact_s.read_length      =  0x03;
     354:	e3a03003 	mov	r3, #3
/home/kwilson/Projects/psaseclipse/olimex2378/olimex2378-i2c/blinkm-test/blinkm-test.c:125
    // xact_s.I2C_TX_buffer[1] =  'Z';
    //
    xact_s.i2c_tx_buffer[0] =  i2c_create_write_address(BLINKM_ADDR);
    xact_s.i2c_tx_buffer[1] =  'g';
    xact_s.write_length     =  0x02;
    xact_s.i2c_tx_buffer[2] =  i2c_create_read_address(BLINKM_ADDR);
     358:	e5c40006 	strb	r0, [r4, #6]
/home/kwilson/Projects/psaseclipse/olimex2378/olimex2378-i2c/blinkm-test/blinkm-test.c:127
    xact_s.read_length      =  0x03;
    start_i2c0_master_xact(&xact_s, &xact_callback);
     35c:	e59f10a4 	ldr	r1, [pc, #164]	; 408 <blinkm_task+0x278>
     360:	e1a00004 	mov	r0, r4
/home/kwilson/Projects/psaseclipse/olimex2378/olimex2378-i2c/blinkm-test/blinkm-test.c:126
    //
    xact_s.i2c_tx_buffer[0] =  i2c_create_write_address(BLINKM_ADDR);
    xact_s.i2c_tx_buffer[1] =  'g';
    xact_s.write_length     =  0x02;
    xact_s.i2c_tx_buffer[2] =  i2c_create_read_address(BLINKM_ADDR);
    xact_s.read_length      =  0x03;
     364:	e5c43086 	strb	r3, [r4, #134]	; 0x86
/home/kwilson/Projects/psaseclipse/olimex2378/olimex2378-i2c/blinkm-test/blinkm-test.c:127
    start_i2c0_master_xact(&xact_s, &xact_callback);
     368:	eb0002ae 	bl	e28 <start_i2c0_master_xact>
/home/kwilson/Projects/psaseclipse/olimex2378/olimex2378-i2c/blinkm-test/blinkm-test.c:130

    // poll
    while(xact_s.xact_active == 1) {
     36c:	ea000001 	b	378 <blinkm_task+0x1e8>
/home/kwilson/Projects/psaseclipse/olimex2378/olimex2378-i2c/blinkm-test/blinkm-test.c:131
        util_waitticks(BLINKM_POLL_WAITTICKS);
     370:	e59f00bc 	ldr	r0, [pc, #188]	; 434 <blinkm_task+0x2a4>
     374:	eb000516 	bl	17d4 <util_waitticks>
/home/kwilson/Projects/psaseclipse/olimex2378/olimex2378-i2c/blinkm-test/blinkm-test.c:130
    xact_s.i2c_tx_buffer[2] =  i2c_create_read_address(BLINKM_ADDR);
    xact_s.read_length      =  0x03;
    start_i2c0_master_xact(&xact_s, &xact_callback);

    // poll
    while(xact_s.xact_active == 1) {
     378:	e5d43087 	ldrb	r3, [r4, #135]	; 0x87
     37c:	e3530001 	cmp	r3, #1
     380:	0afffffa 	beq	370 <blinkm_task+0x1e0>
/home/kwilson/Projects/psaseclipse/olimex2378/olimex2378-i2c/blinkm-test/blinkm-test.c:133
        util_waitticks(BLINKM_POLL_WAITTICKS);
    }
    if(xact_s.xact_success == 1) {
     384:	e59f3078 	ldr	r3, [pc, #120]	; 404 <blinkm_task+0x274>
     388:	e5d33088 	ldrb	r3, [r3, #136]	; 0x88
     38c:	e3530001 	cmp	r3, #1
/home/kwilson/Projects/psaseclipse/olimex2378/olimex2378-i2c/blinkm-test/blinkm-test.c:134
        uart0_putstring("i2c read xaction success.\n");
     390:	059f00ac 	ldreq	r0, [pc, #172]	; 444 <blinkm_task+0x2b4>
/home/kwilson/Projects/psaseclipse/olimex2378/olimex2378-i2c/blinkm-test/blinkm-test.c:136
    } else {
        uart0_putstring("i2c read xaction fail.\n");
     394:	159f00ac 	ldrne	r0, [pc, #172]	; 448 <blinkm_task+0x2b8>
/home/kwilson/Projects/psaseclipse/olimex2378/olimex2378-i2c/blinkm-test/blinkm-test.c:140
    }

    uart0_putstring("Read data 0 is 0x");
    uart0_putstring(util_uitoa(xact_s.i2c_rd_buffer[0],16));
     398:	e59f4064 	ldr	r4, [pc, #100]	; 404 <blinkm_task+0x274>
/home/kwilson/Projects/psaseclipse/olimex2378/olimex2378-i2c/blinkm-test/blinkm-test.c:136
        util_waitticks(BLINKM_POLL_WAITTICKS);
    }
    if(xact_s.xact_success == 1) {
        uart0_putstring("i2c read xaction success.\n");
    } else {
        uart0_putstring("i2c read xaction fail.\n");
     39c:	eb00046a 	bl	154c <uart0_putstring>
/home/kwilson/Projects/psaseclipse/olimex2378/olimex2378-i2c/blinkm-test/blinkm-test.c:139
    }

    uart0_putstring("Read data 0 is 0x");
     3a0:	e59f00a4 	ldr	r0, [pc, #164]	; 44c <blinkm_task+0x2bc>
     3a4:	eb000468 	bl	154c <uart0_putstring>
/home/kwilson/Projects/psaseclipse/olimex2378/olimex2378-i2c/blinkm-test/blinkm-test.c:140
    uart0_putstring(util_uitoa(xact_s.i2c_rd_buffer[0],16));
     3a8:	e3a01010 	mov	r1, #16
     3ac:	e5d40044 	ldrb	r0, [r4, #68]	; 0x44
     3b0:	eb0004de 	bl	1730 <util_uitoa>
     3b4:	eb000464 	bl	154c <uart0_putstring>
/home/kwilson/Projects/psaseclipse/olimex2378/olimex2378-i2c/blinkm-test/blinkm-test.c:141
    uart0_putstring("\n");
     3b8:	e59f0050 	ldr	r0, [pc, #80]	; 410 <blinkm_task+0x280>
     3bc:	eb000462 	bl	154c <uart0_putstring>
/home/kwilson/Projects/psaseclipse/olimex2378/olimex2378-i2c/blinkm-test/blinkm-test.c:142
    uart0_putstring("Read data 0 is 0x");
     3c0:	e59f0084 	ldr	r0, [pc, #132]	; 44c <blinkm_task+0x2bc>
     3c4:	eb000460 	bl	154c <uart0_putstring>
/home/kwilson/Projects/psaseclipse/olimex2378/olimex2378-i2c/blinkm-test/blinkm-test.c:143
    uart0_putstring(util_uitoa(xact_s.i2c_rd_buffer[0],16));
     3c8:	e3a01010 	mov	r1, #16
     3cc:	e5d40044 	ldrb	r0, [r4, #68]	; 0x44
     3d0:	eb0004d6 	bl	1730 <util_uitoa>
     3d4:	eb00045c 	bl	154c <uart0_putstring>
/home/kwilson/Projects/psaseclipse/olimex2378/olimex2378-i2c/blinkm-test/blinkm-test.c:144
    uart0_putstring("\n");
     3d8:	e59f0030 	ldr	r0, [pc, #48]	; 410 <blinkm_task+0x280>
     3dc:	eb00045a 	bl	154c <uart0_putstring>
/home/kwilson/Projects/psaseclipse/olimex2378/olimex2378-i2c/blinkm-test/blinkm-test.c:145
    uart0_putstring("Read data 0 is 0x");
     3e0:	e59f0064 	ldr	r0, [pc, #100]	; 44c <blinkm_task+0x2bc>
     3e4:	eb000458 	bl	154c <uart0_putstring>
/home/kwilson/Projects/psaseclipse/olimex2378/olimex2378-i2c/blinkm-test/blinkm-test.c:146
    uart0_putstring(util_uitoa(xact_s.i2c_rd_buffer[0],16));
     3e8:	e3a01010 	mov	r1, #16
     3ec:	e5d40044 	ldrb	r0, [r4, #68]	; 0x44
     3f0:	eb0004ce 	bl	1730 <util_uitoa>
     3f4:	eb000454 	bl	154c <uart0_putstring>
/home/kwilson/Projects/psaseclipse/olimex2378/olimex2378-i2c/blinkm-test/blinkm-test.c:147
    uart0_putstring("\n");
     3f8:	e59f0010 	ldr	r0, [pc, #16]	; 410 <blinkm_task+0x280>
/home/kwilson/Projects/psaseclipse/olimex2378/olimex2378-i2c/blinkm-test/blinkm-test.c:148
}
     3fc:	e8bd45f0 	pop	{r4, r5, r6, r7, r8, sl, lr}
/home/kwilson/Projects/psaseclipse/olimex2378/olimex2378-i2c/blinkm-test/blinkm-test.c:147
    uart0_putstring("Read data 0 is 0x");
    uart0_putstring(util_uitoa(xact_s.i2c_rd_buffer[0],16));
    uart0_putstring("\n");
    uart0_putstring("Read data 0 is 0x");
    uart0_putstring(util_uitoa(xact_s.i2c_rd_buffer[0],16));
    uart0_putstring("\n");
     400:	ea000451 	b	154c <uart0_putstring>
     404:	40000000 	.word	0x40000000
     408:	00000108 	.word	0x00000108
     40c:	00001cb1 	.word	0x00001cb1
     410:	00001e0f 	.word	0x00001e0f
     414:	00001cc5 	.word	0x00001cc5
     418:	00001cd7 	.word	0x00001cd7
     41c:	e001c000 	.word	0xe001c000
     420:	00001ce7 	.word	0x00001ce7
     424:	00001cfb 	.word	0x00001cfb
     428:	00001d0f 	.word	0x00001d0f
     42c:	3fffcfff 	.word	0x3fffcfff
     430:	00001d23 	.word	0x00001d23
     434:	0007a120 	.word	0x0007a120
     438:	00001d3f 	.word	0x00001d3f
     43c:	00001d5b 	.word	0x00001d5b
     440:	00001d74 	.word	0x00001d74
     444:	00001d8c 	.word	0x00001d8c
     448:	00001da7 	.word	0x00001da7
     44c:	00001dbf 	.word	0x00001dbf

00000450 <main>:
main():
/home/kwilson/Projects/psaseclipse/olimex2378/olimex2378-i2c/blinkm-test/blinkm-test.c:151
}


int main (void) {
     450:	e52de004 	push	{lr}		; (str lr, [sp, #-4]!)
/home/kwilson/Projects/psaseclipse/olimex2378/olimex2378-i2c/blinkm-test/blinkm-test.c:155

    int32_t cycles = 5;

    pllstart_seventytwomhz() ;
     454:	eb0002d4 	bl	fac <pllstart_seventytwomhz>
/home/kwilson/Projects/psaseclipse/olimex2378/olimex2378-i2c/blinkm-test/blinkm-test.c:159
    //   pllstart_sixtymhz() ;
    //   pllstart_fourtyeightmhz() ;

    uart0_init_115200() ;
     458:	eb0003d9 	bl	13c4 <uart0_init_115200>
/home/kwilson/Projects/psaseclipse/olimex2378/olimex2378-i2c/blinkm-test/blinkm-test.c:161

    uart0_putstring("\n***Starting olimex blinkm test***\n\n");
     45c:	e59f004c 	ldr	r0, [pc, #76]	; 4b0 <main+0x60>
     460:	eb000439 	bl	154c <uart0_putstring>
/home/kwilson/Projects/psaseclipse/olimex2378/olimex2378-i2c/blinkm-test/blinkm-test.c:163

    i2c_init(I2C0);
     464:	e3a00000 	mov	r0, #0
     468:	eb000174 	bl	a40 <i2c_init>
/home/kwilson/Projects/psaseclipse/olimex2378/olimex2378-i2c/blinkm-test/blinkm-test.c:165

    uart0_putstring("cpsr is:\t0b");
     46c:	e59f0040 	ldr	r0, [pc, #64]	; 4b4 <main+0x64>
     470:	eb000435 	bl	154c <uart0_putstring>
__get_cpsr():
/home/kwilson/Projects/psaseclipse/olimex2378/olimex2378-i2c/blinkm-test/../../liblpc23xx/lpc23xx-util/include/lpc23xx-util.h:30
 * Reads and returns the value of the cpsr
http://infocenter.arm.com/help/index.jsp?topic=/com.arm.doc.faqs/ka3724.html
 */
static inline uint32_t __get_cpsr(void) {
    uint32_t retval;
    asm volatile (" mrs  %0, cpsr" : "=r" (retval) : /* no inputs */  );
     474:	e10f0000 	mrs	r0, CPSR
main():
/home/kwilson/Projects/psaseclipse/olimex2378/olimex2378-i2c/blinkm-test/blinkm-test.c:166
    uart0_putstring(util_uitoa(__get_cpsr(),2));
     478:	e3a01002 	mov	r1, #2
     47c:	eb0004ab 	bl	1730 <util_uitoa>
     480:	eb000431 	bl	154c <uart0_putstring>
/home/kwilson/Projects/psaseclipse/olimex2378/olimex2378-i2c/blinkm-test/blinkm-test.c:167
    uart0_putstring("\n");
     484:	e59f002c 	ldr	r0, [pc, #44]	; 4b8 <main+0x68>
     488:	eb00042f 	bl	154c <uart0_putstring>
/home/kwilson/Projects/psaseclipse/olimex2378/olimex2378-i2c/blinkm-test/blinkm-test.c:169

    stat_led_flash(cycles); // initial visual check
     48c:	e3a00005 	mov	r0, #5
     490:	eb000557 	bl	19f4 <stat_led_flash>
/home/kwilson/Projects/psaseclipse/olimex2378/olimex2378-i2c/blinkm-test/blinkm-test.c:171

    blinkm_task() ;
     494:	ebffff3d 	bl	190 <blinkm_task>
/home/kwilson/Projects/psaseclipse/olimex2378/olimex2378-i2c/blinkm-test/blinkm-test.c:173

    stat_led_flash_slow(2);
     498:	e3a00002 	mov	r0, #2
     49c:	eb000522 	bl	192c <stat_led_flash_slow>
/home/kwilson/Projects/psaseclipse/olimex2378/olimex2378-i2c/blinkm-test/blinkm-test.c:175

    uart0_putstring("\n\n***Done***\n\n");
     4a0:	e59f0014 	ldr	r0, [pc, #20]	; 4bc <main+0x6c>
     4a4:	eb000428 	bl	154c <uart0_putstring>
/home/kwilson/Projects/psaseclipse/olimex2378/olimex2378-i2c/blinkm-test/blinkm-test.c:179

    return(0);

}
     4a8:	e3a00000 	mov	r0, #0
     4ac:	e49df004 	pop	{pc}		; (ldr pc, [sp], #4)
     4b0:	00001dd1 	.word	0x00001dd1
     4b4:	00001df6 	.word	0x00001df6
     4b8:	00001e0f 	.word	0x00001e0f
     4bc:	00001e02 	.word	0x00001e02

000004c0 <IRQ_Routine>:
IRQ_Routine():
/home/kwilson/Projects/psaseclipse/olimex2378/olimex2378-i2c/blinkm-test/hwsys.c:12

/*
 *  Stubs for various interrupts 
 */

void IRQ_Routine (void) {
     4c0:	eafffffe 	b	4c0 <IRQ_Routine>

000004c4 <FIQ_Routine>:
FIQ_Routine():
/home/kwilson/Projects/psaseclipse/olimex2378/olimex2378-i2c/blinkm-test/hwsys.c:16
	while (1) ;	
}

void FIQ_Routine (void)  {
     4c4:	eafffffe 	b	4c4 <FIQ_Routine>

000004c8 <SWI_Routine>:
SWI_Routine():
/home/kwilson/Projects/psaseclipse/olimex2378/olimex2378-i2c/blinkm-test/hwsys.c:20
	while (1) ;	
}

void SWI_Routine (void)  {
     4c8:	eafffffe 	b	4c8 <SWI_Routine>

000004cc <UNDEF_Routine>:
UNDEF_Routine():
/home/kwilson/Projects/psaseclipse/olimex2378/olimex2378-i2c/blinkm-test/hwsys.c:24
	while (1) ;	
}

void UNDEF_Routine (void) {
     4cc:	eafffffe 	b	4cc <UNDEF_Routine>

000004d0 <i2c0_isr>:
i2c0_isr():
/home/kwilson/Projects/psaseclipse/olimex2378/liblpc23xx/lpc23xx-i2c/lpc23xx-i2c.c:208
/*
 * i2c0_isr
 */
void i2c0_isr(void) {

   ISR_ENTRY;
     4d0:	e24ee004 	sub	lr, lr, #4
     4d4:	e92d5fff 	push	{r0, r1, r2, r3, r4, r5, r6, r7, r8, r9, sl, fp, ip, lr}
     4d8:	e14f1000 	mrs	r1, SPSR
     4dc:	e92d0002 	push	{r1}
/home/kwilson/Projects/psaseclipse/olimex2378/liblpc23xx/lpc23xx-i2c/lpc23xx-i2c.c:215
    uint32_t                 status;
    uint8_t                  xact_exit;

    xact_exit              = 0;

    status                   = I2C0STAT;
     4e0:	e3a0320e 	mov	r3, #-536870912	; 0xe0000000
     4e4:	e2833907 	add	r3, r3, #114688	; 0x1c000
     4e8:	e5d34004 	ldrb	r4, [r3, #4]
/home/kwilson/Projects/psaseclipse/olimex2378/liblpc23xx/lpc23xx-i2c/lpc23xx-i2c.c:216
    uart0_putstring("Entering i2c0_isr");
     4ec:	e59f04dc 	ldr	r0, [pc, #1244]	; 9d0 <i2c0_isr+0x500>
     4f0:	eb000415 	bl	154c <uart0_putstring>
/home/kwilson/Projects/psaseclipse/olimex2378/liblpc23xx/lpc23xx-i2c/lpc23xx-i2c.c:215
    uint32_t                 status;
    uint8_t                  xact_exit;

    xact_exit              = 0;

    status                   = I2C0STAT;
     4f4:	e20440ff 	and	r4, r4, #255	; 0xff
/home/kwilson/Projects/psaseclipse/olimex2378/liblpc23xx/lpc23xx-i2c/lpc23xx-i2c.c:217
    uart0_putstring("Entering i2c0_isr");
    uart0_putstring("status is: 0x");
     4f8:	e59f04d4 	ldr	r0, [pc, #1236]	; 9d4 <i2c0_isr+0x504>
     4fc:	eb000412 	bl	154c <uart0_putstring>
/home/kwilson/Projects/psaseclipse/olimex2378/liblpc23xx/lpc23xx-i2c/lpc23xx-i2c.c:218
    uart0_putstring(util_uitoa(status,16));
     500:	e3a01010 	mov	r1, #16
     504:	e1a00004 	mov	r0, r4
     508:	eb000488 	bl	1730 <util_uitoa>
     50c:	eb00040e 	bl	154c <uart0_putstring>
/home/kwilson/Projects/psaseclipse/olimex2378/liblpc23xx/lpc23xx-i2c/lpc23xx-i2c.c:221
    //Read the I2C state from the correct I2STA register and then branch to
    //the corresponding state routine.
    switch(status) {
     510:	e3540058 	cmp	r4, #88	; 0x58
     514:	979ff104 	ldrls	pc, [pc, r4, lsl #2]
     518:	ea000086 	b	738 <i2c0_isr+0x268>
     51c:	00000738 	.word	0x00000738
     520:	00000738 	.word	0x00000738
     524:	00000738 	.word	0x00000738
     528:	00000738 	.word	0x00000738
     52c:	00000738 	.word	0x00000738
     530:	00000738 	.word	0x00000738
     534:	00000738 	.word	0x00000738
     538:	00000738 	.word	0x00000738
     53c:	00000764 	.word	0x00000764
     540:	00000738 	.word	0x00000738
     544:	00000738 	.word	0x00000738
     548:	00000738 	.word	0x00000738
     54c:	00000738 	.word	0x00000738
     550:	00000738 	.word	0x00000738
     554:	00000738 	.word	0x00000738
     558:	00000738 	.word	0x00000738
     55c:	000007bc 	.word	0x000007bc
     560:	00000738 	.word	0x00000738
     564:	00000738 	.word	0x00000738
     568:	00000738 	.word	0x00000738
     56c:	00000738 	.word	0x00000738
     570:	00000738 	.word	0x00000738
     574:	00000738 	.word	0x00000738
     578:	00000738 	.word	0x00000738
     57c:	00000800 	.word	0x00000800
     580:	00000738 	.word	0x00000738
     584:	00000738 	.word	0x00000738
     588:	00000738 	.word	0x00000738
     58c:	00000738 	.word	0x00000738
     590:	00000738 	.word	0x00000738
     594:	00000738 	.word	0x00000738
     598:	00000738 	.word	0x00000738
     59c:	00000680 	.word	0x00000680
     5a0:	00000738 	.word	0x00000738
     5a4:	00000738 	.word	0x00000738
     5a8:	00000738 	.word	0x00000738
     5ac:	00000738 	.word	0x00000738
     5b0:	00000738 	.word	0x00000738
     5b4:	00000738 	.word	0x00000738
     5b8:	00000738 	.word	0x00000738
     5bc:	00000928 	.word	0x00000928
     5c0:	00000738 	.word	0x00000738
     5c4:	00000738 	.word	0x00000738
     5c8:	00000738 	.word	0x00000738
     5cc:	00000738 	.word	0x00000738
     5d0:	00000738 	.word	0x00000738
     5d4:	00000738 	.word	0x00000738
     5d8:	00000738 	.word	0x00000738
     5dc:	00000680 	.word	0x00000680
     5e0:	00000738 	.word	0x00000738
     5e4:	00000738 	.word	0x00000738
     5e8:	00000738 	.word	0x00000738
     5ec:	00000738 	.word	0x00000738
     5f0:	00000738 	.word	0x00000738
     5f4:	00000738 	.word	0x00000738
     5f8:	00000738 	.word	0x00000738
     5fc:	000008a0 	.word	0x000008a0
     600:	00000738 	.word	0x00000738
     604:	00000738 	.word	0x00000738
     608:	00000738 	.word	0x00000738
     60c:	00000738 	.word	0x00000738
     610:	00000738 	.word	0x00000738
     614:	00000738 	.word	0x00000738
     618:	00000738 	.word	0x00000738
     61c:	000008c0 	.word	0x000008c0
     620:	00000738 	.word	0x00000738
     624:	00000738 	.word	0x00000738
     628:	00000738 	.word	0x00000738
     62c:	00000738 	.word	0x00000738
     630:	00000738 	.word	0x00000738
     634:	00000738 	.word	0x00000738
     638:	00000738 	.word	0x00000738
     63c:	00000680 	.word	0x00000680
     640:	00000738 	.word	0x00000738
     644:	00000738 	.word	0x00000738
     648:	00000738 	.word	0x00000738
     64c:	00000738 	.word	0x00000738
     650:	00000738 	.word	0x00000738
     654:	00000738 	.word	0x00000738
     658:	00000738 	.word	0x00000738
     65c:	0000084c 	.word	0x0000084c
     660:	00000738 	.word	0x00000738
     664:	00000738 	.word	0x00000738
     668:	00000738 	.word	0x00000738
     66c:	00000738 	.word	0x00000738
     670:	00000738 	.word	0x00000738
     674:	00000738 	.word	0x00000738
     678:	00000738 	.word	0x00000738
     67c:	000008ec 	.word	0x000008ec
/home/kwilson/Projects/psaseclipse/olimex2378/liblpc23xx/lpc23xx-i2c/lpc23xx-i2c.c:347

            // State 0x48 - 
            //   Slave Address + Read has been transmitted, NOT ACK has been received. 
            //   A Stop condition will be transmitted.
        case 0x48:
            I2C0CONSET        = (I2C_STO | I2C_AA);
     680:	e3a0320e 	mov	r3, #-536870912	; 0xe0000000
     684:	e2833907 	add	r3, r3, #114688	; 0x1c000
/home/kwilson/Projects/psaseclipse/olimex2378/liblpc23xx/lpc23xx-i2c/lpc23xx-i2c.c:349
            xact_exit       = 1;
            i2c0_s_g.state    = I2C_NOTACK;
     688:	e59f4348 	ldr	r4, [pc, #840]	; 9d8 <i2c0_isr+0x508>
/home/kwilson/Projects/psaseclipse/olimex2378/liblpc23xx/lpc23xx-i2c/lpc23xx-i2c.c:347

            // State 0x48 - 
            //   Slave Address + Read has been transmitted, NOT ACK has been received. 
            //   A Stop condition will be transmitted.
        case 0x48:
            I2C0CONSET        = (I2C_STO | I2C_AA);
     68c:	e3a02014 	mov	r2, #20
     690:	e5c32000 	strb	r2, [r3]
/home/kwilson/Projects/psaseclipse/olimex2378/liblpc23xx/lpc23xx-i2c/lpc23xx-i2c.c:349
            xact_exit       = 1;
            i2c0_s_g.state    = I2C_NOTACK;
     694:	e3a03005 	mov	r3, #5
     698:	e5843008 	str	r3, [r4, #8]
/home/kwilson/Projects/psaseclipse/olimex2378/liblpc23xx/lpc23xx-i2c/lpc23xx-i2c.c:391
            I2C0CONSET        = (I2C_STO | I2C_AA);
            xact_exit       = 1;
            break;
    }

    I2C0CONCLR = I2C_SIC;
     69c:	e3a0320e 	mov	r3, #-536870912	; 0xe0000000
     6a0:	e2833907 	add	r3, r3, #114688	; 0x1c000
     6a4:	e3a02008 	mov	r2, #8
     6a8:	e5c32018 	strb	r2, [r3, #24]
/home/kwilson/Projects/psaseclipse/olimex2378/liblpc23xx/lpc23xx-i2c/lpc23xx-i2c.c:394

    // p 91 LPC23xx_UM
    VICAddress = 0x0;      // clear VIC address
     6ac:	e3a02000 	mov	r2, #0
     6b0:	e3e03000 	mvn	r3, #0
     6b4:	e50320ff 	str	r2, [r3, #-255]	; 0xff
/home/kwilson/Projects/psaseclipse/olimex2378/liblpc23xx/lpc23xx-i2c/lpc23xx-i2c.c:397

    if(xact_exit == 1) {  // STOP Bit has been set
        if(i2c0_s_g.state != I2C_ERROR) {
     6b8:	e5943008 	ldr	r3, [r4, #8]
     6bc:	e3530006 	cmp	r3, #6
/home/kwilson/Projects/psaseclipse/olimex2378/liblpc23xx/lpc23xx-i2c/lpc23xx-i2c.c:398
            i2c0_s_g.xact_success = 1;
     6c0:	159f3310 	ldrne	r3, [pc, #784]	; 9d8 <i2c0_isr+0x508>
/home/kwilson/Projects/psaseclipse/olimex2378/liblpc23xx/lpc23xx-i2c/lpc23xx-i2c.c:400
        }
        i2c0_s_g.xact_active = 0;
     6c4:	e3a05000 	mov	r5, #0
/home/kwilson/Projects/psaseclipse/olimex2378/liblpc23xx/lpc23xx-i2c/lpc23xx-i2c.c:398
    // p 91 LPC23xx_UM
    VICAddress = 0x0;      // clear VIC address

    if(xact_exit == 1) {  // STOP Bit has been set
        if(i2c0_s_g.state != I2C_ERROR) {
            i2c0_s_g.xact_success = 1;
     6c8:	13a02001 	movne	r2, #1
     6cc:	15c32090 	strbne	r2, [r3, #144]	; 0x90
/home/kwilson/Projects/psaseclipse/olimex2378/liblpc23xx/lpc23xx-i2c/lpc23xx-i2c.c:401
        }
        i2c0_s_g.xact_active = 0;
        _i2c0_FnCallback_g( i2c0_s_caller_g, &i2c0_s_g );
     6d0:	e59f1304 	ldr	r1, [pc, #772]	; 9dc <i2c0_isr+0x50c>
/home/kwilson/Projects/psaseclipse/olimex2378/liblpc23xx/lpc23xx-i2c/lpc23xx-i2c.c:400

    if(xact_exit == 1) {  // STOP Bit has been set
        if(i2c0_s_g.state != I2C_ERROR) {
            i2c0_s_g.xact_success = 1;
        }
        i2c0_s_g.xact_active = 0;
     6d4:	e5c4508f 	strb	r5, [r4, #143]	; 0x8f
/home/kwilson/Projects/psaseclipse/olimex2378/liblpc23xx/lpc23xx-i2c/lpc23xx-i2c.c:401
        _i2c0_FnCallback_g( i2c0_s_caller_g, &i2c0_s_g );
     6d8:	e5940098 	ldr	r0, [r4, #152]	; 0x98
     6dc:	e1a0e00f 	mov	lr, pc
     6e0:	e594f094 	ldr	pc, [r4, #148]	; 0x94
i2c_init_state():
/home/kwilson/Projects/psaseclipse/olimex2378/liblpc23xx/lpc23xx-i2c/lpc23xx-i2c.c:57
 * i2c_init_state
 */
void i2c_init_state( i2c_master_xact_t* s) {
    int i = 0;

    s->state             = I2C_IDLE;
     6e4:	e5845008 	str	r5, [r4, #8]
/home/kwilson/Projects/psaseclipse/olimex2378/liblpc23xx/lpc23xx-i2c/lpc23xx-i2c.c:58
    for(i=0; i<I2C_MAX_BUFFER; i++) {
     6e8:	e1a01005 	mov	r1, r5
/home/kwilson/Projects/psaseclipse/olimex2378/liblpc23xx/lpc23xx-i2c/lpc23xx-i2c.c:59
        s->i2c_tx_buffer[i] = 0;
     6ec:	e1a0c005 	mov	ip, r5
     6f0:	e0840001 	add	r0, r4, r1
/home/kwilson/Projects/psaseclipse/olimex2378/liblpc23xx/lpc23xx-i2c/lpc23xx-i2c.c:58
 */
void i2c_init_state( i2c_master_xact_t* s) {
    int i = 0;

    s->state             = I2C_IDLE;
    for(i=0; i<I2C_MAX_BUFFER; i++) {
     6f4:	e2811001 	add	r1, r1, #1
     6f8:	e3510040 	cmp	r1, #64	; 0x40
/home/kwilson/Projects/psaseclipse/olimex2378/liblpc23xx/lpc23xx-i2c/lpc23xx-i2c.c:59
        s->i2c_tx_buffer[i] = 0;
     6fc:	e5c0c00c 	strb	ip, [r0, #12]
     700:	e59f32d0 	ldr	r3, [pc, #720]	; 9d8 <i2c0_isr+0x508>
     704:	e3a02000 	mov	r2, #0
/home/kwilson/Projects/psaseclipse/olimex2378/liblpc23xx/lpc23xx-i2c/lpc23xx-i2c.c:60
        s->i2c_rd_buffer[i] = 0;
     708:	e5c0c04c 	strb	ip, [r0, #76]	; 0x4c
/home/kwilson/Projects/psaseclipse/olimex2378/liblpc23xx/lpc23xx-i2c/lpc23xx-i2c.c:58
 */
void i2c_init_state( i2c_master_xact_t* s) {
    int i = 0;

    s->state             = I2C_IDLE;
    for(i=0; i<I2C_MAX_BUFFER; i++) {
     70c:	1afffff7 	bne	6f0 <i2c0_isr+0x220>
/home/kwilson/Projects/psaseclipse/olimex2378/liblpc23xx/lpc23xx-i2c/lpc23xx-i2c.c:62
        s->i2c_tx_buffer[i] = 0;
        s->i2c_rd_buffer[i] = 0;
    }
    s->i2c_ext_slave_address = 0x0;
     710:	e5c3208c 	strb	r2, [r3, #140]	; 0x8c
i2c0_isr():
/home/kwilson/Projects/psaseclipse/olimex2378/liblpc23xx/lpc23xx-i2c/lpc23xx-i2c.c:404
        }
        i2c0_s_g.xact_active = 0;
        _i2c0_FnCallback_g( i2c0_s_caller_g, &i2c0_s_g );
        i2c_init_state(&i2c0_s_g) ;

        release_binsem(&i2c0_binsem_g);
     714:	e283009c 	add	r0, r3, #156	; 0x9c
i2c_init_state():
/home/kwilson/Projects/psaseclipse/olimex2378/liblpc23xx/lpc23xx-i2c/lpc23xx-i2c.c:63
    for(i=0; i<I2C_MAX_BUFFER; i++) {
        s->i2c_tx_buffer[i] = 0;
        s->i2c_rd_buffer[i] = 0;
    }
    s->i2c_ext_slave_address = 0x0;
    s->write_length          = 0x0;
     718:	e5c3208d 	strb	r2, [r3, #141]	; 0x8d
/home/kwilson/Projects/psaseclipse/olimex2378/liblpc23xx/lpc23xx-i2c/lpc23xx-i2c.c:64
    s->read_length           = 0x0;
     71c:	e5c3208e 	strb	r2, [r3, #142]	; 0x8e
/home/kwilson/Projects/psaseclipse/olimex2378/liblpc23xx/lpc23xx-i2c/lpc23xx-i2c.c:65
    s->xact_active           = 0x0;
     720:	e5c3208f 	strb	r2, [r3, #143]	; 0x8f
/home/kwilson/Projects/psaseclipse/olimex2378/liblpc23xx/lpc23xx-i2c/lpc23xx-i2c.c:66
    s->xact_success          = 0x0;
     724:	e5c32090 	strb	r2, [r3, #144]	; 0x90
i2c0_isr():
/home/kwilson/Projects/psaseclipse/olimex2378/liblpc23xx/lpc23xx-i2c/lpc23xx-i2c.c:404
        }
        i2c0_s_g.xact_active = 0;
        _i2c0_FnCallback_g( i2c0_s_caller_g, &i2c0_s_g );
        i2c_init_state(&i2c0_s_g) ;

        release_binsem(&i2c0_binsem_g);
     728:	eb000460 	bl	18b0 <release_binsem>
/home/kwilson/Projects/psaseclipse/olimex2378/liblpc23xx/lpc23xx-i2c/lpc23xx-i2c.c:407
    }

    ISR_EXIT;
     72c:	e8bd0002 	pop	{r1}
     730:	e161f001 	msr	SPSR_c, r1
     734:	e8fd9fff 	ldm	sp!, {r0, r1, r2, r3, r4, r5, r6, r7, r8, r9, sl, fp, ip, pc}^
/home/kwilson/Projects/psaseclipse/olimex2378/liblpc23xx/lpc23xx-i2c/lpc23xx-i2c.c:383
            break;

            // State: ???
            //   Unimplemented state, treat like state 0x0, bus error
        default:
            i2c_wrindex_g     = 0;
     738:	e59f4298 	ldr	r4, [pc, #664]	; 9d8 <i2c0_isr+0x508>
     73c:	e3a02000 	mov	r2, #0
     740:	e5842000 	str	r2, [r4]
/home/kwilson/Projects/psaseclipse/olimex2378/liblpc23xx/lpc23xx-i2c/lpc23xx-i2c.c:386
            i2c_rdindex_g     = 0;
            i2c0_s_g.state    = I2C_ERROR;
            I2C0CONSET        = (I2C_STO | I2C_AA);
     744:	e3a0320e 	mov	r3, #-536870912	; 0xe0000000
/home/kwilson/Projects/psaseclipse/olimex2378/liblpc23xx/lpc23xx-i2c/lpc23xx-i2c.c:384

            // State: ???
            //   Unimplemented state, treat like state 0x0, bus error
        default:
            i2c_wrindex_g     = 0;
            i2c_rdindex_g     = 0;
     748:	e5842004 	str	r2, [r4, #4]
/home/kwilson/Projects/psaseclipse/olimex2378/liblpc23xx/lpc23xx-i2c/lpc23xx-i2c.c:385
            i2c0_s_g.state    = I2C_ERROR;
     74c:	e3a02006 	mov	r2, #6
     750:	e5842008 	str	r2, [r4, #8]
/home/kwilson/Projects/psaseclipse/olimex2378/liblpc23xx/lpc23xx-i2c/lpc23xx-i2c.c:386
            I2C0CONSET        = (I2C_STO | I2C_AA);
     754:	e2833907 	add	r3, r3, #114688	; 0x1c000
     758:	e3a02014 	mov	r2, #20
     75c:	e5c32000 	strb	r2, [r3]
/home/kwilson/Projects/psaseclipse/olimex2378/liblpc23xx/lpc23xx-i2c/lpc23xx-i2c.c:388
            xact_exit       = 1;
            break;
     760:	eaffffcd 	b	69c <i2c0_isr+0x1cc>
/home/kwilson/Projects/psaseclipse/olimex2378/liblpc23xx/lpc23xx-i2c/lpc23xx-i2c.c:236
            // State 0X08 - 
            //   A start condition has been transmitted. 
            //   The Slave Address and Read or Write bit will be transmitted.
            //   An ACK bit will be received.
        case 0x08:
            i2c_wrindex_g     = 0;
     764:	e59f326c 	ldr	r3, [pc, #620]	; 9d8 <i2c0_isr+0x508>
     768:	e3a02000 	mov	r2, #0
     76c:	e5832000 	str	r2, [r3]
/home/kwilson/Projects/psaseclipse/olimex2378/liblpc23xx/lpc23xx-i2c/lpc23xx-i2c.c:239

            // write the Slave Address with R/W bit to I2DAT
            I2C0DAT           = i2c0_s_g.i2c_tx_buffer[i2c_wrindex_g++] ;
     770:	e5931000 	ldr	r1, [r3]
     774:	e0832001 	add	r2, r3, r1
     778:	e5d2000c 	ldrb	r0, [r2, #12]
     77c:	e3a0220e 	mov	r2, #-536870912	; 0xe0000000
     780:	e2822907 	add	r2, r2, #114688	; 0x1c000
     784:	e20000ff 	and	r0, r0, #255	; 0xff
     788:	e5c20008 	strb	r0, [r2, #8]
     78c:	e2811001 	add	r1, r1, #1
/home/kwilson/Projects/psaseclipse/olimex2378/liblpc23xx/lpc23xx-i2c/lpc23xx-i2c.c:240
            i2c0_s_g.state    = I2C_START;
     790:	e3a02001 	mov	r2, #1
/home/kwilson/Projects/psaseclipse/olimex2378/liblpc23xx/lpc23xx-i2c/lpc23xx-i2c.c:239
            //   An ACK bit will be received.
        case 0x08:
            i2c_wrindex_g     = 0;

            // write the Slave Address with R/W bit to I2DAT
            I2C0DAT           = i2c0_s_g.i2c_tx_buffer[i2c_wrindex_g++] ;
     794:	e5831000 	str	r1, [r3]
/home/kwilson/Projects/psaseclipse/olimex2378/liblpc23xx/lpc23xx-i2c/lpc23xx-i2c.c:240
            i2c0_s_g.state    = I2C_START;
     798:	e5832008 	str	r2, [r3, #8]
/home/kwilson/Projects/psaseclipse/olimex2378/liblpc23xx/lpc23xx-i2c/lpc23xx-i2c.c:391
            I2C0CONSET        = (I2C_STO | I2C_AA);
            xact_exit       = 1;
            break;
    }

    I2C0CONCLR = I2C_SIC;
     79c:	e3a0320e 	mov	r3, #-536870912	; 0xe0000000
     7a0:	e2833907 	add	r3, r3, #114688	; 0x1c000
     7a4:	e3a02008 	mov	r2, #8
     7a8:	e5c32018 	strb	r2, [r3, #24]
/home/kwilson/Projects/psaseclipse/olimex2378/liblpc23xx/lpc23xx-i2c/lpc23xx-i2c.c:394

    // p 91 LPC23xx_UM
    VICAddress = 0x0;      // clear VIC address
     7ac:	e3a02000 	mov	r2, #0
     7b0:	e3e03000 	mvn	r3, #0
     7b4:	e50320ff 	str	r2, [r3, #-255]	; 0xff
     7b8:	eaffffdb 	b	72c <i2c0_isr+0x25c>
/home/kwilson/Projects/psaseclipse/olimex2378/liblpc23xx/lpc23xx-i2c/lpc23xx-i2c.c:249
            // State 0x10 - 
            //   A repeated start condition has been transmitted.
            //   The Slave Address and Read or Write bit will be transmitted.  
            //   An ACK bit will be received
        case 0x10:
            i2c_rdindex_g     = 0;
     7bc:	e59f3214 	ldr	r3, [pc, #532]	; 9d8 <i2c0_isr+0x508>
     7c0:	e3a02000 	mov	r2, #0
     7c4:	e5832004 	str	r2, [r3, #4]
/home/kwilson/Projects/psaseclipse/olimex2378/liblpc23xx/lpc23xx-i2c/lpc23xx-i2c.c:252

            // Device address + R/W is first after write data in stream
            I2C0DAT           = i2c0_s_g.i2c_tx_buffer[i2c_wrindex_g++] ;
     7c8:	e5931000 	ldr	r1, [r3]
     7cc:	e0832001 	add	r2, r3, r1
     7d0:	e5d2000c 	ldrb	r0, [r2, #12]
     7d4:	e3a0220e 	mov	r2, #-536870912	; 0xe0000000
     7d8:	e2822907 	add	r2, r2, #114688	; 0x1c000
     7dc:	e2811001 	add	r1, r1, #1
     7e0:	e20000ff 	and	r0, r0, #255	; 0xff
     7e4:	e5c20008 	strb	r0, [r2, #8]
     7e8:	e5831000 	str	r1, [r3]
/home/kwilson/Projects/psaseclipse/olimex2378/liblpc23xx/lpc23xx-i2c/lpc23xx-i2c.c:253
            i2c0_s_g.state    = I2C_RESTART;
     7ec:	e3a01002 	mov	r1, #2
     7f0:	e5831008 	str	r1, [r3, #8]
/home/kwilson/Projects/psaseclipse/olimex2378/liblpc23xx/lpc23xx-i2c/lpc23xx-i2c.c:254
            I2C0CONCLR        = I2C_STAC;
     7f4:	e3a03020 	mov	r3, #32
     7f8:	e5c23018 	strb	r3, [r2, #24]
/home/kwilson/Projects/psaseclipse/olimex2378/liblpc23xx/lpc23xx-i2c/lpc23xx-i2c.c:255
            break;
     7fc:	eaffffe6 	b	79c <i2c0_isr+0x2cc>
/home/kwilson/Projects/psaseclipse/olimex2378/liblpc23xx/lpc23xx-i2c/lpc23xx-i2c.c:264
            //   Slave Address and Read or Write has been transmitted.
            //   An ACK has been received. 
            //   The first data byte will be transmitted. 
            //   An ACK bit will be received.
        case 0x18:
            if(i2c0_s_g.state == I2C_START) {
     800:	e59f31d0 	ldr	r3, [pc, #464]	; 9d8 <i2c0_isr+0x508>
     804:	e5932008 	ldr	r2, [r3, #8]
     808:	e3520001 	cmp	r2, #1
     80c:	1affffe2 	bne	79c <i2c0_isr+0x2cc>
/home/kwilson/Projects/psaseclipse/olimex2378/liblpc23xx/lpc23xx-i2c/lpc23xx-i2c.c:265
                I2C0DAT           = i2c0_s_g.i2c_tx_buffer[i2c_wrindex_g++] ;
     810:	e5930000 	ldr	r0, [r3]
     814:	e0832000 	add	r2, r3, r0
     818:	e5d2c00c 	ldrb	ip, [r2, #12]
     81c:	e3a0220e 	mov	r2, #-536870912	; 0xe0000000
     820:	e2822907 	add	r2, r2, #114688	; 0x1c000
     824:	e2800001 	add	r0, r0, #1
     828:	e20cc0ff 	and	ip, ip, #255	; 0xff
     82c:	e5c2c008 	strb	ip, [r2, #8]
/home/kwilson/Projects/psaseclipse/olimex2378/liblpc23xx/lpc23xx-i2c/lpc23xx-i2c.c:266
                I2C0CONSET        = I2C_AA;
     830:	e3a01004 	mov	r1, #4
/home/kwilson/Projects/psaseclipse/olimex2378/liblpc23xx/lpc23xx-i2c/lpc23xx-i2c.c:265
            //   An ACK has been received. 
            //   The first data byte will be transmitted. 
            //   An ACK bit will be received.
        case 0x18:
            if(i2c0_s_g.state == I2C_START) {
                I2C0DAT           = i2c0_s_g.i2c_tx_buffer[i2c_wrindex_g++] ;
     834:	e5830000 	str	r0, [r3]
/home/kwilson/Projects/psaseclipse/olimex2378/liblpc23xx/lpc23xx-i2c/lpc23xx-i2c.c:267
                I2C0CONSET        = I2C_AA;
                I2C0CONCLR        = I2C_STAC; // undocumented clear start flag
     838:	e3a00020 	mov	r0, #32
/home/kwilson/Projects/psaseclipse/olimex2378/liblpc23xx/lpc23xx-i2c/lpc23xx-i2c.c:266
            //   The first data byte will be transmitted. 
            //   An ACK bit will be received.
        case 0x18:
            if(i2c0_s_g.state == I2C_START) {
                I2C0DAT           = i2c0_s_g.i2c_tx_buffer[i2c_wrindex_g++] ;
                I2C0CONSET        = I2C_AA;
     83c:	e5c21000 	strb	r1, [r2]
/home/kwilson/Projects/psaseclipse/olimex2378/liblpc23xx/lpc23xx-i2c/lpc23xx-i2c.c:267
                I2C0CONCLR        = I2C_STAC; // undocumented clear start flag
     840:	e5c20018 	strb	r0, [r2, #24]
/home/kwilson/Projects/psaseclipse/olimex2378/liblpc23xx/lpc23xx-i2c/lpc23xx-i2c.c:268
                i2c0_s_g.state    = I2C_ACK;
     844:	e5831008 	str	r1, [r3, #8]
     848:	eaffffd3 	b	79c <i2c0_isr+0x2cc>
/home/kwilson/Projects/psaseclipse/olimex2378/liblpc23xx/lpc23xx-i2c/lpc23xx-i2c.c:359
            //   Data will be read from I2DAT. 
            //   Additional data will be received. 
            //   If this is the last data byte then NOT ACK will be returned, 
            //     otherwise ACK will be returned. 
        case 0x50:
            i2c0_s_g.i2c_rd_buffer[i2c_rdindex_g++] = I2C0DAT;  
     84c:	e59f3184 	ldr	r3, [pc, #388]	; 9d8 <i2c0_isr+0x508>
     850:	e3a0220e 	mov	r2, #-536870912	; 0xe0000000
     854:	e2822907 	add	r2, r2, #114688	; 0x1c000
     858:	e5931004 	ldr	r1, [r3, #4]
     85c:	e5d2c008 	ldrb	ip, [r2, #8]
     860:	e0830001 	add	r0, r3, r1
     864:	e20cc0ff 	and	ip, ip, #255	; 0xff
     868:	e2811001 	add	r1, r1, #1
     86c:	e5c0c04c 	strb	ip, [r0, #76]	; 0x4c
     870:	e5831004 	str	r1, [r3, #4]
/home/kwilson/Projects/psaseclipse/olimex2378/liblpc23xx/lpc23xx-i2c/lpc23xx-i2c.c:360
            if(i2c_rdindex_g < i2c0_s_g.read_length) {
     874:	e5d3008e 	ldrb	r0, [r3, #142]	; 0x8e
     878:	e5931004 	ldr	r1, [r3, #4]
     87c:	e1500001 	cmp	r0, r1
/home/kwilson/Projects/psaseclipse/olimex2378/liblpc23xx/lpc23xx-i2c/lpc23xx-i2c.c:364
                I2C0CONSET     = I2C_AA;
                i2c0_s_g.state = I2C_ACK;
            } else { // it's the last byte...
                I2C0CONCLR     = I2C_AAC;
     880:	93a01004 	movls	r1, #4
/home/kwilson/Projects/psaseclipse/olimex2378/liblpc23xx/lpc23xx-i2c/lpc23xx-i2c.c:361
            //   If this is the last data byte then NOT ACK will be returned, 
            //     otherwise ACK will be returned. 
        case 0x50:
            i2c0_s_g.i2c_rd_buffer[i2c_rdindex_g++] = I2C0DAT;  
            if(i2c_rdindex_g < i2c0_s_g.read_length) {
                I2C0CONSET     = I2C_AA;
     884:	83a01004 	movhi	r1, #4
/home/kwilson/Projects/psaseclipse/olimex2378/liblpc23xx/lpc23xx-i2c/lpc23xx-i2c.c:364
                i2c0_s_g.state = I2C_ACK;
            } else { // it's the last byte...
                I2C0CONCLR     = I2C_AAC;
     888:	95c21018 	strbls	r1, [r2, #24]
/home/kwilson/Projects/psaseclipse/olimex2378/liblpc23xx/lpc23xx-i2c/lpc23xx-i2c.c:365
                i2c0_s_g.state = I2C_NOTACK;
     88c:	93a02005 	movls	r2, #5
/home/kwilson/Projects/psaseclipse/olimex2378/liblpc23xx/lpc23xx-i2c/lpc23xx-i2c.c:361
            //   If this is the last data byte then NOT ACK will be returned, 
            //     otherwise ACK will be returned. 
        case 0x50:
            i2c0_s_g.i2c_rd_buffer[i2c_rdindex_g++] = I2C0DAT;  
            if(i2c_rdindex_g < i2c0_s_g.read_length) {
                I2C0CONSET     = I2C_AA;
     890:	85c21000 	strbhi	r1, [r2]
/home/kwilson/Projects/psaseclipse/olimex2378/liblpc23xx/lpc23xx-i2c/lpc23xx-i2c.c:365
                i2c0_s_g.state = I2C_ACK;
            } else { // it's the last byte...
                I2C0CONCLR     = I2C_AAC;
                i2c0_s_g.state = I2C_NOTACK;
     894:	95832008 	strls	r2, [r3, #8]
/home/kwilson/Projects/psaseclipse/olimex2378/liblpc23xx/lpc23xx-i2c/lpc23xx-i2c.c:362
            //     otherwise ACK will be returned. 
        case 0x50:
            i2c0_s_g.i2c_rd_buffer[i2c_rdindex_g++] = I2C0DAT;  
            if(i2c_rdindex_g < i2c0_s_g.read_length) {
                I2C0CONSET     = I2C_AA;
                i2c0_s_g.state = I2C_ACK;
     898:	85831008 	strhi	r1, [r3, #8]
     89c:	eaffffbe 	b	79c <i2c0_isr+0x2cc>
/home/kwilson/Projects/psaseclipse/olimex2378/liblpc23xx/lpc23xx-i2c/lpc23xx-i2c.c:321
            //   The bus has been released and not addressed Slave mode is entered. 
            //   A new Start condition will be transmitted when the bus is free again.
            //   *** We will issue a STOP here, since we should never be in Multiple master 
            //   mode for our application ***
        case 0x38:
            I2C0CONSET        = (I2C_STO | I2C_AA);
     8a0:	e3a0320e 	mov	r3, #-536870912	; 0xe0000000
     8a4:	e2833907 	add	r3, r3, #114688	; 0x1c000
/home/kwilson/Projects/psaseclipse/olimex2378/liblpc23xx/lpc23xx-i2c/lpc23xx-i2c.c:323
            xact_exit       = 1;
            i2c0_s_g.state    = I2C_ERROR;
     8a8:	e59f4128 	ldr	r4, [pc, #296]	; 9d8 <i2c0_isr+0x508>
/home/kwilson/Projects/psaseclipse/olimex2378/liblpc23xx/lpc23xx-i2c/lpc23xx-i2c.c:321
            //   The bus has been released and not addressed Slave mode is entered. 
            //   A new Start condition will be transmitted when the bus is free again.
            //   *** We will issue a STOP here, since we should never be in Multiple master 
            //   mode for our application ***
        case 0x38:
            I2C0CONSET        = (I2C_STO | I2C_AA);
     8ac:	e3a02014 	mov	r2, #20
     8b0:	e5c32000 	strb	r2, [r3]
/home/kwilson/Projects/psaseclipse/olimex2378/liblpc23xx/lpc23xx-i2c/lpc23xx-i2c.c:323
            xact_exit       = 1;
            i2c0_s_g.state    = I2C_ERROR;
     8b4:	e3a03006 	mov	r3, #6
     8b8:	e5843008 	str	r3, [r4, #8]
/home/kwilson/Projects/psaseclipse/olimex2378/liblpc23xx/lpc23xx-i2c/lpc23xx-i2c.c:324
            break;
     8bc:	eaffff76 	b	69c <i2c0_isr+0x1cc>
/home/kwilson/Projects/psaseclipse/olimex2378/liblpc23xx/lpc23xx-i2c/lpc23xx-i2c.c:332

            // State 0x40 
            //   Previous state was State 0x08 or State 0x10. 
            //   Slave Address + Read has been transmitted, ACK has been received.
        case 0x40:
            if (i2c0_s_g.read_length == 1) {
     8c0:	e59f3110 	ldr	r3, [pc, #272]	; 9d8 <i2c0_isr+0x508>
     8c4:	e5d3308e 	ldrb	r3, [r3, #142]	; 0x8e
     8c8:	e3530001 	cmp	r3, #1
     8cc:	0a000031 	beq	998 <i2c0_isr+0x4c8>
/home/kwilson/Projects/psaseclipse/olimex2378/liblpc23xx/lpc23xx-i2c/lpc23xx-i2c.c:338
                // go to state 0x58
                I2C0CONCLR        = I2C_AAC;
                I2C0CONCLR        = I2C_STAC; // undocumented clear start flag
            } else {
                // go to state 0x50
                I2C0CONSET        = I2C_AA;
     8d0:	e3a0320e 	mov	r3, #-536870912	; 0xe0000000
     8d4:	e2833907 	add	r3, r3, #114688	; 0x1c000
     8d8:	e3a02004 	mov	r2, #4
     8dc:	e5c32000 	strb	r2, [r3]
/home/kwilson/Projects/psaseclipse/olimex2378/liblpc23xx/lpc23xx-i2c/lpc23xx-i2c.c:339
                I2C0CONCLR        = I2C_STAC; // undocumented clear start flag
     8e0:	e3a02020 	mov	r2, #32
     8e4:	e5c32018 	strb	r2, [r3, #24]
     8e8:	eaffffab 	b	79c <i2c0_isr+0x2cc>
/home/kwilson/Projects/psaseclipse/olimex2378/liblpc23xx/lpc23xx-i2c/lpc23xx-i2c.c:374
            // State: 0x58 - 
            //   Data has been received, NOT ACK has been returned. 
            //   Data will be read from I2DAT. 
            //   A Stop condition will be transmitted.
        case 0x58:
            i2c0_s_g.i2c_rd_buffer[i2c_rdindex_g++] = I2C0DAT;  
     8ec:	e59f40e4 	ldr	r4, [pc, #228]	; 9d8 <i2c0_isr+0x508>
     8f0:	e3a0320e 	mov	r3, #-536870912	; 0xe0000000
     8f4:	e2833907 	add	r3, r3, #114688	; 0x1c000
     8f8:	e5942004 	ldr	r2, [r4, #4]
     8fc:	e5d30008 	ldrb	r0, [r3, #8]
     900:	e0841002 	add	r1, r4, r2
     904:	e20000ff 	and	r0, r0, #255	; 0xff
     908:	e2822001 	add	r2, r2, #1
     90c:	e5c1004c 	strb	r0, [r1, #76]	; 0x4c
     910:	e5842004 	str	r2, [r4, #4]
/home/kwilson/Projects/psaseclipse/olimex2378/liblpc23xx/lpc23xx-i2c/lpc23xx-i2c.c:375
            I2C0CONSET         = (I2C_STO | I2C_AA);
     914:	e3a02014 	mov	r2, #20
     918:	e5c32000 	strb	r2, [r3]
/home/kwilson/Projects/psaseclipse/olimex2378/liblpc23xx/lpc23xx-i2c/lpc23xx-i2c.c:376
            i2c0_s_g.state     = I2C_NOTACK;
     91c:	e3a03005 	mov	r3, #5
     920:	e5843008 	str	r3, [r4, #8]
/home/kwilson/Projects/psaseclipse/olimex2378/liblpc23xx/lpc23xx-i2c/lpc23xx-i2c.c:378
            xact_exit = 1;
            break;
     924:	eaffff5c 	b	69c <i2c0_isr+0x1cc>
/home/kwilson/Projects/psaseclipse/olimex2378/liblpc23xx/lpc23xx-i2c/lpc23xx-i2c.c:288
            //   Data has been transmitted, ACK has been received. 
            //   If the transmitted data was the last data byte then 
            //   check to see if read length is > 0. (looking for repeated 
            //   start transaction)
        case 0x28:
            if(i2c_wrindex_g < i2c0_s_g.write_length) {
     928:	e59f40a8 	ldr	r4, [pc, #168]	; 9d8 <i2c0_isr+0x508>
     92c:	e5d4208d 	ldrb	r2, [r4, #141]	; 0x8d
     930:	e5943000 	ldr	r3, [r4]
     934:	e1520003 	cmp	r2, r3
     938:	8a000009 	bhi	964 <i2c0_isr+0x494>
/home/kwilson/Projects/psaseclipse/olimex2378/liblpc23xx/lpc23xx-i2c/lpc23xx-i2c.c:293
                I2C0DAT           = i2c0_s_g.i2c_tx_buffer[i2c_wrindex_g++] ;
                I2C0CONSET        = I2C_AA;
                i2c0_s_g.state    = I2C_ACK;
            } else {
                if (i2c0_s_g.read_length != 0) {
     93c:	e5d4308e 	ldrb	r3, [r4, #142]	; 0x8e
     940:	e3530000 	cmp	r3, #0
     944:	0a00001a 	beq	9b4 <i2c0_isr+0x4e4>
/home/kwilson/Projects/psaseclipse/olimex2378/liblpc23xx/lpc23xx-i2c/lpc23xx-i2c.c:294
                    I2C0CONSET        = I2C_STA;  // repeated start
     948:	e3a0320e 	mov	r3, #-536870912	; 0xe0000000
     94c:	e2833907 	add	r3, r3, #114688	; 0x1c000
     950:	e3a02020 	mov	r2, #32
     954:	e5c32000 	strb	r2, [r3]
/home/kwilson/Projects/psaseclipse/olimex2378/liblpc23xx/lpc23xx-i2c/lpc23xx-i2c.c:295
                    i2c0_s_g.state    = I2C_REPEATED_START;
     958:	e3a03003 	mov	r3, #3
     95c:	e5843008 	str	r3, [r4, #8]
     960:	eaffff8d 	b	79c <i2c0_isr+0x2cc>
/home/kwilson/Projects/psaseclipse/olimex2378/liblpc23xx/lpc23xx-i2c/lpc23xx-i2c.c:289
            //   If the transmitted data was the last data byte then 
            //   check to see if read length is > 0. (looking for repeated 
            //   start transaction)
        case 0x28:
            if(i2c_wrindex_g < i2c0_s_g.write_length) {
                I2C0DAT           = i2c0_s_g.i2c_tx_buffer[i2c_wrindex_g++] ;
     964:	e5941000 	ldr	r1, [r4]
     968:	e0843001 	add	r3, r4, r1
     96c:	e5d3000c 	ldrb	r0, [r3, #12]
     970:	e3a0320e 	mov	r3, #-536870912	; 0xe0000000
     974:	e2833907 	add	r3, r3, #114688	; 0x1c000
/home/kwilson/Projects/psaseclipse/olimex2378/liblpc23xx/lpc23xx-i2c/lpc23xx-i2c.c:290
                I2C0CONSET        = I2C_AA;
     978:	e3a02004 	mov	r2, #4
/home/kwilson/Projects/psaseclipse/olimex2378/liblpc23xx/lpc23xx-i2c/lpc23xx-i2c.c:289
            //   If the transmitted data was the last data byte then 
            //   check to see if read length is > 0. (looking for repeated 
            //   start transaction)
        case 0x28:
            if(i2c_wrindex_g < i2c0_s_g.write_length) {
                I2C0DAT           = i2c0_s_g.i2c_tx_buffer[i2c_wrindex_g++] ;
     97c:	e20000ff 	and	r0, r0, #255	; 0xff
     980:	e2811001 	add	r1, r1, #1
     984:	e5c30008 	strb	r0, [r3, #8]
     988:	e5841000 	str	r1, [r4]
/home/kwilson/Projects/psaseclipse/olimex2378/liblpc23xx/lpc23xx-i2c/lpc23xx-i2c.c:290
                I2C0CONSET        = I2C_AA;
     98c:	e5c32000 	strb	r2, [r3]
/home/kwilson/Projects/psaseclipse/olimex2378/liblpc23xx/lpc23xx-i2c/lpc23xx-i2c.c:291
                i2c0_s_g.state    = I2C_ACK;
     990:	e5842008 	str	r2, [r4, #8]
     994:	eaffff80 	b	79c <i2c0_isr+0x2cc>
/home/kwilson/Projects/psaseclipse/olimex2378/liblpc23xx/lpc23xx-i2c/lpc23xx-i2c.c:334
            //   Previous state was State 0x08 or State 0x10. 
            //   Slave Address + Read has been transmitted, ACK has been received.
        case 0x40:
            if (i2c0_s_g.read_length == 1) {
                // go to state 0x58
                I2C0CONCLR        = I2C_AAC;
     998:	e3a0320e 	mov	r3, #-536870912	; 0xe0000000
     99c:	e2833907 	add	r3, r3, #114688	; 0x1c000
     9a0:	e3a02004 	mov	r2, #4
     9a4:	e5c32018 	strb	r2, [r3, #24]
/home/kwilson/Projects/psaseclipse/olimex2378/liblpc23xx/lpc23xx-i2c/lpc23xx-i2c.c:335
                I2C0CONCLR        = I2C_STAC; // undocumented clear start flag
     9a8:	e282201c 	add	r2, r2, #28
     9ac:	e5c32018 	strb	r2, [r3, #24]
     9b0:	eaffff79 	b	79c <i2c0_isr+0x2cc>
/home/kwilson/Projects/psaseclipse/olimex2378/liblpc23xx/lpc23xx-i2c/lpc23xx-i2c.c:297
            } else {
                if (i2c0_s_g.read_length != 0) {
                    I2C0CONSET        = I2C_STA;  // repeated start
                    i2c0_s_g.state    = I2C_REPEATED_START;
                } else {
                    I2C0CONSET        = (I2C_STO | I2C_AA);
     9b4:	e3a0320e 	mov	r3, #-536870912	; 0xe0000000
     9b8:	e2833907 	add	r3, r3, #114688	; 0x1c000
     9bc:	e3a02014 	mov	r2, #20
     9c0:	e5c32000 	strb	r2, [r3]
/home/kwilson/Projects/psaseclipse/olimex2378/liblpc23xx/lpc23xx-i2c/lpc23xx-i2c.c:299
                    xact_exit       = 1;
                    i2c0_s_g.state    = I2C_ACK;
     9c4:	e3a03004 	mov	r3, #4
     9c8:	e5843008 	str	r3, [r4, #8]
     9cc:	eaffff32 	b	69c <i2c0_isr+0x1cc>
     9d0:	00001e14 	.word	0x00001e14
     9d4:	00001e28 	.word	0x00001e28
     9d8:	4000008c 	.word	0x4000008c
     9dc:	40000094 	.word	0x40000094

000009e0 <i2c_create_read_address>:
i2c_create_read_address():
/home/kwilson/Projects/psaseclipse/olimex2378/liblpc23xx/lpc23xx-i2c/lpc23xx-i2c.c:41

/*
 * i2c_create_read_addr
 */
uint8_t i2c_create_read_address(uint8_t addr) {
    return (addr << 1) | 0x1;
     9e0:	e1a00080 	lsl	r0, r0, #1
/home/kwilson/Projects/psaseclipse/olimex2378/liblpc23xx/lpc23xx-i2c/lpc23xx-i2c.c:40
i2c_master_xact_t*    i2c2_s_caller_g;

/*
 * i2c_create_read_addr
 */
uint8_t i2c_create_read_address(uint8_t addr) {
     9e4:	e20000fe 	and	r0, r0, #254	; 0xfe
/home/kwilson/Projects/psaseclipse/olimex2378/liblpc23xx/lpc23xx-i2c/lpc23xx-i2c.c:42
    return (addr << 1) | 0x1;
}
     9e8:	e3800001 	orr	r0, r0, #1
     9ec:	e12fff1e 	bx	lr

000009f0 <i2c_create_write_address>:
i2c_create_write_address():
/home/kwilson/Projects/psaseclipse/olimex2378/liblpc23xx/lpc23xx-i2c/lpc23xx-i2c.c:48

/*
 * i2c_create_write_addr
 */
uint8_t i2c_create_write_address(uint8_t addr) {
    return addr << 1;
     9f0:	e1a00080 	lsl	r0, r0, #1
/home/kwilson/Projects/psaseclipse/olimex2378/liblpc23xx/lpc23xx-i2c/lpc23xx-i2c.c:49
}
     9f4:	e20000fe 	and	r0, r0, #254	; 0xfe
     9f8:	e12fff1e 	bx	lr

000009fc <i2c_init_state>:
i2c_init_state():
/home/kwilson/Projects/psaseclipse/olimex2378/liblpc23xx/lpc23xx-i2c/lpc23xx-i2c.c:57
 * i2c_init_state
 */
void i2c_init_state( i2c_master_xact_t* s) {
    int i = 0;

    s->state             = I2C_IDLE;
     9fc:	e3a03000 	mov	r3, #0
     a00:	e5803000 	str	r3, [r0]
/home/kwilson/Projects/psaseclipse/olimex2378/liblpc23xx/lpc23xx-i2c/lpc23xx-i2c.c:58
    for(i=0; i<I2C_MAX_BUFFER; i++) {
     a04:	e1a02003 	mov	r2, r3
/home/kwilson/Projects/psaseclipse/olimex2378/liblpc23xx/lpc23xx-i2c/lpc23xx-i2c.c:59
        s->i2c_tx_buffer[i] = 0;
     a08:	e1a01003 	mov	r1, r3
     a0c:	e0803002 	add	r3, r0, r2
/home/kwilson/Projects/psaseclipse/olimex2378/liblpc23xx/lpc23xx-i2c/lpc23xx-i2c.c:58
 */
void i2c_init_state( i2c_master_xact_t* s) {
    int i = 0;

    s->state             = I2C_IDLE;
    for(i=0; i<I2C_MAX_BUFFER; i++) {
     a10:	e2822001 	add	r2, r2, #1
     a14:	e3520040 	cmp	r2, #64	; 0x40
/home/kwilson/Projects/psaseclipse/olimex2378/liblpc23xx/lpc23xx-i2c/lpc23xx-i2c.c:59
        s->i2c_tx_buffer[i] = 0;
     a18:	e5c31004 	strb	r1, [r3, #4]
     a1c:	e3a0c000 	mov	ip, #0
/home/kwilson/Projects/psaseclipse/olimex2378/liblpc23xx/lpc23xx-i2c/lpc23xx-i2c.c:60
        s->i2c_rd_buffer[i] = 0;
     a20:	e5c31044 	strb	r1, [r3, #68]	; 0x44
/home/kwilson/Projects/psaseclipse/olimex2378/liblpc23xx/lpc23xx-i2c/lpc23xx-i2c.c:58
 */
void i2c_init_state( i2c_master_xact_t* s) {
    int i = 0;

    s->state             = I2C_IDLE;
    for(i=0; i<I2C_MAX_BUFFER; i++) {
     a24:	1afffff8 	bne	a0c <i2c_init_state+0x10>
/home/kwilson/Projects/psaseclipse/olimex2378/liblpc23xx/lpc23xx-i2c/lpc23xx-i2c.c:62
        s->i2c_tx_buffer[i] = 0;
        s->i2c_rd_buffer[i] = 0;
    }
    s->i2c_ext_slave_address = 0x0;
     a28:	e5c0c084 	strb	ip, [r0, #132]	; 0x84
/home/kwilson/Projects/psaseclipse/olimex2378/liblpc23xx/lpc23xx-i2c/lpc23xx-i2c.c:63
    s->write_length          = 0x0;
     a2c:	e5c0c085 	strb	ip, [r0, #133]	; 0x85
/home/kwilson/Projects/psaseclipse/olimex2378/liblpc23xx/lpc23xx-i2c/lpc23xx-i2c.c:64
    s->read_length           = 0x0;
     a30:	e5c0c086 	strb	ip, [r0, #134]	; 0x86
/home/kwilson/Projects/psaseclipse/olimex2378/liblpc23xx/lpc23xx-i2c/lpc23xx-i2c.c:65
    s->xact_active           = 0x0;
     a34:	e5c0c087 	strb	ip, [r0, #135]	; 0x87
/home/kwilson/Projects/psaseclipse/olimex2378/liblpc23xx/lpc23xx-i2c/lpc23xx-i2c.c:66
    s->xact_success          = 0x0;
     a38:	e5c0c088 	strb	ip, [r0, #136]	; 0x88
/home/kwilson/Projects/psaseclipse/olimex2378/liblpc23xx/lpc23xx-i2c/lpc23xx-i2c.c:67
}
     a3c:	e12fff1e 	bx	lr

00000a40 <i2c_init>:
i2c_init():
/home/kwilson/Projects/psaseclipse/olimex2378/liblpc23xx/lpc23xx-i2c/lpc23xx-i2c.c:78
 * 1. Turn on the power to the channel
 * 2. Configure the clock for the channel
 * 3. Set I/O pins to correct mode
 * 4. Configure interrupt in VIC
 */
void i2c_init(i2c_iface channel) {
     a40:	e92d4070 	push	{r4, r5, r6, lr}
     a44:	e1a04000 	mov	r4, r0
/home/kwilson/Projects/psaseclipse/olimex2378/liblpc23xx/lpc23xx-i2c/lpc23xx-i2c.c:80

	uart0_putstring("In i2c_init\n");
     a48:	e59f03ac 	ldr	r0, [pc, #940]	; dfc <i2c_init+0x3bc>
     a4c:	eb0002be 	bl	154c <uart0_putstring>
/home/kwilson/Projects/psaseclipse/olimex2378/liblpc23xx/lpc23xx-i2c/lpc23xx-i2c.c:81
    switch(channel) {
     a50:	e3540001 	cmp	r4, #1
     a54:	0a0000ae 	beq	d14 <i2c_init+0x2d4>
     a58:	2a00006d 	bcs	c14 <i2c_init+0x1d4>
/home/kwilson/Projects/psaseclipse/olimex2378/liblpc23xx/lpc23xx-i2c/lpc23xx-i2c.c:83
        case I2C0: 
            init_binsem( &i2c0_binsem_g );
     a5c:	e59f539c 	ldr	r5, [pc, #924]	; e00 <i2c_init+0x3c0>
     a60:	e285009c 	add	r0, r5, #156	; 0x9c
     a64:	eb00035d 	bl	17e0 <init_binsem>
i2c_init_state():
/home/kwilson/Projects/psaseclipse/olimex2378/liblpc23xx/lpc23xx-i2c/lpc23xx-i2c.c:57
 * i2c_init_state
 */
void i2c_init_state( i2c_master_xact_t* s) {
    int i = 0;

    s->state             = I2C_IDLE;
     a68:	e3a02000 	mov	r2, #0
     a6c:	e5852008 	str	r2, [r5, #8]
/home/kwilson/Projects/psaseclipse/olimex2378/liblpc23xx/lpc23xx-i2c/lpc23xx-i2c.c:58
    for(i=0; i<I2C_MAX_BUFFER; i++) {
     a70:	e1a03002 	mov	r3, r2
/home/kwilson/Projects/psaseclipse/olimex2378/liblpc23xx/lpc23xx-i2c/lpc23xx-i2c.c:59
        s->i2c_tx_buffer[i] = 0;
     a74:	e1a01002 	mov	r1, r2
     a78:	e0852003 	add	r2, r5, r3
/home/kwilson/Projects/psaseclipse/olimex2378/liblpc23xx/lpc23xx-i2c/lpc23xx-i2c.c:58
 */
void i2c_init_state( i2c_master_xact_t* s) {
    int i = 0;

    s->state             = I2C_IDLE;
    for(i=0; i<I2C_MAX_BUFFER; i++) {
     a7c:	e2833001 	add	r3, r3, #1
     a80:	e3530040 	cmp	r3, #64	; 0x40
/home/kwilson/Projects/psaseclipse/olimex2378/liblpc23xx/lpc23xx-i2c/lpc23xx-i2c.c:59
        s->i2c_tx_buffer[i] = 0;
     a84:	e5c2100c 	strb	r1, [r2, #12]
     a88:	e59f0370 	ldr	r0, [pc, #880]	; e00 <i2c_init+0x3c0>
     a8c:	e3a04000 	mov	r4, #0
/home/kwilson/Projects/psaseclipse/olimex2378/liblpc23xx/lpc23xx-i2c/lpc23xx-i2c.c:60
        s->i2c_rd_buffer[i] = 0;
     a90:	e5c2104c 	strb	r1, [r2, #76]	; 0x4c
/home/kwilson/Projects/psaseclipse/olimex2378/liblpc23xx/lpc23xx-i2c/lpc23xx-i2c.c:58
 */
void i2c_init_state( i2c_master_xact_t* s) {
    int i = 0;

    s->state             = I2C_IDLE;
    for(i=0; i<I2C_MAX_BUFFER; i++) {
     a94:	1afffff7 	bne	a78 <i2c_init+0x38>
/home/kwilson/Projects/psaseclipse/olimex2378/liblpc23xx/lpc23xx-i2c/lpc23xx-i2c.c:62
        s->i2c_tx_buffer[i] = 0;
        s->i2c_rd_buffer[i] = 0;
    }
    s->i2c_ext_slave_address = 0x0;
     a98:	e5c0408c 	strb	r4, [r0, #140]	; 0x8c
i2c_init():
/home/kwilson/Projects/psaseclipse/olimex2378/liblpc23xx/lpc23xx-i2c/lpc23xx-i2c.c:87
        case I2C0: 
            init_binsem( &i2c0_binsem_g );

            i2c_init_state( &i2c0_s_g );

            POWER_I2C0_ON;
     a9c:	e3a0320e 	mov	r3, #-536870912	; 0xe0000000
i2c_init_state():
/home/kwilson/Projects/psaseclipse/olimex2378/liblpc23xx/lpc23xx-i2c/lpc23xx-i2c.c:63
    for(i=0; i<I2C_MAX_BUFFER; i++) {
        s->i2c_tx_buffer[i] = 0;
        s->i2c_rd_buffer[i] = 0;
    }
    s->i2c_ext_slave_address = 0x0;
    s->write_length          = 0x0;
     aa0:	e5c0408d 	strb	r4, [r0, #141]	; 0x8d
/home/kwilson/Projects/psaseclipse/olimex2378/liblpc23xx/lpc23xx-i2c/lpc23xx-i2c.c:64
    s->read_length           = 0x0;
     aa4:	e5c0408e 	strb	r4, [r0, #142]	; 0x8e
/home/kwilson/Projects/psaseclipse/olimex2378/liblpc23xx/lpc23xx-i2c/lpc23xx-i2c.c:65
    s->xact_active           = 0x0;
     aa8:	e5c0408f 	strb	r4, [r0, #143]	; 0x8f
/home/kwilson/Projects/psaseclipse/olimex2378/liblpc23xx/lpc23xx-i2c/lpc23xx-i2c.c:66
    s->xact_success          = 0x0;
     aac:	e5c04090 	strb	r4, [r0, #144]	; 0x90
i2c_init():
/home/kwilson/Projects/psaseclipse/olimex2378/liblpc23xx/lpc23xx-i2c/lpc23xx-i2c.c:87
        case I2C0: 
            init_binsem( &i2c0_binsem_g );

            i2c_init_state( &i2c0_s_g );

            POWER_I2C0_ON;
     ab0:	e283397f 	add	r3, r3, #2080768	; 0x1fc000
     ab4:	e59320c4 	ldr	r2, [r3, #196]	; 0xc4
/home/kwilson/Projects/psaseclipse/olimex2378/liblpc23xx/lpc23xx-i2c/lpc23xx-i2c.c:89

            I2C0CONCLR = 0x7C;
     ab8:	e3a0520e 	mov	r5, #-536870912	; 0xe0000000
/home/kwilson/Projects/psaseclipse/olimex2378/liblpc23xx/lpc23xx-i2c/lpc23xx-i2c.c:87
        case I2C0: 
            init_binsem( &i2c0_binsem_g );

            i2c_init_state( &i2c0_s_g );

            POWER_I2C0_ON;
     abc:	e3822080 	orr	r2, r2, #128	; 0x80
     ac0:	e58320c4 	str	r2, [r3, #196]	; 0xc4
/home/kwilson/Projects/psaseclipse/olimex2378/liblpc23xx/lpc23xx-i2c/lpc23xx-i2c.c:89

            I2C0CONCLR = 0x7C;
     ac4:	e2855907 	add	r5, r5, #114688	; 0x1c000
     ac8:	e3a0207c 	mov	r2, #124	; 0x7c
     acc:	e5c52018 	strb	r2, [r5, #24]
/home/kwilson/Projects/psaseclipse/olimex2378/liblpc23xx/lpc23xx-i2c/lpc23xx-i2c.c:90
            I2C0CONSET = (I2C_I2EN | I2C_AA); // master mode
     ad0:	e3a02044 	mov	r2, #68	; 0x44
     ad4:	e5c52000 	strb	r2, [r5]
/home/kwilson/Projects/psaseclipse/olimex2378/liblpc23xx/lpc23xx-i2c/lpc23xx-i2c.c:93

            // I2C clock
            I2C0_IS_CCLK_DIV1;
     ad8:	e59321a8 	ldr	r2, [r3, #424]	; 0x1a8
     adc:	e3c2290b 	bic	r2, r2, #180224	; 0x2c000
/home/kwilson/Projects/psaseclipse/olimex2378/liblpc23xx/lpc23xx-i2c/lpc23xx-i2c.c:94
            I2C0SCLL   = I2SCLLOW;
     ae0:	e3a00e19 	mov	r0, #400	; 0x190
/home/kwilson/Projects/psaseclipse/olimex2378/liblpc23xx/lpc23xx-i2c/lpc23xx-i2c.c:93

            I2C0CONCLR = 0x7C;
            I2C0CONSET = (I2C_I2EN | I2C_AA); // master mode

            // I2C clock
            I2C0_IS_CCLK_DIV1;
     ae4:	e3822901 	orr	r2, r2, #16384	; 0x4000
     ae8:	e58321a8 	str	r2, [r3, #424]	; 0x1a8
/home/kwilson/Projects/psaseclipse/olimex2378/liblpc23xx/lpc23xx-i2c/lpc23xx-i2c.c:94
            I2C0SCLL   = I2SCLLOW;
     aec:	e1c501b4 	strh	r0, [r5, #20]
/home/kwilson/Projects/psaseclipse/olimex2378/liblpc23xx/lpc23xx-i2c/lpc23xx-i2c.c:97
            I2C0SCLH   = I2SCLHIGH;

            I2C0_ENABLE_SDA0_PIN;
     af0:	e3a0320e 	mov	r3, #-536870912	; 0xe0000000
/home/kwilson/Projects/psaseclipse/olimex2378/liblpc23xx/lpc23xx-i2c/lpc23xx-i2c.c:95
            I2C0CONSET = (I2C_I2EN | I2C_AA); // master mode

            // I2C clock
            I2C0_IS_CCLK_DIV1;
            I2C0SCLL   = I2SCLLOW;
            I2C0SCLH   = I2SCLHIGH;
     af4:	e1c501b0 	strh	r0, [r5, #16]
/home/kwilson/Projects/psaseclipse/olimex2378/liblpc23xx/lpc23xx-i2c/lpc23xx-i2c.c:97

            I2C0_ENABLE_SDA0_PIN;
     af8:	e283390b 	add	r3, r3, #180224	; 0x2c000
     afc:	e5932004 	ldr	r2, [r3, #4]
     b00:	e3c22503 	bic	r2, r2, #12582912	; 0xc00000
     b04:	e3822501 	orr	r2, r2, #4194304	; 0x400000
     b08:	e5832004 	str	r2, [r3, #4]
/home/kwilson/Projects/psaseclipse/olimex2378/liblpc23xx/lpc23xx-i2c/lpc23xx-i2c.c:98
            I2C0_ENABLE_SCL0_PIN;
     b0c:	e5932004 	ldr	r2, [r3, #4]
     b10:	e3c22403 	bic	r2, r2, #50331648	; 0x3000000
     b14:	e3822401 	orr	r2, r2, #16777216	; 0x1000000
     b18:	e5832004 	str	r2, [r3, #4]
/home/kwilson/Projects/psaseclipse/olimex2378/liblpc23xx/lpc23xx-i2c/lpc23xx-i2c.c:105
            // pinmode:   I2C0 pins permanent open drain (pullup)
            // reference: lpc23xx usermanual p158 table 107 footnote 2

            // vic/
            // set up VIC p93 table 86 lpc23xx user manual
            ENABLE_I2C0_INT;
     b1c:	e3e06000 	mvn	r6, #0
     b20:	e5163fef 	ldr	r3, [r6, #-4079]	; 0xfef
     b24:	e3833c02 	orr	r3, r3, #512	; 0x200
     b28:	e5063fef 	str	r3, [r6, #-4079]	; 0xfef
/home/kwilson/Projects/psaseclipse/olimex2378/liblpc23xx/lpc23xx-i2c/lpc23xx-i2c.c:107

            uart0_putstring ("In i2c0 init\n");
     b2c:	e59f02d0 	ldr	r0, [pc, #720]	; e04 <i2c_init+0x3c4>
     b30:	eb000285 	bl	154c <uart0_putstring>
/home/kwilson/Projects/psaseclipse/olimex2378/liblpc23xx/lpc23xx-i2c/lpc23xx-i2c.c:109

            uart0_putstring("I2C0STAT is:\t0b");
     b34:	e59f02cc 	ldr	r0, [pc, #716]	; e08 <i2c_init+0x3c8>
     b38:	eb000283 	bl	154c <uart0_putstring>
/home/kwilson/Projects/psaseclipse/olimex2378/liblpc23xx/lpc23xx-i2c/lpc23xx-i2c.c:110
            uart0_putstring(util_uitoa(I2C0STAT,2));
     b3c:	e3a01002 	mov	r1, #2
     b40:	e5d50004 	ldrb	r0, [r5, #4]
     b44:	eb0002f9 	bl	1730 <util_uitoa>
     b48:	eb00027f 	bl	154c <uart0_putstring>
/home/kwilson/Projects/psaseclipse/olimex2378/liblpc23xx/lpc23xx-i2c/lpc23xx-i2c.c:111
            uart0_putstring("\n");
     b4c:	e59f02b8 	ldr	r0, [pc, #696]	; e0c <i2c_init+0x3cc>
     b50:	eb00027d 	bl	154c <uart0_putstring>
/home/kwilson/Projects/psaseclipse/olimex2378/liblpc23xx/lpc23xx-i2c/lpc23xx-i2c.c:112
            uart0_putstring("VICRawIntr is:\t0b");
     b54:	e59f02b4 	ldr	r0, [pc, #692]	; e10 <i2c_init+0x3d0>
     b58:	eb00027b 	bl	154c <uart0_putstring>
/home/kwilson/Projects/psaseclipse/olimex2378/liblpc23xx/lpc23xx-i2c/lpc23xx-i2c.c:113
            uart0_putstring(util_uitoa(VICRawIntr,2));
     b5c:	e3a01002 	mov	r1, #2
     b60:	e5160ff7 	ldr	r0, [r6, #-4087]	; 0xff7
     b64:	eb0002f1 	bl	1730 <util_uitoa>
     b68:	eb000277 	bl	154c <uart0_putstring>
/home/kwilson/Projects/psaseclipse/olimex2378/liblpc23xx/lpc23xx-i2c/lpc23xx-i2c.c:114
            uart0_putstring("\n");
     b6c:	e59f0298 	ldr	r0, [pc, #664]	; e0c <i2c_init+0x3cc>
     b70:	eb000275 	bl	154c <uart0_putstring>
/home/kwilson/Projects/psaseclipse/olimex2378/liblpc23xx/lpc23xx-i2c/lpc23xx-i2c.c:115
            uart0_putstring("VICIntEnable is: 0b");
     b74:	e59f0298 	ldr	r0, [pc, #664]	; e14 <i2c_init+0x3d4>
     b78:	eb000273 	bl	154c <uart0_putstring>
/home/kwilson/Projects/psaseclipse/olimex2378/liblpc23xx/lpc23xx-i2c/lpc23xx-i2c.c:116
            uart0_putstring(util_uitoa(VICIntEnable,2));
     b7c:	e3a01002 	mov	r1, #2
     b80:	e5160fef 	ldr	r0, [r6, #-4079]	; 0xfef
     b84:	eb0002e9 	bl	1730 <util_uitoa>
     b88:	eb00026f 	bl	154c <uart0_putstring>
/home/kwilson/Projects/psaseclipse/olimex2378/liblpc23xx/lpc23xx-i2c/lpc23xx-i2c.c:117
            uart0_putstring("\n");
     b8c:	e59f0278 	ldr	r0, [pc, #632]	; e0c <i2c_init+0x3cc>
     b90:	eb00026d 	bl	154c <uart0_putstring>
/home/kwilson/Projects/psaseclipse/olimex2378/liblpc23xx/lpc23xx-i2c/lpc23xx-i2c.c:119

            VICVectAddr9 = (unsigned int) i2c0_isr;
     b94:	e59f327c 	ldr	r3, [pc, #636]	; e18 <i2c_init+0x3d8>
     b98:	e5063edb 	str	r3, [r6, #-3803]	; 0xedb
/home/kwilson/Projects/psaseclipse/olimex2378/liblpc23xx/lpc23xx-i2c/lpc23xx-i2c.c:122
            VICAddress = 0x0;      // clear VIC address

            I2C0CONCLR   = I2C_SIC;
     b9c:	e3a03008 	mov	r3, #8
/home/kwilson/Projects/psaseclipse/olimex2378/liblpc23xx/lpc23xx-i2c/lpc23xx-i2c.c:120
            uart0_putstring("VICIntEnable is: 0b");
            uart0_putstring(util_uitoa(VICIntEnable,2));
            uart0_putstring("\n");

            VICVectAddr9 = (unsigned int) i2c0_isr;
            VICAddress = 0x0;      // clear VIC address
     ba0:	e50640ff 	str	r4, [r6, #-255]	; 0xff
/home/kwilson/Projects/psaseclipse/olimex2378/liblpc23xx/lpc23xx-i2c/lpc23xx-i2c.c:124

            I2C0CONCLR   = I2C_SIC;

            uart0_putstring("\nafter clearing SI:\n");
     ba4:	e59f0270 	ldr	r0, [pc, #624]	; e1c <i2c_init+0x3dc>
/home/kwilson/Projects/psaseclipse/olimex2378/liblpc23xx/lpc23xx-i2c/lpc23xx-i2c.c:122
            uart0_putstring("\n");

            VICVectAddr9 = (unsigned int) i2c0_isr;
            VICAddress = 0x0;      // clear VIC address

            I2C0CONCLR   = I2C_SIC;
     ba8:	e5c53018 	strb	r3, [r5, #24]
/home/kwilson/Projects/psaseclipse/olimex2378/liblpc23xx/lpc23xx-i2c/lpc23xx-i2c.c:124

            uart0_putstring("\nafter clearing SI:\n");
     bac:	eb000266 	bl	154c <uart0_putstring>
/home/kwilson/Projects/psaseclipse/olimex2378/liblpc23xx/lpc23xx-i2c/lpc23xx-i2c.c:126

            uart0_putstring("I2C0STAT is:\t0b");
     bb0:	e59f0250 	ldr	r0, [pc, #592]	; e08 <i2c_init+0x3c8>
     bb4:	eb000264 	bl	154c <uart0_putstring>
/home/kwilson/Projects/psaseclipse/olimex2378/liblpc23xx/lpc23xx-i2c/lpc23xx-i2c.c:127
            uart0_putstring(util_uitoa(I2C0STAT,2));
     bb8:	e3a01002 	mov	r1, #2
     bbc:	e5d50004 	ldrb	r0, [r5, #4]
     bc0:	eb0002da 	bl	1730 <util_uitoa>
     bc4:	eb000260 	bl	154c <uart0_putstring>
/home/kwilson/Projects/psaseclipse/olimex2378/liblpc23xx/lpc23xx-i2c/lpc23xx-i2c.c:128
            uart0_putstring("\n");
     bc8:	e59f023c 	ldr	r0, [pc, #572]	; e0c <i2c_init+0x3cc>
     bcc:	eb00025e 	bl	154c <uart0_putstring>
/home/kwilson/Projects/psaseclipse/olimex2378/liblpc23xx/lpc23xx-i2c/lpc23xx-i2c.c:129
            uart0_putstring("VICRawIntr is:\t0b");
     bd0:	e59f0238 	ldr	r0, [pc, #568]	; e10 <i2c_init+0x3d0>
     bd4:	eb00025c 	bl	154c <uart0_putstring>
/home/kwilson/Projects/psaseclipse/olimex2378/liblpc23xx/lpc23xx-i2c/lpc23xx-i2c.c:130
            uart0_putstring(util_uitoa(VICRawIntr,2));
     bd8:	e3a01002 	mov	r1, #2
     bdc:	e5160ff7 	ldr	r0, [r6, #-4087]	; 0xff7
     be0:	eb0002d2 	bl	1730 <util_uitoa>
     be4:	eb000258 	bl	154c <uart0_putstring>
/home/kwilson/Projects/psaseclipse/olimex2378/liblpc23xx/lpc23xx-i2c/lpc23xx-i2c.c:131
            uart0_putstring("\n");
     be8:	e59f021c 	ldr	r0, [pc, #540]	; e0c <i2c_init+0x3cc>
     bec:	eb000256 	bl	154c <uart0_putstring>
/home/kwilson/Projects/psaseclipse/olimex2378/liblpc23xx/lpc23xx-i2c/lpc23xx-i2c.c:132
            uart0_putstring("VICIntEnable is: 0b");
     bf0:	e59f021c 	ldr	r0, [pc, #540]	; e14 <i2c_init+0x3d4>
     bf4:	eb000254 	bl	154c <uart0_putstring>
/home/kwilson/Projects/psaseclipse/olimex2378/liblpc23xx/lpc23xx-i2c/lpc23xx-i2c.c:133
            uart0_putstring(util_uitoa(VICIntEnable,2));
     bf8:	e3a01002 	mov	r1, #2
     bfc:	e5160fef 	ldr	r0, [r6, #-4079]	; 0xfef
     c00:	eb0002ca 	bl	1730 <util_uitoa>
     c04:	eb000250 	bl	154c <uart0_putstring>
/home/kwilson/Projects/psaseclipse/olimex2378/liblpc23xx/lpc23xx-i2c/lpc23xx-i2c.c:134
            uart0_putstring("\n");
     c08:	e59f01fc 	ldr	r0, [pc, #508]	; e0c <i2c_init+0x3cc>
/home/kwilson/Projects/psaseclipse/olimex2378/liblpc23xx/lpc23xx-i2c/lpc23xx-i2c.c:201

        default:
            //  error         ???
            break;
    }
}
     c0c:	e8bd4070 	pop	{r4, r5, r6, lr}
/home/kwilson/Projects/psaseclipse/olimex2378/liblpc23xx/lpc23xx-i2c/lpc23xx-i2c.c:134
            uart0_putstring("VICRawIntr is:\t0b");
            uart0_putstring(util_uitoa(VICRawIntr,2));
            uart0_putstring("\n");
            uart0_putstring("VICIntEnable is: 0b");
            uart0_putstring(util_uitoa(VICIntEnable,2));
            uart0_putstring("\n");
     c10:	ea00024d 	b	154c <uart0_putstring>
/home/kwilson/Projects/psaseclipse/olimex2378/liblpc23xx/lpc23xx-i2c/lpc23xx-i2c.c:81
 * 4. Configure interrupt in VIC
 */
void i2c_init(i2c_iface channel) {

	uart0_putstring("In i2c_init\n");
    switch(channel) {
     c14:	e3540002 	cmp	r4, #2
     c18:	18bd8070 	popne	{r4, r5, r6, pc}
/home/kwilson/Projects/psaseclipse/olimex2378/liblpc23xx/lpc23xx-i2c/lpc23xx-i2c.c:169

            I2C1CONCLR    = I2C_SIC;
            break;

        case I2C2: 
            init_binsem(&i2c2_binsem_g);
     c1c:	e59f51dc 	ldr	r5, [pc, #476]	; e00 <i2c_init+0x3c0>
     c20:	e2850e13 	add	r0, r5, #304	; 0x130
     c24:	eb0002ed 	bl	17e0 <init_binsem>
i2c_init_state():
/home/kwilson/Projects/psaseclipse/olimex2378/liblpc23xx/lpc23xx-i2c/lpc23xx-i2c.c:57
 * i2c_init_state
 */
void i2c_init_state( i2c_master_xact_t* s) {
    int i = 0;

    s->state             = I2C_IDLE;
     c28:	e3a02000 	mov	r2, #0
     c2c:	e5852134 	str	r2, [r5, #308]	; 0x134
/home/kwilson/Projects/psaseclipse/olimex2378/liblpc23xx/lpc23xx-i2c/lpc23xx-i2c.c:58
    for(i=0; i<I2C_MAX_BUFFER; i++) {
     c30:	e1a03002 	mov	r3, r2
/home/kwilson/Projects/psaseclipse/olimex2378/liblpc23xx/lpc23xx-i2c/lpc23xx-i2c.c:59
        s->i2c_tx_buffer[i] = 0;
     c34:	e1a01002 	mov	r1, r2
     c38:	e0852003 	add	r2, r5, r3
/home/kwilson/Projects/psaseclipse/olimex2378/liblpc23xx/lpc23xx-i2c/lpc23xx-i2c.c:58
 */
void i2c_init_state( i2c_master_xact_t* s) {
    int i = 0;

    s->state             = I2C_IDLE;
    for(i=0; i<I2C_MAX_BUFFER; i++) {
     c3c:	e2833001 	add	r3, r3, #1
     c40:	e3530040 	cmp	r3, #64	; 0x40
/home/kwilson/Projects/psaseclipse/olimex2378/liblpc23xx/lpc23xx-i2c/lpc23xx-i2c.c:59
        s->i2c_tx_buffer[i] = 0;
     c44:	e5c21138 	strb	r1, [r2, #312]	; 0x138
     c48:	e59f01b0 	ldr	r0, [pc, #432]	; e00 <i2c_init+0x3c0>
     c4c:	e3a0c000 	mov	ip, #0
/home/kwilson/Projects/psaseclipse/olimex2378/liblpc23xx/lpc23xx-i2c/lpc23xx-i2c.c:60
        s->i2c_rd_buffer[i] = 0;
     c50:	e5c21178 	strb	r1, [r2, #376]	; 0x178
/home/kwilson/Projects/psaseclipse/olimex2378/liblpc23xx/lpc23xx-i2c/lpc23xx-i2c.c:58
 */
void i2c_init_state( i2c_master_xact_t* s) {
    int i = 0;

    s->state             = I2C_IDLE;
    for(i=0; i<I2C_MAX_BUFFER; i++) {
     c54:	1afffff7 	bne	c38 <i2c_init+0x1f8>
/home/kwilson/Projects/psaseclipse/olimex2378/liblpc23xx/lpc23xx-i2c/lpc23xx-i2c.c:62
        s->i2c_tx_buffer[i] = 0;
        s->i2c_rd_buffer[i] = 0;
    }
    s->i2c_ext_slave_address = 0x0;
     c58:	e5c0c1b8 	strb	ip, [r0, #440]	; 0x1b8
i2c_init():
/home/kwilson/Projects/psaseclipse/olimex2378/liblpc23xx/lpc23xx-i2c/lpc23xx-i2c.c:173
        case I2C2: 
            init_binsem(&i2c2_binsem_g);

            i2c_init_state( &i2c2_s_g );

            POWER_I2C2_ON;
     c5c:	e3a0320e 	mov	r3, #-536870912	; 0xe0000000
i2c_init_state():
/home/kwilson/Projects/psaseclipse/olimex2378/liblpc23xx/lpc23xx-i2c/lpc23xx-i2c.c:63
    for(i=0; i<I2C_MAX_BUFFER; i++) {
        s->i2c_tx_buffer[i] = 0;
        s->i2c_rd_buffer[i] = 0;
    }
    s->i2c_ext_slave_address = 0x0;
    s->write_length          = 0x0;
     c60:	e5c0c1b9 	strb	ip, [r0, #441]	; 0x1b9
/home/kwilson/Projects/psaseclipse/olimex2378/liblpc23xx/lpc23xx-i2c/lpc23xx-i2c.c:64
    s->read_length           = 0x0;
     c64:	e5c0c1ba 	strb	ip, [r0, #442]	; 0x1ba
/home/kwilson/Projects/psaseclipse/olimex2378/liblpc23xx/lpc23xx-i2c/lpc23xx-i2c.c:65
    s->xact_active           = 0x0;
     c68:	e5c0c1bb 	strb	ip, [r0, #443]	; 0x1bb
/home/kwilson/Projects/psaseclipse/olimex2378/liblpc23xx/lpc23xx-i2c/lpc23xx-i2c.c:66
    s->xact_success          = 0x0;
     c6c:	e5c0c1bc 	strb	ip, [r0, #444]	; 0x1bc
i2c_init():
/home/kwilson/Projects/psaseclipse/olimex2378/liblpc23xx/lpc23xx-i2c/lpc23xx-i2c.c:173
        case I2C2: 
            init_binsem(&i2c2_binsem_g);

            i2c_init_state( &i2c2_s_g );

            POWER_I2C2_ON;
     c70:	e283397f 	add	r3, r3, #2080768	; 0x1fc000
     c74:	e59310c4 	ldr	r1, [r3, #196]	; 0xc4
/home/kwilson/Projects/psaseclipse/olimex2378/liblpc23xx/lpc23xx-i2c/lpc23xx-i2c.c:175

            I2C2CONCLR = 0x7C;
     c78:	e3a0220e 	mov	r2, #-536870912	; 0xe0000000
/home/kwilson/Projects/psaseclipse/olimex2378/liblpc23xx/lpc23xx-i2c/lpc23xx-i2c.c:173
        case I2C2: 
            init_binsem(&i2c2_binsem_g);

            i2c_init_state( &i2c2_s_g );

            POWER_I2C2_ON;
     c7c:	e3811301 	orr	r1, r1, #67108864	; 0x4000000
     c80:	e58310c4 	str	r1, [r3, #196]	; 0xc4
/home/kwilson/Projects/psaseclipse/olimex2378/liblpc23xx/lpc23xx-i2c/lpc23xx-i2c.c:175

            I2C2CONCLR = 0x7C;
     c84:	e2822702 	add	r2, r2, #524288	; 0x80000
     c88:	e3a0107c 	mov	r1, #124	; 0x7c
     c8c:	e5c21018 	strb	r1, [r2, #24]
/home/kwilson/Projects/psaseclipse/olimex2378/liblpc23xx/lpc23xx-i2c/lpc23xx-i2c.c:176
            I2C2CONSET = (I2C_I2EN | I2C_AA); // master mode
     c90:	e3a01044 	mov	r1, #68	; 0x44
     c94:	e5c21000 	strb	r1, [r2]
/home/kwilson/Projects/psaseclipse/olimex2378/liblpc23xx/lpc23xx-i2c/lpc23xx-i2c.c:179

            // I2C clock
            I2C2_IS_CCLK_DIV1;
     c98:	e59301ac 	ldr	r0, [r3, #428]	; 0x1ac
     c9c:	e3c0060b 	bic	r0, r0, #11534336	; 0xb00000
     ca0:	e3800601 	orr	r0, r0, #1048576	; 0x100000
/home/kwilson/Projects/psaseclipse/olimex2378/liblpc23xx/lpc23xx-i2c/lpc23xx-i2c.c:180
            I2C1SCLL   = I2SCLLOW;
     ca4:	e3a0120e 	mov	r1, #-536870912	; 0xe0000000
/home/kwilson/Projects/psaseclipse/olimex2378/liblpc23xx/lpc23xx-i2c/lpc23xx-i2c.c:179

            I2C2CONCLR = 0x7C;
            I2C2CONSET = (I2C_I2EN | I2C_AA); // master mode

            // I2C clock
            I2C2_IS_CCLK_DIV1;
     ca8:	e58301ac 	str	r0, [r3, #428]	; 0x1ac
/home/kwilson/Projects/psaseclipse/olimex2378/liblpc23xx/lpc23xx-i2c/lpc23xx-i2c.c:180
            I2C1SCLL   = I2SCLLOW;
     cac:	e2811917 	add	r1, r1, #376832	; 0x5c000
     cb0:	e3a00e19 	mov	r0, #400	; 0x190
     cb4:	e1c101b4 	strh	r0, [r1, #20]
/home/kwilson/Projects/psaseclipse/olimex2378/liblpc23xx/lpc23xx-i2c/lpc23xx-i2c.c:183
            I2C1SCLH   = I2SCLHIGH;

            I2C2_ENABLE_SDA2_PIN;
     cb8:	e3a0320e 	mov	r3, #-536870912	; 0xe0000000
/home/kwilson/Projects/psaseclipse/olimex2378/liblpc23xx/lpc23xx-i2c/lpc23xx-i2c.c:181
            I2C2CONSET = (I2C_I2EN | I2C_AA); // master mode

            // I2C clock
            I2C2_IS_CCLK_DIV1;
            I2C1SCLL   = I2SCLLOW;
            I2C1SCLH   = I2SCLHIGH;
     cbc:	e1c101b0 	strh	r0, [r1, #16]
/home/kwilson/Projects/psaseclipse/olimex2378/liblpc23xx/lpc23xx-i2c/lpc23xx-i2c.c:183

            I2C2_ENABLE_SDA2_PIN;
     cc0:	e283390b 	add	r3, r3, #180224	; 0x2c000
     cc4:	e5931000 	ldr	r1, [r3]
     cc8:	e3c11603 	bic	r1, r1, #3145728	; 0x300000
     ccc:	e3811602 	orr	r1, r1, #2097152	; 0x200000
     cd0:	e5831000 	str	r1, [r3]
/home/kwilson/Projects/psaseclipse/olimex2378/liblpc23xx/lpc23xx-i2c/lpc23xx-i2c.c:184
            I2C2_ENABLE_SCL2_PIN;
     cd4:	e5931000 	ldr	r1, [r3]
     cd8:	e3c11503 	bic	r1, r1, #12582912	; 0xc00000
     cdc:	e3811502 	orr	r1, r1, #8388608	; 0x800000
     ce0:	e5831000 	str	r1, [r3]
/home/kwilson/Projects/psaseclipse/olimex2378/liblpc23xx/lpc23xx-i2c/lpc23xx-i2c.c:187

            // reference: lpc23xx usermanual p158 table 107 footnote 2
            I2C2_SDA2_PULLUP;
     ce4:	e5931040 	ldr	r1, [r3, #64]	; 0x40
     ce8:	e3c11603 	bic	r1, r1, #3145728	; 0x300000
     cec:	e5831040 	str	r1, [r3, #64]	; 0x40
/home/kwilson/Projects/psaseclipse/olimex2378/liblpc23xx/lpc23xx-i2c/lpc23xx-i2c.c:191

            // vic
            // set up VIC p93 table 86 lpc23xx user manual
            ENABLE_I2C2_INT;
     cf0:	e3e03000 	mvn	r3, #0
     cf4:	e5131fef 	ldr	r1, [r3, #-4079]	; 0xfef
     cf8:	e3811c02 	orr	r1, r1, #512	; 0x200
     cfc:	e5031fef 	str	r1, [r3, #-4079]	; 0xfef
/home/kwilson/Projects/psaseclipse/olimex2378/liblpc23xx/lpc23xx-i2c/lpc23xx-i2c.c:192
            VICVectAddr30 = (unsigned int) i2c2_isr;
     d00:	e59f1118 	ldr	r1, [pc, #280]	; e20 <i2c_init+0x3e0>
     d04:	e5031e87 	str	r1, [r3, #-3719]	; 0xe87
/home/kwilson/Projects/psaseclipse/olimex2378/liblpc23xx/lpc23xx-i2c/lpc23xx-i2c.c:194

            I2C2CONCLR    = I2C_SIC;
     d08:	e3a03008 	mov	r3, #8
     d0c:	e5c23018 	strb	r3, [r2, #24]
     d10:	e8bd8070 	pop	{r4, r5, r6, pc}
/home/kwilson/Projects/psaseclipse/olimex2378/liblpc23xx/lpc23xx-i2c/lpc23xx-i2c.c:141

            break;

        case I2C1: 

            init_binsem(&i2c1_binsem_g);
     d14:	e59f50e4 	ldr	r5, [pc, #228]	; e00 <i2c_init+0x3c0>
     d18:	e28500a0 	add	r0, r5, #160	; 0xa0
     d1c:	eb0002af 	bl	17e0 <init_binsem>
i2c_init_state():
/home/kwilson/Projects/psaseclipse/olimex2378/liblpc23xx/lpc23xx-i2c/lpc23xx-i2c.c:57
 * i2c_init_state
 */
void i2c_init_state( i2c_master_xact_t* s) {
    int i = 0;

    s->state             = I2C_IDLE;
     d20:	e3a02000 	mov	r2, #0
     d24:	e58520a4 	str	r2, [r5, #164]	; 0xa4
/home/kwilson/Projects/psaseclipse/olimex2378/liblpc23xx/lpc23xx-i2c/lpc23xx-i2c.c:58
    for(i=0; i<I2C_MAX_BUFFER; i++) {
     d28:	e1a03002 	mov	r3, r2
/home/kwilson/Projects/psaseclipse/olimex2378/liblpc23xx/lpc23xx-i2c/lpc23xx-i2c.c:59
        s->i2c_tx_buffer[i] = 0;
     d2c:	e1a01002 	mov	r1, r2
     d30:	e0852003 	add	r2, r5, r3
/home/kwilson/Projects/psaseclipse/olimex2378/liblpc23xx/lpc23xx-i2c/lpc23xx-i2c.c:58
 */
void i2c_init_state( i2c_master_xact_t* s) {
    int i = 0;

    s->state             = I2C_IDLE;
    for(i=0; i<I2C_MAX_BUFFER; i++) {
     d34:	e2833001 	add	r3, r3, #1
     d38:	e3530040 	cmp	r3, #64	; 0x40
/home/kwilson/Projects/psaseclipse/olimex2378/liblpc23xx/lpc23xx-i2c/lpc23xx-i2c.c:59
        s->i2c_tx_buffer[i] = 0;
     d3c:	e5c210a8 	strb	r1, [r2, #168]	; 0xa8
     d40:	e59f00b8 	ldr	r0, [pc, #184]	; e00 <i2c_init+0x3c0>
     d44:	e3a0c000 	mov	ip, #0
/home/kwilson/Projects/psaseclipse/olimex2378/liblpc23xx/lpc23xx-i2c/lpc23xx-i2c.c:60
        s->i2c_rd_buffer[i] = 0;
     d48:	e5c210e8 	strb	r1, [r2, #232]	; 0xe8
/home/kwilson/Projects/psaseclipse/olimex2378/liblpc23xx/lpc23xx-i2c/lpc23xx-i2c.c:58
 */
void i2c_init_state( i2c_master_xact_t* s) {
    int i = 0;

    s->state             = I2C_IDLE;
    for(i=0; i<I2C_MAX_BUFFER; i++) {
     d4c:	1afffff7 	bne	d30 <i2c_init+0x2f0>
/home/kwilson/Projects/psaseclipse/olimex2378/liblpc23xx/lpc23xx-i2c/lpc23xx-i2c.c:62
        s->i2c_tx_buffer[i] = 0;
        s->i2c_rd_buffer[i] = 0;
    }
    s->i2c_ext_slave_address = 0x0;
     d50:	e5c0c128 	strb	ip, [r0, #296]	; 0x128
i2c_init():
/home/kwilson/Projects/psaseclipse/olimex2378/liblpc23xx/lpc23xx-i2c/lpc23xx-i2c.c:145

            init_binsem(&i2c1_binsem_g);

            i2c_init_state( &i2c1_s_g );

            POWER_I2C1_ON;
     d54:	e3a0320e 	mov	r3, #-536870912	; 0xe0000000
i2c_init_state():
/home/kwilson/Projects/psaseclipse/olimex2378/liblpc23xx/lpc23xx-i2c/lpc23xx-i2c.c:63
    for(i=0; i<I2C_MAX_BUFFER; i++) {
        s->i2c_tx_buffer[i] = 0;
        s->i2c_rd_buffer[i] = 0;
    }
    s->i2c_ext_slave_address = 0x0;
    s->write_length          = 0x0;
     d58:	e5c0c129 	strb	ip, [r0, #297]	; 0x129
/home/kwilson/Projects/psaseclipse/olimex2378/liblpc23xx/lpc23xx-i2c/lpc23xx-i2c.c:64
    s->read_length           = 0x0;
     d5c:	e5c0c12a 	strb	ip, [r0, #298]	; 0x12a
/home/kwilson/Projects/psaseclipse/olimex2378/liblpc23xx/lpc23xx-i2c/lpc23xx-i2c.c:65
    s->xact_active           = 0x0;
     d60:	e5c0c12b 	strb	ip, [r0, #299]	; 0x12b
/home/kwilson/Projects/psaseclipse/olimex2378/liblpc23xx/lpc23xx-i2c/lpc23xx-i2c.c:66
    s->xact_success          = 0x0;
     d64:	e5c0c12c 	strb	ip, [r0, #300]	; 0x12c
i2c_init():
/home/kwilson/Projects/psaseclipse/olimex2378/liblpc23xx/lpc23xx-i2c/lpc23xx-i2c.c:145

            init_binsem(&i2c1_binsem_g);

            i2c_init_state( &i2c1_s_g );

            POWER_I2C1_ON;
     d68:	e283397f 	add	r3, r3, #2080768	; 0x1fc000
     d6c:	e59310c4 	ldr	r1, [r3, #196]	; 0xc4
/home/kwilson/Projects/psaseclipse/olimex2378/liblpc23xx/lpc23xx-i2c/lpc23xx-i2c.c:147

            I2C1CONCLR = 0x7C;
     d70:	e3a0220e 	mov	r2, #-536870912	; 0xe0000000
/home/kwilson/Projects/psaseclipse/olimex2378/liblpc23xx/lpc23xx-i2c/lpc23xx-i2c.c:145

            init_binsem(&i2c1_binsem_g);

            i2c_init_state( &i2c1_s_g );

            POWER_I2C1_ON;
     d74:	e3811702 	orr	r1, r1, #524288	; 0x80000
     d78:	e58310c4 	str	r1, [r3, #196]	; 0xc4
/home/kwilson/Projects/psaseclipse/olimex2378/liblpc23xx/lpc23xx-i2c/lpc23xx-i2c.c:147

            I2C1CONCLR = 0x7C;
     d7c:	e2822917 	add	r2, r2, #376832	; 0x5c000
     d80:	e3a0107c 	mov	r1, #124	; 0x7c
     d84:	e5c21018 	strb	r1, [r2, #24]
/home/kwilson/Projects/psaseclipse/olimex2378/liblpc23xx/lpc23xx-i2c/lpc23xx-i2c.c:148
            I2C1CONSET = (I2C_I2EN | I2C_AA); // master mode
     d88:	e3a01044 	mov	r1, #68	; 0x44
     d8c:	e5c21000 	strb	r1, [r2]
/home/kwilson/Projects/psaseclipse/olimex2378/liblpc23xx/lpc23xx-i2c/lpc23xx-i2c.c:150

            I2C2_IS_CCLK_DIV1;
     d90:	e59311ac 	ldr	r1, [r3, #428]	; 0x1ac
     d94:	e3c1160b 	bic	r1, r1, #11534336	; 0xb00000
     d98:	e3811601 	orr	r1, r1, #1048576	; 0x100000
     d9c:	e58311ac 	str	r1, [r3, #428]	; 0x1ac
/home/kwilson/Projects/psaseclipse/olimex2378/liblpc23xx/lpc23xx-i2c/lpc23xx-i2c.c:151
            I2C1SCLL   = I2SCLLOW;
     da0:	e3a01e19 	mov	r1, #400	; 0x190
     da4:	e1c211b4 	strh	r1, [r2, #20]
/home/kwilson/Projects/psaseclipse/olimex2378/liblpc23xx/lpc23xx-i2c/lpc23xx-i2c.c:154
            I2C1SCLH   = I2SCLHIGH;

            I2C1_ENABLE_SDA1_PIN;
     da8:	e3a0320e 	mov	r3, #-536870912	; 0xe0000000
/home/kwilson/Projects/psaseclipse/olimex2378/liblpc23xx/lpc23xx-i2c/lpc23xx-i2c.c:152
            I2C1CONCLR = 0x7C;
            I2C1CONSET = (I2C_I2EN | I2C_AA); // master mode

            I2C2_IS_CCLK_DIV1;
            I2C1SCLL   = I2SCLLOW;
            I2C1SCLH   = I2SCLHIGH;
     dac:	e1c211b0 	strh	r1, [r2, #16]
/home/kwilson/Projects/psaseclipse/olimex2378/liblpc23xx/lpc23xx-i2c/lpc23xx-i2c.c:154

            I2C1_ENABLE_SDA1_PIN;
     db0:	e283390b 	add	r3, r3, #180224	; 0x2c000
     db4:	e5931004 	ldr	r1, [r3, #4]
     db8:	e38110c0 	orr	r1, r1, #192	; 0xc0
     dbc:	e5831004 	str	r1, [r3, #4]
/home/kwilson/Projects/psaseclipse/olimex2378/liblpc23xx/lpc23xx-i2c/lpc23xx-i2c.c:155
            I2C1_ENABLE_SCL1_PIN;
     dc0:	e5931004 	ldr	r1, [r3, #4]
     dc4:	e3811c03 	orr	r1, r1, #768	; 0x300
     dc8:	e5831004 	str	r1, [r3, #4]
/home/kwilson/Projects/psaseclipse/olimex2378/liblpc23xx/lpc23xx-i2c/lpc23xx-i2c.c:158

            // reference: lpc23xx usermanual p158 table 107 footnote 2
            I2C1_SDA1_PULLUP;
     dcc:	e5931044 	ldr	r1, [r3, #68]	; 0x44
     dd0:	e3c110c0 	bic	r1, r1, #192	; 0xc0
     dd4:	e5831044 	str	r1, [r3, #68]	; 0x44
/home/kwilson/Projects/psaseclipse/olimex2378/liblpc23xx/lpc23xx-i2c/lpc23xx-i2c.c:162

            // vic
            // set up VIC p93 table 86 lpc23xx user manual
            ENABLE_I2C1_INT;
     dd8:	e3e03000 	mvn	r3, #0
     ddc:	e5131fef 	ldr	r1, [r3, #-4079]	; 0xfef
     de0:	e3811c02 	orr	r1, r1, #512	; 0x200
     de4:	e5031fef 	str	r1, [r3, #-4079]	; 0xfef
/home/kwilson/Projects/psaseclipse/olimex2378/liblpc23xx/lpc23xx-i2c/lpc23xx-i2c.c:163
            VICVectAddr19 = (unsigned int) i2c1_isr;
     de8:	e59f1034 	ldr	r1, [pc, #52]	; e24 <i2c_init+0x3e4>
     dec:	e5031eb3 	str	r1, [r3, #-3763]	; 0xeb3
/home/kwilson/Projects/psaseclipse/olimex2378/liblpc23xx/lpc23xx-i2c/lpc23xx-i2c.c:165

            I2C1CONCLR    = I2C_SIC;
     df0:	e3a03008 	mov	r3, #8
     df4:	e5c23018 	strb	r3, [r2, #24]
/home/kwilson/Projects/psaseclipse/olimex2378/liblpc23xx/lpc23xx-i2c/lpc23xx-i2c.c:166
            break;
     df8:	e8bd8070 	pop	{r4, r5, r6, pc}
     dfc:	00001e38 	.word	0x00001e38
     e00:	4000008c 	.word	0x4000008c
     e04:	00001e48 	.word	0x00001e48
     e08:	00001e58 	.word	0x00001e58
     e0c:	00001f04 	.word	0x00001f04
     e10:	00001e68 	.word	0x00001e68
     e14:	00001e7c 	.word	0x00001e7c
     e18:	000004d0 	.word	0x000004d0
     e1c:	00001e90 	.word	0x00001e90
     e20:	000004d0 	.word	0x000004d0
     e24:	000004d0 	.word	0x000004d0

00000e28 <start_i2c0_master_xact>:
start_i2c0_master_xact():
/home/kwilson/Projects/psaseclipse/olimex2378/liblpc23xx/lpc23xx-i2c/lpc23xx-i2c.c:446

/*
 * I2C_master_xact
 * Input: Pointer to i2c_master_t structure with xaction data
 */
void start_i2c0_master_xact(i2c_master_xact_t* s, XACT_FnCallback* xact_fn) {
     e28:	e92d4030 	push	{r4, r5, lr}
/home/kwilson/Projects/psaseclipse/olimex2378/liblpc23xx/lpc23xx-i2c/lpc23xx-i2c.c:450


    uint16_t i;
    if(s!=NULL) {
     e2c:	e2504000 	subs	r4, r0, #0
/home/kwilson/Projects/psaseclipse/olimex2378/liblpc23xx/lpc23xx-i2c/lpc23xx-i2c.c:446

/*
 * I2C_master_xact
 * Input: Pointer to i2c_master_t structure with xaction data
 */
void start_i2c0_master_xact(i2c_master_xact_t* s, XACT_FnCallback* xact_fn) {
     e30:	e1a05001 	mov	r5, r1
/home/kwilson/Projects/psaseclipse/olimex2378/liblpc23xx/lpc23xx-i2c/lpc23xx-i2c.c:450


    uint16_t i;
    if(s!=NULL) {
     e34:	0a00002c 	beq	eec <start_i2c0_master_xact+0xc4>
/home/kwilson/Projects/psaseclipse/olimex2378/liblpc23xx/lpc23xx-i2c/lpc23xx-i2c.c:453
        // See if we can obtain the semaphore. If the semaphore is not available 
        // wait I2C_BINSEM_WAIT msecs to see if it becomes free. 
        if( get_binsem( &i2c0_binsem_g, I2C_BINSEM_WAITTICKS ) == 1 ) {  // binsem for channel 0
     e38:	e3a01ebb 	mov	r1, #2992	; 0xbb0
     e3c:	e59f00b4 	ldr	r0, [pc, #180]	; ef8 <start_i2c0_master_xact+0xd0>
     e40:	e2811008 	add	r1, r1, #8
     e44:	eb00027d 	bl	1840 <get_binsem>
     e48:	e3500001 	cmp	r0, #1
     e4c:	1a000023 	bne	ee0 <start_i2c0_master_xact+0xb8>
     e50:	e59fc0a4 	ldr	ip, [pc, #164]	; efc <start_i2c0_master_xact+0xd4>
     e54:	e3a03000 	mov	r3, #0
/home/kwilson/Projects/psaseclipse/olimex2378/liblpc23xx/lpc23xx-i2c/lpc23xx-i2c.c:455
            for(i=0; i<I2C_MAX_BUFFER; ++i) {
                i2c0_s_g.i2c_tx_buffer[i] = s->i2c_tx_buffer[i];
     e58:	e0841003 	add	r1, r4, r3
     e5c:	e5d10004 	ldrb	r0, [r1, #4]
     e60:	e08c2003 	add	r2, ip, r3
     e64:	e20000ff 	and	r0, r0, #255	; 0xff
     e68:	e5c2000c 	strb	r0, [r2, #12]
/home/kwilson/Projects/psaseclipse/olimex2378/liblpc23xx/lpc23xx-i2c/lpc23xx-i2c.c:456
                i2c0_s_g.i2c_rd_buffer[i] = s->i2c_rd_buffer[i];
     e6c:	e5d11044 	ldrb	r1, [r1, #68]	; 0x44
     e70:	e2833001 	add	r3, r3, #1
     e74:	e20110ff 	and	r1, r1, #255	; 0xff
/home/kwilson/Projects/psaseclipse/olimex2378/liblpc23xx/lpc23xx-i2c/lpc23xx-i2c.c:454
    uint16_t i;
    if(s!=NULL) {
        // See if we can obtain the semaphore. If the semaphore is not available 
        // wait I2C_BINSEM_WAIT msecs to see if it becomes free. 
        if( get_binsem( &i2c0_binsem_g, I2C_BINSEM_WAITTICKS ) == 1 ) {  // binsem for channel 0
            for(i=0; i<I2C_MAX_BUFFER; ++i) {
     e78:	e3530040 	cmp	r3, #64	; 0x40
/home/kwilson/Projects/psaseclipse/olimex2378/liblpc23xx/lpc23xx-i2c/lpc23xx-i2c.c:455
                i2c0_s_g.i2c_tx_buffer[i] = s->i2c_tx_buffer[i];
     e7c:	e59f0078 	ldr	r0, [pc, #120]	; efc <start_i2c0_master_xact+0xd4>
/home/kwilson/Projects/psaseclipse/olimex2378/liblpc23xx/lpc23xx-i2c/lpc23xx-i2c.c:456
                i2c0_s_g.i2c_rd_buffer[i] = s->i2c_rd_buffer[i];
     e80:	e5c2104c 	strb	r1, [r2, #76]	; 0x4c
/home/kwilson/Projects/psaseclipse/olimex2378/liblpc23xx/lpc23xx-i2c/lpc23xx-i2c.c:454
    uint16_t i;
    if(s!=NULL) {
        // See if we can obtain the semaphore. If the semaphore is not available 
        // wait I2C_BINSEM_WAIT msecs to see if it becomes free. 
        if( get_binsem( &i2c0_binsem_g, I2C_BINSEM_WAITTICKS ) == 1 ) {  // binsem for channel 0
            for(i=0; i<I2C_MAX_BUFFER; ++i) {
     e84:	1afffff3 	bne	e58 <start_i2c0_master_xact+0x30>
/home/kwilson/Projects/psaseclipse/olimex2378/liblpc23xx/lpc23xx-i2c/lpc23xx-i2c.c:458
                i2c0_s_g.i2c_tx_buffer[i] = s->i2c_tx_buffer[i];
                i2c0_s_g.i2c_rd_buffer[i] = s->i2c_rd_buffer[i];
            }
            i2c0_s_g.i2c_ext_slave_address = s->i2c_ext_slave_address;
     e88:	e5d43084 	ldrb	r3, [r4, #132]	; 0x84
     e8c:	e20330ff 	and	r3, r3, #255	; 0xff
     e90:	e5c0308c 	strb	r3, [r0, #140]	; 0x8c
/home/kwilson/Projects/psaseclipse/olimex2378/liblpc23xx/lpc23xx-i2c/lpc23xx-i2c.c:459
            i2c0_s_g.write_length         = s->write_length;
     e94:	e5d43085 	ldrb	r3, [r4, #133]	; 0x85
     e98:	e20330ff 	and	r3, r3, #255	; 0xff
     e9c:	e5c0308d 	strb	r3, [r0, #141]	; 0x8d
/home/kwilson/Projects/psaseclipse/olimex2378/liblpc23xx/lpc23xx-i2c/lpc23xx-i2c.c:460
            i2c0_s_g.read_length          = s->read_length;
     ea0:	e5d4c086 	ldrb	ip, [r4, #134]	; 0x86
/home/kwilson/Projects/psaseclipse/olimex2378/liblpc23xx/lpc23xx-i2c/lpc23xx-i2c.c:462
            i2c0_s_g.xact_active          = 1;
            i2c0_s_g.xact_success         = 0;
     ea4:	e3a02000 	mov	r2, #0
/home/kwilson/Projects/psaseclipse/olimex2378/liblpc23xx/lpc23xx-i2c/lpc23xx-i2c.c:461
                i2c0_s_g.i2c_rd_buffer[i] = s->i2c_rd_buffer[i];
            }
            i2c0_s_g.i2c_ext_slave_address = s->i2c_ext_slave_address;
            i2c0_s_g.write_length         = s->write_length;
            i2c0_s_g.read_length          = s->read_length;
            i2c0_s_g.xact_active          = 1;
     ea8:	e3a01001 	mov	r1, #1
/home/kwilson/Projects/psaseclipse/olimex2378/liblpc23xx/lpc23xx-i2c/lpc23xx-i2c.c:469
            s->xact_success               = 0;
            i2c0_s_caller_g               = s;
            _i2c0_FnCallback_g            = xact_fn;

            //write 0x20 to I2CONSET to set the STA bit
            I2C0CONSET                    = I2C_STA;
     eac:	e3a0320e 	mov	r3, #-536870912	; 0xe0000000
/home/kwilson/Projects/psaseclipse/olimex2378/liblpc23xx/lpc23xx-i2c/lpc23xx-i2c.c:460
                i2c0_s_g.i2c_tx_buffer[i] = s->i2c_tx_buffer[i];
                i2c0_s_g.i2c_rd_buffer[i] = s->i2c_rd_buffer[i];
            }
            i2c0_s_g.i2c_ext_slave_address = s->i2c_ext_slave_address;
            i2c0_s_g.write_length         = s->write_length;
            i2c0_s_g.read_length          = s->read_length;
     eb0:	e20cc0ff 	and	ip, ip, #255	; 0xff
     eb4:	e5c0c08e 	strb	ip, [r0, #142]	; 0x8e
/home/kwilson/Projects/psaseclipse/olimex2378/liblpc23xx/lpc23xx-i2c/lpc23xx-i2c.c:469
            s->xact_success               = 0;
            i2c0_s_caller_g               = s;
            _i2c0_FnCallback_g            = xact_fn;

            //write 0x20 to I2CONSET to set the STA bit
            I2C0CONSET                    = I2C_STA;
     eb8:	e2833907 	add	r3, r3, #114688	; 0x1c000
/home/kwilson/Projects/psaseclipse/olimex2378/liblpc23xx/lpc23xx-i2c/lpc23xx-i2c.c:461
                i2c0_s_g.i2c_rd_buffer[i] = s->i2c_rd_buffer[i];
            }
            i2c0_s_g.i2c_ext_slave_address = s->i2c_ext_slave_address;
            i2c0_s_g.write_length         = s->write_length;
            i2c0_s_g.read_length          = s->read_length;
            i2c0_s_g.xact_active          = 1;
     ebc:	e5c0108f 	strb	r1, [r0, #143]	; 0x8f
/home/kwilson/Projects/psaseclipse/olimex2378/liblpc23xx/lpc23xx-i2c/lpc23xx-i2c.c:462
            i2c0_s_g.xact_success         = 0;
     ec0:	e5c02090 	strb	r2, [r0, #144]	; 0x90
/home/kwilson/Projects/psaseclipse/olimex2378/liblpc23xx/lpc23xx-i2c/lpc23xx-i2c.c:463
            s->xact_active                = 1;
     ec4:	e5c41087 	strb	r1, [r4, #135]	; 0x87
/home/kwilson/Projects/psaseclipse/olimex2378/liblpc23xx/lpc23xx-i2c/lpc23xx-i2c.c:464
            s->xact_success               = 0;
     ec8:	e5c42088 	strb	r2, [r4, #136]	; 0x88
/home/kwilson/Projects/psaseclipse/olimex2378/liblpc23xx/lpc23xx-i2c/lpc23xx-i2c.c:469
            i2c0_s_caller_g               = s;
            _i2c0_FnCallback_g            = xact_fn;

            //write 0x20 to I2CONSET to set the STA bit
            I2C0CONSET                    = I2C_STA;
     ecc:	e3a02020 	mov	r2, #32
/home/kwilson/Projects/psaseclipse/olimex2378/liblpc23xx/lpc23xx-i2c/lpc23xx-i2c.c:465
            i2c0_s_g.read_length          = s->read_length;
            i2c0_s_g.xact_active          = 1;
            i2c0_s_g.xact_success         = 0;
            s->xact_active                = 1;
            s->xact_success               = 0;
            i2c0_s_caller_g               = s;
     ed0:	e5804098 	str	r4, [r0, #152]	; 0x98
/home/kwilson/Projects/psaseclipse/olimex2378/liblpc23xx/lpc23xx-i2c/lpc23xx-i2c.c:466
            _i2c0_FnCallback_g            = xact_fn;
     ed4:	e5805094 	str	r5, [r0, #148]	; 0x94
/home/kwilson/Projects/psaseclipse/olimex2378/liblpc23xx/lpc23xx-i2c/lpc23xx-i2c.c:469

            //write 0x20 to I2CONSET to set the STA bit
            I2C0CONSET                    = I2C_STA;
     ed8:	e5c32000 	strb	r2, [r3]
/home/kwilson/Projects/psaseclipse/olimex2378/liblpc23xx/lpc23xx-i2c/lpc23xx-i2c.c:476
            uart0_putstring("*** I2C0-ERROR ***: I2C0_master_xact, Timed out waiting for i2c0_binsem_g. Skipping Request.\n");
        } 
    } else {
        uart0_putstring("*** I2C0-ERROR ***: I2C0_master_xact, structure pointer is NULL. Skipping.\n");
    }
}
     edc:	e8bd8030 	pop	{r4, r5, pc}
/home/kwilson/Projects/psaseclipse/olimex2378/liblpc23xx/lpc23xx-i2c/lpc23xx-i2c.c:471
            _i2c0_FnCallback_g            = xact_fn;

            //write 0x20 to I2CONSET to set the STA bit
            I2C0CONSET                    = I2C_STA;
        } else { 
            uart0_putstring("*** I2C0-ERROR ***: I2C0_master_xact, Timed out waiting for i2c0_binsem_g. Skipping Request.\n");
     ee0:	e59f0018 	ldr	r0, [pc, #24]	; f00 <start_i2c0_master_xact+0xd8>
/home/kwilson/Projects/psaseclipse/olimex2378/liblpc23xx/lpc23xx-i2c/lpc23xx-i2c.c:476
        } 
    } else {
        uart0_putstring("*** I2C0-ERROR ***: I2C0_master_xact, structure pointer is NULL. Skipping.\n");
    }
}
     ee4:	e8bd4030 	pop	{r4, r5, lr}
/home/kwilson/Projects/psaseclipse/olimex2378/liblpc23xx/lpc23xx-i2c/lpc23xx-i2c.c:471
            _i2c0_FnCallback_g            = xact_fn;

            //write 0x20 to I2CONSET to set the STA bit
            I2C0CONSET                    = I2C_STA;
        } else { 
            uart0_putstring("*** I2C0-ERROR ***: I2C0_master_xact, Timed out waiting for i2c0_binsem_g. Skipping Request.\n");
     ee8:	ea000197 	b	154c <uart0_putstring>
/home/kwilson/Projects/psaseclipse/olimex2378/liblpc23xx/lpc23xx-i2c/lpc23xx-i2c.c:474
        } 
    } else {
        uart0_putstring("*** I2C0-ERROR ***: I2C0_master_xact, structure pointer is NULL. Skipping.\n");
     eec:	e59f0010 	ldr	r0, [pc, #16]	; f04 <start_i2c0_master_xact+0xdc>
/home/kwilson/Projects/psaseclipse/olimex2378/liblpc23xx/lpc23xx-i2c/lpc23xx-i2c.c:476
    }
}
     ef0:	e8bd4030 	pop	{r4, r5, lr}
/home/kwilson/Projects/psaseclipse/olimex2378/liblpc23xx/lpc23xx-i2c/lpc23xx-i2c.c:474
            I2C0CONSET                    = I2C_STA;
        } else { 
            uart0_putstring("*** I2C0-ERROR ***: I2C0_master_xact, Timed out waiting for i2c0_binsem_g. Skipping Request.\n");
        } 
    } else {
        uart0_putstring("*** I2C0-ERROR ***: I2C0_master_xact, structure pointer is NULL. Skipping.\n");
     ef4:	ea000194 	b	154c <uart0_putstring>
     ef8:	40000128 	.word	0x40000128
     efc:	4000008c 	.word	0x4000008c
     f00:	00001ea8 	.word	0x00001ea8
     f04:	00001f08 	.word	0x00001f08

00000f08 <pllquery_cclk_mhz>:
pllquery_cclk_mhz():
/home/kwilson/Projects/psaseclipse/olimex2378/liblpc23xx/lpc23xx-pll/lpc23xx-pll.c:18

/*
 * pllquery_clk_mhz
 */
Freq    pllquery_cclk_mhz(void) {
    return(pllstat.cclk_mhz);
     f08:	e59f3004 	ldr	r3, [pc, #4]	; f14 <pllquery_cclk_mhz+0xc>
/home/kwilson/Projects/psaseclipse/olimex2378/liblpc23xx/lpc23xx-pll/lpc23xx-pll.c:19
}
     f0c:	e5930000 	ldr	r0, [r3]
     f10:	e12fff1e 	bx	lr
     f14:	4000025c 	.word	0x4000025c

00000f18 <pllfeed>:
pllfeed():
/home/kwilson/Projects/psaseclipse/olimex2378/liblpc23xx/lpc23xx-pll/lpc23xx-pll.c:31
 */
void pllfeed(void) {
    uint32_t        savedInterrupts;

    /* disable interrupts */
    savedInterrupts = VICIntEnable;
     f18:	e3e03000 	mvn	r3, #0
/home/kwilson/Projects/psaseclipse/olimex2378/liblpc23xx/lpc23xx-pll/lpc23xx-pll.c:34
    VICIntEnClr     = (unsigned) 0xFFFFFFFF;

    PLLFEED         = FEEDBYTE_A;
     f1c:	e3a0220e 	mov	r2, #-536870912	; 0xe0000000
/home/kwilson/Projects/psaseclipse/olimex2378/liblpc23xx/lpc23xx-pll/lpc23xx-pll.c:31
 */
void pllfeed(void) {
    uint32_t        savedInterrupts;

    /* disable interrupts */
    savedInterrupts = VICIntEnable;
     f20:	e5131fef 	ldr	r1, [r3, #-4079]	; 0xfef
/home/kwilson/Projects/psaseclipse/olimex2378/liblpc23xx/lpc23xx-pll/lpc23xx-pll.c:34
    VICIntEnClr     = (unsigned) 0xFFFFFFFF;

    PLLFEED         = FEEDBYTE_A;
     f24:	e282297f 	add	r2, r2, #2080768	; 0x1fc000
     f28:	e3e00055 	mvn	r0, #85	; 0x55
/home/kwilson/Projects/psaseclipse/olimex2378/liblpc23xx/lpc23xx-pll/lpc23xx-pll.c:32
void pllfeed(void) {
    uint32_t        savedInterrupts;

    /* disable interrupts */
    savedInterrupts = VICIntEnable;
    VICIntEnClr     = (unsigned) 0xFFFFFFFF;
     f2c:	e5033feb 	str	r3, [r3, #-4075]	; 0xfeb
/home/kwilson/Projects/psaseclipse/olimex2378/liblpc23xx/lpc23xx-pll/lpc23xx-pll.c:34

    PLLFEED         = FEEDBYTE_A;
     f30:	e5c2008c 	strb	r0, [r2, #140]	; 0x8c
/home/kwilson/Projects/psaseclipse/olimex2378/liblpc23xx/lpc23xx-pll/lpc23xx-pll.c:35
    PLLFEED         = FEEDBYTE_B;
     f34:	e3a00055 	mov	r0, #85	; 0x55
     f38:	e5c2008c 	strb	r0, [r2, #140]	; 0x8c
/home/kwilson/Projects/psaseclipse/olimex2378/liblpc23xx/lpc23xx-pll/lpc23xx-pll.c:38

    /* restore interrupts */
    VICIntEnable    = savedInterrupts;
     f3c:	e5031fef 	str	r1, [r3, #-4079]	; 0xfef
/home/kwilson/Projects/psaseclipse/olimex2378/liblpc23xx/lpc23xx-pll/lpc23xx-pll.c:39
}
     f40:	e12fff1e 	bx	lr

00000f44 <pllstop>:
pllstop():
/home/kwilson/Projects/psaseclipse/olimex2378/liblpc23xx/lpc23xx-pll/lpc23xx-pll.c:48
 */
void pllstop(void) {

    uint32_t status;

    status          = PLLSTAT;
     f44:	e3a0320e 	mov	r3, #-536870912	; 0xe0000000
     f48:	e283397f 	add	r3, r3, #2080768	; 0x1fc000
     f4c:	e5932088 	ldr	r2, [r3, #136]	; 0x88
/home/kwilson/Projects/psaseclipse/olimex2378/liblpc23xx/lpc23xx-pll/lpc23xx-pll.c:50

    if(PLLC != 0) {
     f50:	e5932088 	ldr	r2, [r3, #136]	; 0x88
     f54:	e3120402 	tst	r2, #33554432	; 0x2000000
     f58:	012fff1e 	bxeq	lr
/home/kwilson/Projects/psaseclipse/olimex2378/liblpc23xx/lpc23xx-pll/lpc23xx-pll.c:51
        CLEAR_PLLC; 
     f5c:	e5d32080 	ldrb	r2, [r3, #128]	; 0x80
     f60:	e20220fd 	and	r2, r2, #253	; 0xfd
     f64:	e5c32080 	strb	r2, [r3, #128]	; 0x80
pllfeed():
/home/kwilson/Projects/psaseclipse/olimex2378/liblpc23xx/lpc23xx-pll/lpc23xx-pll.c:31
 */
void pllfeed(void) {
    uint32_t        savedInterrupts;

    /* disable interrupts */
    savedInterrupts = VICIntEnable;
     f68:	e3e02000 	mvn	r2, #0
     f6c:	e512cfef 	ldr	ip, [r2, #-4079]	; 0xfef
/home/kwilson/Projects/psaseclipse/olimex2378/liblpc23xx/lpc23xx-pll/lpc23xx-pll.c:34
    VICIntEnClr     = (unsigned) 0xFFFFFFFF;

    PLLFEED         = FEEDBYTE_A;
     f70:	e3e00055 	mvn	r0, #85	; 0x55
/home/kwilson/Projects/psaseclipse/olimex2378/liblpc23xx/lpc23xx-pll/lpc23xx-pll.c:35
    PLLFEED         = FEEDBYTE_B;
     f74:	e3a01055 	mov	r1, #85	; 0x55
/home/kwilson/Projects/psaseclipse/olimex2378/liblpc23xx/lpc23xx-pll/lpc23xx-pll.c:32
void pllfeed(void) {
    uint32_t        savedInterrupts;

    /* disable interrupts */
    savedInterrupts = VICIntEnable;
    VICIntEnClr     = (unsigned) 0xFFFFFFFF;
     f78:	e5022feb 	str	r2, [r2, #-4075]	; 0xfeb
/home/kwilson/Projects/psaseclipse/olimex2378/liblpc23xx/lpc23xx-pll/lpc23xx-pll.c:34

    PLLFEED         = FEEDBYTE_A;
     f7c:	e5c3008c 	strb	r0, [r3, #140]	; 0x8c
/home/kwilson/Projects/psaseclipse/olimex2378/liblpc23xx/lpc23xx-pll/lpc23xx-pll.c:35
    PLLFEED         = FEEDBYTE_B;
     f80:	e5c3108c 	strb	r1, [r3, #140]	; 0x8c
/home/kwilson/Projects/psaseclipse/olimex2378/liblpc23xx/lpc23xx-pll/lpc23xx-pll.c:38

    /* restore interrupts */
    VICIntEnable    = savedInterrupts;
     f84:	e502cfef 	str	ip, [r2, #-4079]	; 0xfef
pllstop():
/home/kwilson/Projects/psaseclipse/olimex2378/liblpc23xx/lpc23xx-pll/lpc23xx-pll.c:53
    status          = PLLSTAT;

    if(PLLC != 0) {
        CLEAR_PLLC; 
        pllfeed();
        CLEAR_PLLE; 
     f88:	e5d3c080 	ldrb	ip, [r3, #128]	; 0x80
     f8c:	e20cc0fe 	and	ip, ip, #254	; 0xfe
     f90:	e5c3c080 	strb	ip, [r3, #128]	; 0x80
pllfeed():
/home/kwilson/Projects/psaseclipse/olimex2378/liblpc23xx/lpc23xx-pll/lpc23xx-pll.c:31
 */
void pllfeed(void) {
    uint32_t        savedInterrupts;

    /* disable interrupts */
    savedInterrupts = VICIntEnable;
     f94:	e512cfef 	ldr	ip, [r2, #-4079]	; 0xfef
/home/kwilson/Projects/psaseclipse/olimex2378/liblpc23xx/lpc23xx-pll/lpc23xx-pll.c:32
    VICIntEnClr     = (unsigned) 0xFFFFFFFF;
     f98:	e5022feb 	str	r2, [r2, #-4075]	; 0xfeb
/home/kwilson/Projects/psaseclipse/olimex2378/liblpc23xx/lpc23xx-pll/lpc23xx-pll.c:34

    PLLFEED         = FEEDBYTE_A;
     f9c:	e5c3008c 	strb	r0, [r3, #140]	; 0x8c
/home/kwilson/Projects/psaseclipse/olimex2378/liblpc23xx/lpc23xx-pll/lpc23xx-pll.c:35
    PLLFEED         = FEEDBYTE_B;
     fa0:	e5c3108c 	strb	r1, [r3, #140]	; 0x8c
/home/kwilson/Projects/psaseclipse/olimex2378/liblpc23xx/lpc23xx-pll/lpc23xx-pll.c:38

    /* restore interrupts */
    VICIntEnable    = savedInterrupts;
     fa4:	e502cfef 	str	ip, [r2, #-4079]	; 0xfef
     fa8:	e12fff1e 	bx	lr

00000fac <pllstart_seventytwomhz>:
pllstart_seventytwomhz():
/home/kwilson/Projects/psaseclipse/olimex2378/liblpc23xx/lpc23xx-pll/lpc23xx-pll.c:63
/*
 * pllstart_seventytwomhz
 * lpc23xx rev03 p60
 * Fcco = 288Mhz, M=12, N=1, Fin = 12Mhz 
 */
void pllstart_seventytwomhz(void) { 
     fac:	e92d4010 	push	{r4, lr}
/home/kwilson/Projects/psaseclipse/olimex2378/liblpc23xx/lpc23xx-pll/lpc23xx-pll.c:64
    pllstat.cclk_mhz = ZERO;
     fb0:	e59f40e4 	ldr	r4, [pc, #228]	; 109c <pllstart_seventytwomhz+0xf0>
     fb4:	e3a03000 	mov	r3, #0
     fb8:	e5843000 	str	r3, [r4]
/home/kwilson/Projects/psaseclipse/olimex2378/liblpc23xx/lpc23xx-pll/lpc23xx-pll.c:66

    pllstop();
     fbc:	ebffffe0 	bl	f44 <pllstop>
/home/kwilson/Projects/psaseclipse/olimex2378/liblpc23xx/lpc23xx-pll/lpc23xx-pll.c:68

    mainOSC_ENABLE;
     fc0:	e3a0120e 	mov	r1, #-536870912	; 0xe0000000
     fc4:	e281197f 	add	r1, r1, #2080768	; 0x1fc000
     fc8:	e59131a0 	ldr	r3, [r1, #416]	; 0x1a0
     fcc:	e3833020 	orr	r3, r3, #32
     fd0:	e58131a0 	str	r3, [r1, #416]	; 0x1a0
/home/kwilson/Projects/psaseclipse/olimex2378/liblpc23xx/lpc23xx-pll/lpc23xx-pll.c:69
    while (!mainOSC_READY);
     fd4:	e59121a0 	ldr	r2, [r1, #416]	; 0x1a0
     fd8:	e3a0320e 	mov	r3, #-536870912	; 0xe0000000
     fdc:	e3120040 	tst	r2, #64	; 0x40
     fe0:	e283397f 	add	r3, r3, #2080768	; 0x1fc000
     fe4:	0afffffa 	beq	fd4 <pllstart_seventytwomhz+0x28>
/home/kwilson/Projects/psaseclipse/olimex2378/liblpc23xx/lpc23xx-pll/lpc23xx-pll.c:71

    mainOSC_SELECT;
     fe8:	e3a02001 	mov	r2, #1
     fec:	e583210c 	str	r2, [r3, #268]	; 0x10c
/home/kwilson/Projects/psaseclipse/olimex2378/liblpc23xx/lpc23xx-pll/lpc23xx-pll.c:73

    FCCO_TWO_EIGHTY_EIGHT_MHZ;
     ff0:	e3a0200b 	mov	r2, #11
     ff4:	e5832084 	str	r2, [r3, #132]	; 0x84
pllfeed():
/home/kwilson/Projects/psaseclipse/olimex2378/liblpc23xx/lpc23xx-pll/lpc23xx-pll.c:31
 */
void pllfeed(void) {
    uint32_t        savedInterrupts;

    /* disable interrupts */
    savedInterrupts = VICIntEnable;
     ff8:	e3e02000 	mvn	r2, #0
     ffc:	e512cfef 	ldr	ip, [r2, #-4079]	; 0xfef
/home/kwilson/Projects/psaseclipse/olimex2378/liblpc23xx/lpc23xx-pll/lpc23xx-pll.c:34
    VICIntEnClr     = (unsigned) 0xFFFFFFFF;

    PLLFEED         = FEEDBYTE_A;
    1000:	e3e00055 	mvn	r0, #85	; 0x55
/home/kwilson/Projects/psaseclipse/olimex2378/liblpc23xx/lpc23xx-pll/lpc23xx-pll.c:35
    PLLFEED         = FEEDBYTE_B;
    1004:	e3a01055 	mov	r1, #85	; 0x55
/home/kwilson/Projects/psaseclipse/olimex2378/liblpc23xx/lpc23xx-pll/lpc23xx-pll.c:32
void pllfeed(void) {
    uint32_t        savedInterrupts;

    /* disable interrupts */
    savedInterrupts = VICIntEnable;
    VICIntEnClr     = (unsigned) 0xFFFFFFFF;
    1008:	e5022feb 	str	r2, [r2, #-4075]	; 0xfeb
/home/kwilson/Projects/psaseclipse/olimex2378/liblpc23xx/lpc23xx-pll/lpc23xx-pll.c:34

    PLLFEED         = FEEDBYTE_A;
    100c:	e5c3008c 	strb	r0, [r3, #140]	; 0x8c
/home/kwilson/Projects/psaseclipse/olimex2378/liblpc23xx/lpc23xx-pll/lpc23xx-pll.c:35
    PLLFEED         = FEEDBYTE_B;
    1010:	e5c3108c 	strb	r1, [r3, #140]	; 0x8c
/home/kwilson/Projects/psaseclipse/olimex2378/liblpc23xx/lpc23xx-pll/lpc23xx-pll.c:38

    /* restore interrupts */
    VICIntEnable    = savedInterrupts;
    1014:	e502cfef 	str	ip, [r2, #-4079]	; 0xfef
pllstart_seventytwomhz():
/home/kwilson/Projects/psaseclipse/olimex2378/liblpc23xx/lpc23xx-pll/lpc23xx-pll.c:76
    mainOSC_SELECT;

    FCCO_TWO_EIGHTY_EIGHT_MHZ;
    pllfeed();

    SET_PLLE;
    1018:	e5d3c080 	ldrb	ip, [r3, #128]	; 0x80
    101c:	e38cc001 	orr	ip, ip, #1
    1020:	e5c3c080 	strb	ip, [r3, #128]	; 0x80
pllfeed():
/home/kwilson/Projects/psaseclipse/olimex2378/liblpc23xx/lpc23xx-pll/lpc23xx-pll.c:31
 */
void pllfeed(void) {
    uint32_t        savedInterrupts;

    /* disable interrupts */
    savedInterrupts = VICIntEnable;
    1024:	e512cfef 	ldr	ip, [r2, #-4079]	; 0xfef
/home/kwilson/Projects/psaseclipse/olimex2378/liblpc23xx/lpc23xx-pll/lpc23xx-pll.c:32
    VICIntEnClr     = (unsigned) 0xFFFFFFFF;
    1028:	e5022feb 	str	r2, [r2, #-4075]	; 0xfeb
/home/kwilson/Projects/psaseclipse/olimex2378/liblpc23xx/lpc23xx-pll/lpc23xx-pll.c:34

    PLLFEED         = FEEDBYTE_A;
    102c:	e5c3008c 	strb	r0, [r3, #140]	; 0x8c
/home/kwilson/Projects/psaseclipse/olimex2378/liblpc23xx/lpc23xx-pll/lpc23xx-pll.c:35
    PLLFEED         = FEEDBYTE_B;
    1030:	e5c3108c 	strb	r1, [r3, #140]	; 0x8c
/home/kwilson/Projects/psaseclipse/olimex2378/liblpc23xx/lpc23xx-pll/lpc23xx-pll.c:38

    /* restore interrupts */
    VICIntEnable    = savedInterrupts;
    1034:	e502cfef 	str	ip, [r2, #-4079]	; 0xfef
pllstart_seventytwomhz():
/home/kwilson/Projects/psaseclipse/olimex2378/liblpc23xx/lpc23xx-pll/lpc23xx-pll.c:79
    pllfeed();

    SET_PLLE;
    pllfeed();

    CCLK_IS_FCCODIV4;
    1038:	e3a02003 	mov	r2, #3
    103c:	e5832104 	str	r2, [r3, #260]	; 0x104
/home/kwilson/Projects/psaseclipse/olimex2378/liblpc23xx/lpc23xx-pll/lpc23xx-pll.c:80
    USB_IS_FCCODIV6;
    1040:	e3a02005 	mov	r2, #5
    1044:	e5832108 	str	r2, [r3, #264]	; 0x108
/home/kwilson/Projects/psaseclipse/olimex2378/liblpc23xx/lpc23xx-pll/lpc23xx-pll.c:82

    while(!PLOCK);
    1048:	e5931088 	ldr	r1, [r3, #136]	; 0x88
    104c:	e3a0220e 	mov	r2, #-536870912	; 0xe0000000
    1050:	e3110301 	tst	r1, #67108864	; 0x4000000
    1054:	e282297f 	add	r2, r2, #2080768	; 0x1fc000
    1058:	0afffffa 	beq	1048 <pllstart_seventytwomhz+0x9c>
/home/kwilson/Projects/psaseclipse/olimex2378/liblpc23xx/lpc23xx-pll/lpc23xx-pll.c:84

    SET_PLLC;
    105c:	e5d23080 	ldrb	r3, [r2, #128]	; 0x80
    1060:	e3833002 	orr	r3, r3, #2
    1064:	e5c23080 	strb	r3, [r2, #128]	; 0x80
pllfeed():
/home/kwilson/Projects/psaseclipse/olimex2378/liblpc23xx/lpc23xx-pll/lpc23xx-pll.c:31
 */
void pllfeed(void) {
    uint32_t        savedInterrupts;

    /* disable interrupts */
    savedInterrupts = VICIntEnable;
    1068:	e3e01000 	mvn	r1, #0
pllstart_seventytwomhz():
/home/kwilson/Projects/psaseclipse/olimex2378/liblpc23xx/lpc23xx-pll/lpc23xx-pll.c:86

    while(!PLOCK);

    SET_PLLC;
    pllfeed();
    pllstat.cclk_mhz = SEVENTY_TWO_MHZ;
    106c:	e3a03511 	mov	r3, #71303168	; 0x4400000
pllfeed():
/home/kwilson/Projects/psaseclipse/olimex2378/liblpc23xx/lpc23xx-pll/lpc23xx-pll.c:31
 */
void pllfeed(void) {
    uint32_t        savedInterrupts;

    /* disable interrupts */
    savedInterrupts = VICIntEnable;
    1070:	e5110fef 	ldr	r0, [r1, #-4079]	; 0xfef
/home/kwilson/Projects/psaseclipse/olimex2378/liblpc23xx/lpc23xx-pll/lpc23xx-pll.c:34
    VICIntEnClr     = (unsigned) 0xFFFFFFFF;

    PLLFEED         = FEEDBYTE_A;
    1074:	e3e0c055 	mvn	ip, #85	; 0x55
pllstart_seventytwomhz():
/home/kwilson/Projects/psaseclipse/olimex2378/liblpc23xx/lpc23xx-pll/lpc23xx-pll.c:86

    while(!PLOCK);

    SET_PLLC;
    pllfeed();
    pllstat.cclk_mhz = SEVENTY_TWO_MHZ;
    1078:	e2833aaa 	add	r3, r3, #696320	; 0xaa000
pllfeed():
/home/kwilson/Projects/psaseclipse/olimex2378/liblpc23xx/lpc23xx-pll/lpc23xx-pll.c:32
void pllfeed(void) {
    uint32_t        savedInterrupts;

    /* disable interrupts */
    savedInterrupts = VICIntEnable;
    VICIntEnClr     = (unsigned) 0xFFFFFFFF;
    107c:	e5011feb 	str	r1, [r1, #-4075]	; 0xfeb
pllstart_seventytwomhz():
/home/kwilson/Projects/psaseclipse/olimex2378/liblpc23xx/lpc23xx-pll/lpc23xx-pll.c:86

    while(!PLOCK);

    SET_PLLC;
    pllfeed();
    pllstat.cclk_mhz = SEVENTY_TWO_MHZ;
    1080:	e2833c02 	add	r3, r3, #512	; 0x200
pllfeed():
/home/kwilson/Projects/psaseclipse/olimex2378/liblpc23xx/lpc23xx-pll/lpc23xx-pll.c:34

    /* disable interrupts */
    savedInterrupts = VICIntEnable;
    VICIntEnClr     = (unsigned) 0xFFFFFFFF;

    PLLFEED         = FEEDBYTE_A;
    1084:	e5c2c08c 	strb	ip, [r2, #140]	; 0x8c
/home/kwilson/Projects/psaseclipse/olimex2378/liblpc23xx/lpc23xx-pll/lpc23xx-pll.c:35
    PLLFEED         = FEEDBYTE_B;
    1088:	e3a0c055 	mov	ip, #85	; 0x55
    108c:	e5c2c08c 	strb	ip, [r2, #140]	; 0x8c
/home/kwilson/Projects/psaseclipse/olimex2378/liblpc23xx/lpc23xx-pll/lpc23xx-pll.c:38

    /* restore interrupts */
    VICIntEnable    = savedInterrupts;
    1090:	e5010fef 	str	r0, [r1, #-4079]	; 0xfef
pllstart_seventytwomhz():
/home/kwilson/Projects/psaseclipse/olimex2378/liblpc23xx/lpc23xx-pll/lpc23xx-pll.c:86

    while(!PLOCK);

    SET_PLLC;
    pllfeed();
    pllstat.cclk_mhz = SEVENTY_TWO_MHZ;
    1094:	e5843000 	str	r3, [r4]
/home/kwilson/Projects/psaseclipse/olimex2378/liblpc23xx/lpc23xx-pll/lpc23xx-pll.c:87
}
    1098:	e8bd8010 	pop	{r4, pc}
    109c:	4000025c 	.word	0x4000025c

000010a0 <pllstart_sixtymhz>:
pllstart_sixtymhz():
/home/kwilson/Projects/psaseclipse/olimex2378/liblpc23xx/lpc23xx-pll/lpc23xx-pll.c:95
/*
 * pllstart_sixtymhz
 * lpc23xx rev03 p60
 * Fcco = 480Mhz, M=20, N=1, Fin = 12Mhz 
 */
void pllstart_sixtymhz(void) { 
    10a0:	e92d4010 	push	{r4, lr}
/home/kwilson/Projects/psaseclipse/olimex2378/liblpc23xx/lpc23xx-pll/lpc23xx-pll.c:96
    pllstat.cclk_mhz = ZERO;
    10a4:	e59f40e0 	ldr	r4, [pc, #224]	; 118c <pllstart_sixtymhz+0xec>
    10a8:	e3a03000 	mov	r3, #0
    10ac:	e5843000 	str	r3, [r4]
/home/kwilson/Projects/psaseclipse/olimex2378/liblpc23xx/lpc23xx-pll/lpc23xx-pll.c:98

    pllstop();
    10b0:	ebffffa3 	bl	f44 <pllstop>
/home/kwilson/Projects/psaseclipse/olimex2378/liblpc23xx/lpc23xx-pll/lpc23xx-pll.c:100

    mainOSC_ENABLE;
    10b4:	e3a0120e 	mov	r1, #-536870912	; 0xe0000000
    10b8:	e281197f 	add	r1, r1, #2080768	; 0x1fc000
    10bc:	e59131a0 	ldr	r3, [r1, #416]	; 0x1a0
    10c0:	e3833020 	orr	r3, r3, #32
    10c4:	e58131a0 	str	r3, [r1, #416]	; 0x1a0
/home/kwilson/Projects/psaseclipse/olimex2378/liblpc23xx/lpc23xx-pll/lpc23xx-pll.c:101
    while (!mainOSC_READY);
    10c8:	e59121a0 	ldr	r2, [r1, #416]	; 0x1a0
    10cc:	e3a0320e 	mov	r3, #-536870912	; 0xe0000000
    10d0:	e3120040 	tst	r2, #64	; 0x40
    10d4:	e283397f 	add	r3, r3, #2080768	; 0x1fc000
    10d8:	0afffffa 	beq	10c8 <pllstart_sixtymhz+0x28>
/home/kwilson/Projects/psaseclipse/olimex2378/liblpc23xx/lpc23xx-pll/lpc23xx-pll.c:103

    mainOSC_SELECT;
    10dc:	e3a02001 	mov	r2, #1
    10e0:	e583210c 	str	r2, [r3, #268]	; 0x10c
/home/kwilson/Projects/psaseclipse/olimex2378/liblpc23xx/lpc23xx-pll/lpc23xx-pll.c:105

    FCCO_FOUR_EIGHTY_MHZ;
    10e4:	e3a02013 	mov	r2, #19
    10e8:	e5832084 	str	r2, [r3, #132]	; 0x84
pllfeed():
/home/kwilson/Projects/psaseclipse/olimex2378/liblpc23xx/lpc23xx-pll/lpc23xx-pll.c:31
 */
void pllfeed(void) {
    uint32_t        savedInterrupts;

    /* disable interrupts */
    savedInterrupts = VICIntEnable;
    10ec:	e3e02000 	mvn	r2, #0
    10f0:	e512cfef 	ldr	ip, [r2, #-4079]	; 0xfef
/home/kwilson/Projects/psaseclipse/olimex2378/liblpc23xx/lpc23xx-pll/lpc23xx-pll.c:34
    VICIntEnClr     = (unsigned) 0xFFFFFFFF;

    PLLFEED         = FEEDBYTE_A;
    10f4:	e3e00055 	mvn	r0, #85	; 0x55
/home/kwilson/Projects/psaseclipse/olimex2378/liblpc23xx/lpc23xx-pll/lpc23xx-pll.c:35
    PLLFEED         = FEEDBYTE_B;
    10f8:	e3a01055 	mov	r1, #85	; 0x55
/home/kwilson/Projects/psaseclipse/olimex2378/liblpc23xx/lpc23xx-pll/lpc23xx-pll.c:32
void pllfeed(void) {
    uint32_t        savedInterrupts;

    /* disable interrupts */
    savedInterrupts = VICIntEnable;
    VICIntEnClr     = (unsigned) 0xFFFFFFFF;
    10fc:	e5022feb 	str	r2, [r2, #-4075]	; 0xfeb
/home/kwilson/Projects/psaseclipse/olimex2378/liblpc23xx/lpc23xx-pll/lpc23xx-pll.c:34

    PLLFEED         = FEEDBYTE_A;
    1100:	e5c3008c 	strb	r0, [r3, #140]	; 0x8c
/home/kwilson/Projects/psaseclipse/olimex2378/liblpc23xx/lpc23xx-pll/lpc23xx-pll.c:35
    PLLFEED         = FEEDBYTE_B;
    1104:	e5c3108c 	strb	r1, [r3, #140]	; 0x8c
/home/kwilson/Projects/psaseclipse/olimex2378/liblpc23xx/lpc23xx-pll/lpc23xx-pll.c:38

    /* restore interrupts */
    VICIntEnable    = savedInterrupts;
    1108:	e502cfef 	str	ip, [r2, #-4079]	; 0xfef
pllstart_sixtymhz():
/home/kwilson/Projects/psaseclipse/olimex2378/liblpc23xx/lpc23xx-pll/lpc23xx-pll.c:108
    mainOSC_SELECT;

    FCCO_FOUR_EIGHTY_MHZ;
    pllfeed();

    SET_PLLE;
    110c:	e5d3c080 	ldrb	ip, [r3, #128]	; 0x80
    1110:	e38cc001 	orr	ip, ip, #1
    1114:	e5c3c080 	strb	ip, [r3, #128]	; 0x80
pllfeed():
/home/kwilson/Projects/psaseclipse/olimex2378/liblpc23xx/lpc23xx-pll/lpc23xx-pll.c:31
 */
void pllfeed(void) {
    uint32_t        savedInterrupts;

    /* disable interrupts */
    savedInterrupts = VICIntEnable;
    1118:	e512cfef 	ldr	ip, [r2, #-4079]	; 0xfef
/home/kwilson/Projects/psaseclipse/olimex2378/liblpc23xx/lpc23xx-pll/lpc23xx-pll.c:32
    VICIntEnClr     = (unsigned) 0xFFFFFFFF;
    111c:	e5022feb 	str	r2, [r2, #-4075]	; 0xfeb
/home/kwilson/Projects/psaseclipse/olimex2378/liblpc23xx/lpc23xx-pll/lpc23xx-pll.c:34

    PLLFEED         = FEEDBYTE_A;
    1120:	e5c3008c 	strb	r0, [r3, #140]	; 0x8c
/home/kwilson/Projects/psaseclipse/olimex2378/liblpc23xx/lpc23xx-pll/lpc23xx-pll.c:35
    PLLFEED         = FEEDBYTE_B;
    1124:	e5c3108c 	strb	r1, [r3, #140]	; 0x8c
/home/kwilson/Projects/psaseclipse/olimex2378/liblpc23xx/lpc23xx-pll/lpc23xx-pll.c:38

    /* restore interrupts */
    VICIntEnable    = savedInterrupts;
    1128:	e502cfef 	str	ip, [r2, #-4079]	; 0xfef
pllstart_sixtymhz():
/home/kwilson/Projects/psaseclipse/olimex2378/liblpc23xx/lpc23xx-pll/lpc23xx-pll.c:111
    pllfeed();

    SET_PLLE;
    pllfeed();

    CCLK_IS_FCCODIV8;
    112c:	e3a02007 	mov	r2, #7
    1130:	e5832104 	str	r2, [r3, #260]	; 0x104
/home/kwilson/Projects/psaseclipse/olimex2378/liblpc23xx/lpc23xx-pll/lpc23xx-pll.c:112
    USB_IS_FCCODIV10;
    1134:	e3a02009 	mov	r2, #9
    1138:	e5832108 	str	r2, [r3, #264]	; 0x108
/home/kwilson/Projects/psaseclipse/olimex2378/liblpc23xx/lpc23xx-pll/lpc23xx-pll.c:114

    while(!PLOCK);
    113c:	e5931088 	ldr	r1, [r3, #136]	; 0x88
    1140:	e3a0220e 	mov	r2, #-536870912	; 0xe0000000
    1144:	e3110301 	tst	r1, #67108864	; 0x4000000
    1148:	e282297f 	add	r2, r2, #2080768	; 0x1fc000
    114c:	0afffffa 	beq	113c <pllstart_sixtymhz+0x9c>
/home/kwilson/Projects/psaseclipse/olimex2378/liblpc23xx/lpc23xx-pll/lpc23xx-pll.c:116

    SET_PLLC;
    1150:	e5d23080 	ldrb	r3, [r2, #128]	; 0x80
    1154:	e3833002 	orr	r3, r3, #2
    1158:	e5c23080 	strb	r3, [r2, #128]	; 0x80
pllfeed():
/home/kwilson/Projects/psaseclipse/olimex2378/liblpc23xx/lpc23xx-pll/lpc23xx-pll.c:31
 */
void pllfeed(void) {
    uint32_t        savedInterrupts;

    /* disable interrupts */
    savedInterrupts = VICIntEnable;
    115c:	e3e03000 	mvn	r3, #0
    1160:	e5130fef 	ldr	r0, [r3, #-4079]	; 0xfef
/home/kwilson/Projects/psaseclipse/olimex2378/liblpc23xx/lpc23xx-pll/lpc23xx-pll.c:34
    VICIntEnClr     = (unsigned) 0xFFFFFFFF;

    PLLFEED         = FEEDBYTE_A;
    1164:	e3e0c055 	mvn	ip, #85	; 0x55
pllstart_sixtymhz():
/home/kwilson/Projects/psaseclipse/olimex2378/liblpc23xx/lpc23xx-pll/lpc23xx-pll.c:118

    while(!PLOCK);

    SET_PLLC;
    pllfeed();
    pllstat.cclk_mhz = SIXTY_MHZ;
    1168:	e3a017e5 	mov	r1, #60030976	; 0x3940000
pllfeed():
/home/kwilson/Projects/psaseclipse/olimex2378/liblpc23xx/lpc23xx-pll/lpc23xx-pll.c:32
void pllfeed(void) {
    uint32_t        savedInterrupts;

    /* disable interrupts */
    savedInterrupts = VICIntEnable;
    VICIntEnClr     = (unsigned) 0xFFFFFFFF;
    116c:	e5033feb 	str	r3, [r3, #-4075]	; 0xfeb
pllstart_sixtymhz():
/home/kwilson/Projects/psaseclipse/olimex2378/liblpc23xx/lpc23xx-pll/lpc23xx-pll.c:118

    while(!PLOCK);

    SET_PLLC;
    pllfeed();
    pllstat.cclk_mhz = SIXTY_MHZ;
    1170:	e2411c79 	sub	r1, r1, #30976	; 0x7900
pllfeed():
/home/kwilson/Projects/psaseclipse/olimex2378/liblpc23xx/lpc23xx-pll/lpc23xx-pll.c:34

    /* disable interrupts */
    savedInterrupts = VICIntEnable;
    VICIntEnClr     = (unsigned) 0xFFFFFFFF;

    PLLFEED         = FEEDBYTE_A;
    1174:	e5c2c08c 	strb	ip, [r2, #140]	; 0x8c
/home/kwilson/Projects/psaseclipse/olimex2378/liblpc23xx/lpc23xx-pll/lpc23xx-pll.c:35
    PLLFEED         = FEEDBYTE_B;
    1178:	e3a0c055 	mov	ip, #85	; 0x55
    117c:	e5c2c08c 	strb	ip, [r2, #140]	; 0x8c
/home/kwilson/Projects/psaseclipse/olimex2378/liblpc23xx/lpc23xx-pll/lpc23xx-pll.c:38

    /* restore interrupts */
    VICIntEnable    = savedInterrupts;
    1180:	e5030fef 	str	r0, [r3, #-4079]	; 0xfef
pllstart_sixtymhz():
/home/kwilson/Projects/psaseclipse/olimex2378/liblpc23xx/lpc23xx-pll/lpc23xx-pll.c:118

    while(!PLOCK);

    SET_PLLC;
    pllfeed();
    pllstat.cclk_mhz = SIXTY_MHZ;
    1184:	e5841000 	str	r1, [r4]
/home/kwilson/Projects/psaseclipse/olimex2378/liblpc23xx/lpc23xx-pll/lpc23xx-pll.c:119
}
    1188:	e8bd8010 	pop	{r4, pc}
    118c:	4000025c 	.word	0x4000025c

00001190 <pllstart_fourtyeightmhz>:
pllstart_fourtyeightmhz():
/home/kwilson/Projects/psaseclipse/olimex2378/liblpc23xx/lpc23xx-pll/lpc23xx-pll.c:126
/*
 * pllstart_fourtyeightmhz
 * lpc23xx rev03 p60
 * Fcco = 480Mhz, M=20, N=1, Fin = 12Mhz
 */
void pllstart_fourtyeightmhz(void) {
    1190:	e92d4030 	push	{r4, r5, lr}
/home/kwilson/Projects/psaseclipse/olimex2378/liblpc23xx/lpc23xx-pll/lpc23xx-pll.c:127
    pllstat.cclk_mhz = ZERO;
    1194:	e59f40dc 	ldr	r4, [pc, #220]	; 1278 <pllstart_fourtyeightmhz+0xe8>
    1198:	e3a03000 	mov	r3, #0
    119c:	e5843000 	str	r3, [r4]
/home/kwilson/Projects/psaseclipse/olimex2378/liblpc23xx/lpc23xx-pll/lpc23xx-pll.c:129

    pllstop();
    11a0:	ebffff67 	bl	f44 <pllstop>
/home/kwilson/Projects/psaseclipse/olimex2378/liblpc23xx/lpc23xx-pll/lpc23xx-pll.c:131

    mainOSC_ENABLE;
    11a4:	e3a0120e 	mov	r1, #-536870912	; 0xe0000000
    11a8:	e281197f 	add	r1, r1, #2080768	; 0x1fc000
    11ac:	e59131a0 	ldr	r3, [r1, #416]	; 0x1a0
    11b0:	e3833020 	orr	r3, r3, #32
    11b4:	e58131a0 	str	r3, [r1, #416]	; 0x1a0
/home/kwilson/Projects/psaseclipse/olimex2378/liblpc23xx/lpc23xx-pll/lpc23xx-pll.c:132
    while (!mainOSC_READY);
    11b8:	e59121a0 	ldr	r2, [r1, #416]	; 0x1a0
    11bc:	e3a0320e 	mov	r3, #-536870912	; 0xe0000000
    11c0:	e3120040 	tst	r2, #64	; 0x40
    11c4:	e283397f 	add	r3, r3, #2080768	; 0x1fc000
    11c8:	0afffffa 	beq	11b8 <pllstart_fourtyeightmhz+0x28>
/home/kwilson/Projects/psaseclipse/olimex2378/liblpc23xx/lpc23xx-pll/lpc23xx-pll.c:134

    mainOSC_SELECT;
    11cc:	e3a02001 	mov	r2, #1
    11d0:	e583210c 	str	r2, [r3, #268]	; 0x10c
/home/kwilson/Projects/psaseclipse/olimex2378/liblpc23xx/lpc23xx-pll/lpc23xx-pll.c:136

    FCCO_FOUR_EIGHTY_MHZ;
    11d4:	e3a02013 	mov	r2, #19
    11d8:	e5832084 	str	r2, [r3, #132]	; 0x84
pllfeed():
/home/kwilson/Projects/psaseclipse/olimex2378/liblpc23xx/lpc23xx-pll/lpc23xx-pll.c:31
 */
void pllfeed(void) {
    uint32_t        savedInterrupts;

    /* disable interrupts */
    savedInterrupts = VICIntEnable;
    11dc:	e3e02000 	mvn	r2, #0
    11e0:	e5121fef 	ldr	r1, [r2, #-4079]	; 0xfef
/home/kwilson/Projects/psaseclipse/olimex2378/liblpc23xx/lpc23xx-pll/lpc23xx-pll.c:34
    VICIntEnClr     = (unsigned) 0xFFFFFFFF;

    PLLFEED         = FEEDBYTE_A;
    11e4:	e3e0c055 	mvn	ip, #85	; 0x55
/home/kwilson/Projects/psaseclipse/olimex2378/liblpc23xx/lpc23xx-pll/lpc23xx-pll.c:35
    PLLFEED         = FEEDBYTE_B;
    11e8:	e3a00055 	mov	r0, #85	; 0x55
/home/kwilson/Projects/psaseclipse/olimex2378/liblpc23xx/lpc23xx-pll/lpc23xx-pll.c:32
void pllfeed(void) {
    uint32_t        savedInterrupts;

    /* disable interrupts */
    savedInterrupts = VICIntEnable;
    VICIntEnClr     = (unsigned) 0xFFFFFFFF;
    11ec:	e5022feb 	str	r2, [r2, #-4075]	; 0xfeb
/home/kwilson/Projects/psaseclipse/olimex2378/liblpc23xx/lpc23xx-pll/lpc23xx-pll.c:34

    PLLFEED         = FEEDBYTE_A;
    11f0:	e5c3c08c 	strb	ip, [r3, #140]	; 0x8c
/home/kwilson/Projects/psaseclipse/olimex2378/liblpc23xx/lpc23xx-pll/lpc23xx-pll.c:35
    PLLFEED         = FEEDBYTE_B;
    11f4:	e5c3008c 	strb	r0, [r3, #140]	; 0x8c
/home/kwilson/Projects/psaseclipse/olimex2378/liblpc23xx/lpc23xx-pll/lpc23xx-pll.c:38

    /* restore interrupts */
    VICIntEnable    = savedInterrupts;
    11f8:	e5021fef 	str	r1, [r2, #-4079]	; 0xfef
pllstart_fourtyeightmhz():
/home/kwilson/Projects/psaseclipse/olimex2378/liblpc23xx/lpc23xx-pll/lpc23xx-pll.c:139
    mainOSC_SELECT;

    FCCO_FOUR_EIGHTY_MHZ;
    pllfeed();

    SET_PLLE;
    11fc:	e5d31080 	ldrb	r1, [r3, #128]	; 0x80
    1200:	e3811001 	orr	r1, r1, #1
    1204:	e5c31080 	strb	r1, [r3, #128]	; 0x80
pllfeed():
/home/kwilson/Projects/psaseclipse/olimex2378/liblpc23xx/lpc23xx-pll/lpc23xx-pll.c:31
 */
void pllfeed(void) {
    uint32_t        savedInterrupts;

    /* disable interrupts */
    savedInterrupts = VICIntEnable;
    1208:	e5125fef 	ldr	r5, [r2, #-4079]	; 0xfef
pllstart_fourtyeightmhz():
/home/kwilson/Projects/psaseclipse/olimex2378/liblpc23xx/lpc23xx-pll/lpc23xx-pll.c:142
    pllfeed();

    SET_PLLE;
    pllfeed();

    CCLK_IS_FCCODIV10;
    120c:	e3a01009 	mov	r1, #9
pllfeed():
/home/kwilson/Projects/psaseclipse/olimex2378/liblpc23xx/lpc23xx-pll/lpc23xx-pll.c:32
void pllfeed(void) {
    uint32_t        savedInterrupts;

    /* disable interrupts */
    savedInterrupts = VICIntEnable;
    VICIntEnClr     = (unsigned) 0xFFFFFFFF;
    1210:	e5022feb 	str	r2, [r2, #-4075]	; 0xfeb
/home/kwilson/Projects/psaseclipse/olimex2378/liblpc23xx/lpc23xx-pll/lpc23xx-pll.c:34

    PLLFEED         = FEEDBYTE_A;
    1214:	e5c3c08c 	strb	ip, [r3, #140]	; 0x8c
/home/kwilson/Projects/psaseclipse/olimex2378/liblpc23xx/lpc23xx-pll/lpc23xx-pll.c:35
    PLLFEED         = FEEDBYTE_B;
    1218:	e5c3008c 	strb	r0, [r3, #140]	; 0x8c
/home/kwilson/Projects/psaseclipse/olimex2378/liblpc23xx/lpc23xx-pll/lpc23xx-pll.c:38

    /* restore interrupts */
    VICIntEnable    = savedInterrupts;
    121c:	e5025fef 	str	r5, [r2, #-4079]	; 0xfef
pllstart_fourtyeightmhz():
/home/kwilson/Projects/psaseclipse/olimex2378/liblpc23xx/lpc23xx-pll/lpc23xx-pll.c:142
    pllfeed();

    SET_PLLE;
    pllfeed();

    CCLK_IS_FCCODIV10;
    1220:	e5831104 	str	r1, [r3, #260]	; 0x104
/home/kwilson/Projects/psaseclipse/olimex2378/liblpc23xx/lpc23xx-pll/lpc23xx-pll.c:143
    USB_IS_FCCODIV10;
    1224:	e5831108 	str	r1, [r3, #264]	; 0x108
/home/kwilson/Projects/psaseclipse/olimex2378/liblpc23xx/lpc23xx-pll/lpc23xx-pll.c:145

    while(!PLOCK);
    1228:	e5931088 	ldr	r1, [r3, #136]	; 0x88
    122c:	e3a0220e 	mov	r2, #-536870912	; 0xe0000000
    1230:	e3110301 	tst	r1, #67108864	; 0x4000000
    1234:	e282297f 	add	r2, r2, #2080768	; 0x1fc000
    1238:	0afffffa 	beq	1228 <pllstart_fourtyeightmhz+0x98>
/home/kwilson/Projects/psaseclipse/olimex2378/liblpc23xx/lpc23xx-pll/lpc23xx-pll.c:147

    SET_PLLC;
    123c:	e5d23080 	ldrb	r3, [r2, #128]	; 0x80
    1240:	e3833002 	orr	r3, r3, #2
    1244:	e5c23080 	strb	r3, [r2, #128]	; 0x80
pllfeed():
/home/kwilson/Projects/psaseclipse/olimex2378/liblpc23xx/lpc23xx-pll/lpc23xx-pll.c:31
 */
void pllfeed(void) {
    uint32_t        savedInterrupts;

    /* disable interrupts */
    savedInterrupts = VICIntEnable;
    1248:	e3e03000 	mvn	r3, #0
    124c:	e5130fef 	ldr	r0, [r3, #-4079]	; 0xfef
/home/kwilson/Projects/psaseclipse/olimex2378/liblpc23xx/lpc23xx-pll/lpc23xx-pll.c:34
    VICIntEnClr     = (unsigned) 0xFFFFFFFF;

    PLLFEED         = FEEDBYTE_A;
    1250:	e3e0c055 	mvn	ip, #85	; 0x55
pllstart_fourtyeightmhz():
/home/kwilson/Projects/psaseclipse/olimex2378/liblpc23xx/lpc23xx-pll/lpc23xx-pll.c:149

    while(!PLOCK);

    SET_PLLC;
    pllfeed();
    pllstat.cclk_mhz = FOURTY_EIGHT_MHZ;
    1254:	e3a017b7 	mov	r1, #47972352	; 0x2dc0000
pllfeed():
/home/kwilson/Projects/psaseclipse/olimex2378/liblpc23xx/lpc23xx-pll/lpc23xx-pll.c:32
void pllfeed(void) {
    uint32_t        savedInterrupts;

    /* disable interrupts */
    savedInterrupts = VICIntEnable;
    VICIntEnClr     = (unsigned) 0xFFFFFFFF;
    1258:	e5033feb 	str	r3, [r3, #-4075]	; 0xfeb
pllstart_fourtyeightmhz():
/home/kwilson/Projects/psaseclipse/olimex2378/liblpc23xx/lpc23xx-pll/lpc23xx-pll.c:149

    while(!PLOCK);

    SET_PLLC;
    pllfeed();
    pllstat.cclk_mhz = FOURTY_EIGHT_MHZ;
    125c:	e2811b1b 	add	r1, r1, #27648	; 0x6c00
pllfeed():
/home/kwilson/Projects/psaseclipse/olimex2378/liblpc23xx/lpc23xx-pll/lpc23xx-pll.c:34

    /* disable interrupts */
    savedInterrupts = VICIntEnable;
    VICIntEnClr     = (unsigned) 0xFFFFFFFF;

    PLLFEED         = FEEDBYTE_A;
    1260:	e5c2c08c 	strb	ip, [r2, #140]	; 0x8c
/home/kwilson/Projects/psaseclipse/olimex2378/liblpc23xx/lpc23xx-pll/lpc23xx-pll.c:35
    PLLFEED         = FEEDBYTE_B;
    1264:	e3a0c055 	mov	ip, #85	; 0x55
    1268:	e5c2c08c 	strb	ip, [r2, #140]	; 0x8c
/home/kwilson/Projects/psaseclipse/olimex2378/liblpc23xx/lpc23xx-pll/lpc23xx-pll.c:38

    /* restore interrupts */
    VICIntEnable    = savedInterrupts;
    126c:	e5030fef 	str	r0, [r3, #-4079]	; 0xfef
pllstart_fourtyeightmhz():
/home/kwilson/Projects/psaseclipse/olimex2378/liblpc23xx/lpc23xx-pll/lpc23xx-pll.c:149

    while(!PLOCK);

    SET_PLLC;
    pllfeed();
    pllstat.cclk_mhz = FOURTY_EIGHT_MHZ;
    1270:	e5841000 	str	r1, [r4]
/home/kwilson/Projects/psaseclipse/olimex2378/liblpc23xx/lpc23xx-pll/lpc23xx-pll.c:150
}
    1274:	e8bd8030 	pop	{r4, r5, pc}
    1278:	4000025c 	.word	0x4000025c

0000127c <uart0_query_baud>:
uart0_query_baud():
/home/kwilson/Projects/psaseclipse/olimex2378/liblpc23xx/lpc23xx-uart/lpc23xx-uart.c:19

/*
 * uart0_query_baud
 */
Baud uart0_query_baud(void) {
    return(uart0stat.baudrate);
    127c:	e59f3004 	ldr	r3, [pc, #4]	; 1288 <uart0_query_baud+0xc>
/home/kwilson/Projects/psaseclipse/olimex2378/liblpc23xx/lpc23xx-uart/lpc23xx-uart.c:20
}
    1280:	e5930000 	ldr	r0, [r3]
    1284:	e12fff1e 	bx	lr
    1288:	40000260 	.word	0x40000260

0000128c <uart0_query_charlength>:
uart0_query_charlength():
/home/kwilson/Projects/psaseclipse/olimex2378/liblpc23xx/lpc23xx-uart/lpc23xx-uart.c:26

/*
 * uart0_query_charlength
 */
uint8_t uart0_query_charlength(void) {
    return(uart0stat.charlength);
    128c:	e59f3004 	ldr	r3, [pc, #4]	; 1298 <uart0_query_charlength+0xc>
/home/kwilson/Projects/psaseclipse/olimex2378/liblpc23xx/lpc23xx-uart/lpc23xx-uart.c:27
}
    1290:	e5d30004 	ldrb	r0, [r3, #4]
    1294:	e12fff1e 	bx	lr
    1298:	40000260 	.word	0x40000260

0000129c <uart0_query_stopbits>:
uart0_query_stopbits():
/home/kwilson/Projects/psaseclipse/olimex2378/liblpc23xx/lpc23xx-uart/lpc23xx-uart.c:33

/*
 * uart0_query_stopbits
 */
uint8_t uart0_query_stopbits(void) {
    return(uart0stat.stopbits);
    129c:	e59f3004 	ldr	r3, [pc, #4]	; 12a8 <uart0_query_stopbits+0xc>
/home/kwilson/Projects/psaseclipse/olimex2378/liblpc23xx/lpc23xx-uart/lpc23xx-uart.c:34
}
    12a0:	e5d30005 	ldrb	r0, [r3, #5]
    12a4:	e12fff1e 	bx	lr
    12a8:	40000260 	.word	0x40000260

000012ac <uart0_init_9600>:
uart0_init_9600():
/home/kwilson/Projects/psaseclipse/olimex2378/liblpc23xx/lpc23xx-uart/lpc23xx-uart.c:47
    Freq     cclk;

    uart0stat.baudrate = ZERO_H_B;

    // Enable GPIO for TXD/RXD
    SET_RXD0_TXD0;
    12ac:	e3a0220e 	mov	r2, #-536870912	; 0xe0000000
    12b0:	e282290b 	add	r2, r2, #180224	; 0x2c000
    12b4:	e5921000 	ldr	r1, [r2]
/home/kwilson/Projects/psaseclipse/olimex2378/liblpc23xx/lpc23xx-uart/lpc23xx-uart.c:40

/*
 * uart_0_init_9600
 * initialize uart0
 */
void uart0_init_9600(void) {
    12b8:	e92d4070 	push	{r4, r5, r6, lr}
/home/kwilson/Projects/psaseclipse/olimex2378/liblpc23xx/lpc23xx-uart/lpc23xx-uart.c:47
    Freq     cclk;

    uart0stat.baudrate = ZERO_H_B;

    // Enable GPIO for TXD/RXD
    SET_RXD0_TXD0;
    12bc:	e3c110f0 	bic	r1, r1, #240	; 0xf0
/home/kwilson/Projects/psaseclipse/olimex2378/liblpc23xx/lpc23xx-uart/lpc23xx-uart.c:44
 */
void uart0_init_9600(void) {

    Freq     cclk;

    uart0stat.baudrate = ZERO_H_B;
    12c0:	e59f50f8 	ldr	r5, [pc, #248]	; 13c0 <uart0_init_9600+0x114>
/home/kwilson/Projects/psaseclipse/olimex2378/liblpc23xx/lpc23xx-uart/lpc23xx-uart.c:47

    // Enable GPIO for TXD/RXD
    SET_RXD0_TXD0;
    12c4:	e3811050 	orr	r1, r1, #80	; 0x50
/home/kwilson/Projects/psaseclipse/olimex2378/liblpc23xx/lpc23xx-uart/lpc23xx-uart.c:44
 */
void uart0_init_9600(void) {

    Freq     cclk;

    uart0stat.baudrate = ZERO_H_B;
    12c8:	e3a06000 	mov	r6, #0
    12cc:	e5856000 	str	r6, [r5]
/home/kwilson/Projects/psaseclipse/olimex2378/liblpc23xx/lpc23xx-uart/lpc23xx-uart.c:50

    // Enable GPIO for TXD/RXD
    SET_RXD0_TXD0;

    // turn on power.
    POWER_ON_UART0;
    12d0:	e3a0320e 	mov	r3, #-536870912	; 0xe0000000
/home/kwilson/Projects/psaseclipse/olimex2378/liblpc23xx/lpc23xx-uart/lpc23xx-uart.c:47
    Freq     cclk;

    uart0stat.baudrate = ZERO_H_B;

    // Enable GPIO for TXD/RXD
    SET_RXD0_TXD0;
    12d4:	e5821000 	str	r1, [r2]
/home/kwilson/Projects/psaseclipse/olimex2378/liblpc23xx/lpc23xx-uart/lpc23xx-uart.c:50

    // turn on power.
    POWER_ON_UART0;
    12d8:	e283397f 	add	r3, r3, #2080768	; 0x1fc000
    12dc:	e59320c4 	ldr	r2, [r3, #196]	; 0xc4
    12e0:	e3822008 	orr	r2, r2, #8
    12e4:	e58320c4 	str	r2, [r3, #196]	; 0xc4
/home/kwilson/Projects/psaseclipse/olimex2378/liblpc23xx/lpc23xx-uart/lpc23xx-uart.c:53

    // divide cclk by one
    PCLKSEL0_UART0_DIV1;
    12e8:	e59321a8 	ldr	r2, [r3, #424]	; 0x1a8
    12ec:	e3c22d11 	bic	r2, r2, #1088	; 0x440
    12f0:	e3822040 	orr	r2, r2, #64	; 0x40
    12f4:	e58321a8 	str	r2, [r3, #424]	; 0x1a8
/home/kwilson/Projects/psaseclipse/olimex2378/liblpc23xx/lpc23xx-uart/lpc23xx-uart.c:56

    // enable divisor latch access
    SET_DLAB0;
    12f8:	e3a0420e 	mov	r4, #-536870912	; 0xe0000000
    12fc:	e2844903 	add	r4, r4, #49152	; 0xc000
    1300:	e5d4300c 	ldrb	r3, [r4, #12]
    1304:	e3833080 	orr	r3, r3, #128	; 0x80
    1308:	e5c4300c 	strb	r3, [r4, #12]
/home/kwilson/Projects/psaseclipse/olimex2378/liblpc23xx/lpc23xx-uart/lpc23xx-uart.c:58

    cclk = pllquery_cclk_mhz();
    130c:	ebfffefd 	bl	f08 <pllquery_cclk_mhz>
/home/kwilson/Projects/psaseclipse/olimex2378/liblpc23xx/lpc23xx-uart/lpc23xx-uart.c:60

    switch(cclk) {
    1310:	e3a037e5 	mov	r3, #60030976	; 0x3940000
    1314:	e2433c79 	sub	r3, r3, #30976	; 0x7900
    1318:	e1500003 	cmp	r0, r3
    131c:	0a000025 	beq	13b8 <uart0_init_9600+0x10c>
    1320:	e3a03511 	mov	r3, #71303168	; 0x4400000
    1324:	e2833aaa 	add	r3, r3, #696320	; 0xaa000
    1328:	e2833c02 	add	r3, r3, #512	; 0x200
    132c:	e1500003 	cmp	r0, r3
    1330:	0a000019 	beq	139c <uart0_init_9600+0xf0>
    1334:	e3a037b7 	mov	r3, #47972352	; 0x2dc0000
    1338:	e2833b1b 	add	r3, r3, #27648	; 0x6c00
    133c:	e1500003 	cmp	r0, r3
    1340:	0a000000 	beq	1348 <uart0_init_9600+0x9c>
    1344:	eafffffe 	b	1344 <uart0_init_9600+0x98>
/home/kwilson/Projects/psaseclipse/olimex2378/liblpc23xx/lpc23xx-uart/lpc23xx-uart.c:62
        case FOURTY_EIGHT_MHZ:
            U0DLL = 208;
    1348:	e3e0302f 	mvn	r3, #47	; 0x2f
    134c:	e5c43000 	strb	r3, [r4]
/home/kwilson/Projects/psaseclipse/olimex2378/liblpc23xx/lpc23xx-uart/lpc23xx-uart.c:64
            U0DLM = 0;
            U0FDR = (2<<4) | 1; // MULVAL = 2, DIVADD = 1;
    1350:	e2833051 	add	r3, r3, #81	; 0x51
/home/kwilson/Projects/psaseclipse/olimex2378/liblpc23xx/lpc23xx-uart/lpc23xx-uart.c:63
    cclk = pllquery_cclk_mhz();

    switch(cclk) {
        case FOURTY_EIGHT_MHZ:
            U0DLL = 208;
            U0DLM = 0;
    1354:	e5c46004 	strb	r6, [r4, #4]
/home/kwilson/Projects/psaseclipse/olimex2378/liblpc23xx/lpc23xx-uart/lpc23xx-uart.c:64
            U0FDR = (2<<4) | 1; // MULVAL = 2, DIVADD = 1;
    1358:	e5c43028 	strb	r3, [r4, #40]	; 0x28
/home/kwilson/Projects/psaseclipse/olimex2378/liblpc23xx/lpc23xx-uart/lpc23xx-uart.c:81
        default:
            while(1);
            break;
    }
    // enable interrupt
    UART0_FCR_ONE_CHAR_EN;
    135c:	e3a0320e 	mov	r3, #-536870912	; 0xe0000000
    1360:	e2833903 	add	r3, r3, #49152	; 0xc000
    1364:	e3a02007 	mov	r2, #7
    1368:	e5c32008 	strb	r2, [r3, #8]
/home/kwilson/Projects/psaseclipse/olimex2378/liblpc23xx/lpc23xx-uart/lpc23xx-uart.c:84

    // set parameters
    UART0_8N1;
    136c:	e3a02003 	mov	r2, #3
    1370:	e5c3200c 	strb	r2, [r3, #12]
/home/kwilson/Projects/psaseclipse/olimex2378/liblpc23xx/lpc23xx-uart/lpc23xx-uart.c:86

    uart0stat.charlength = 8;
    1374:	e2822005 	add	r2, r2, #5
    1378:	e5c52004 	strb	r2, [r5, #4]
/home/kwilson/Projects/psaseclipse/olimex2378/liblpc23xx/lpc23xx-uart/lpc23xx-uart.c:87
    uart0stat.stopbits   = 1;
    137c:	e3a02001 	mov	r2, #1
    1380:	e5c52005 	strb	r2, [r5, #5]
/home/kwilson/Projects/psaseclipse/olimex2378/liblpc23xx/lpc23xx-uart/lpc23xx-uart.c:89

    CLEAR_DLAB0;
    1384:	e5d3200c 	ldrb	r2, [r3, #12]
    1388:	e202207f 	and	r2, r2, #127	; 0x7f
    138c:	e5c3200c 	strb	r2, [r3, #12]
/home/kwilson/Projects/psaseclipse/olimex2378/liblpc23xx/lpc23xx-uart/lpc23xx-uart.c:91

    uart0stat.baudrate = NINETY_SIX_H_B;
    1390:	e3a03d96 	mov	r3, #9600	; 0x2580
    1394:	e5853000 	str	r3, [r5]
/home/kwilson/Projects/psaseclipse/olimex2378/liblpc23xx/lpc23xx-uart/lpc23xx-uart.c:93

}
    1398:	e8bd8070 	pop	{r4, r5, r6, pc}
/home/kwilson/Projects/psaseclipse/olimex2378/liblpc23xx/lpc23xx-uart/lpc23xx-uart.c:72
            U0DLL = 4;
            U0DLM = 1;
            U0FDR = (2<<4) | 1; // MULVAL = 2, DIVADD = 1;
            break;
        case SEVENTY_TWO_MHZ:
            U0DLL = 56;
    139c:	e3a03038 	mov	r3, #56	; 0x38
    13a0:	e5c43000 	strb	r3, [r4]
/home/kwilson/Projects/psaseclipse/olimex2378/liblpc23xx/lpc23xx-uart/lpc23xx-uart.c:73
            U0DLM = 1;
    13a4:	e3a03001 	mov	r3, #1
    13a8:	e5c43004 	strb	r3, [r4, #4]
/home/kwilson/Projects/psaseclipse/olimex2378/liblpc23xx/lpc23xx-uart/lpc23xx-uart.c:74
            U0FDR = (2<<4) | 1; // MULVAL = 2, DIVADD = 1;
    13ac:	e2833020 	add	r3, r3, #32
    13b0:	e5c43028 	strb	r3, [r4, #40]	; 0x28
/home/kwilson/Projects/psaseclipse/olimex2378/liblpc23xx/lpc23xx-uart/lpc23xx-uart.c:75
            break;
    13b4:	eaffffe8 	b	135c <uart0_init_9600+0xb0>
/home/kwilson/Projects/psaseclipse/olimex2378/liblpc23xx/lpc23xx-uart/lpc23xx-uart.c:67
            U0DLL = 208;
            U0DLM = 0;
            U0FDR = (2<<4) | 1; // MULVAL = 2, DIVADD = 1;
            break;
        case SIXTY_MHZ:
            U0DLL = 4;
    13b8:	e3a03004 	mov	r3, #4
    13bc:	eafffff7 	b	13a0 <uart0_init_9600+0xf4>
    13c0:	40000260 	.word	0x40000260

000013c4 <uart0_init_115200>:
uart0_init_115200():
/home/kwilson/Projects/psaseclipse/olimex2378/liblpc23xx/lpc23xx-uart/lpc23xx-uart.c:107
    Freq     cclk;

    uart0stat.baudrate = ZERO_H_B;

    // Enable GPIO for TXD/RXD
    SET_RXD0_TXD0;
    13c4:	e3a0220e 	mov	r2, #-536870912	; 0xe0000000
    13c8:	e282290b 	add	r2, r2, #180224	; 0x2c000
    13cc:	e5921000 	ldr	r1, [r2]
/home/kwilson/Projects/psaseclipse/olimex2378/liblpc23xx/lpc23xx-uart/lpc23xx-uart.c:100

/*
 * uart_0_init_115200
 * initialize uart0
 */
void uart0_init_115200(void) {
    13d0:	e92d4070 	push	{r4, r5, r6, lr}
/home/kwilson/Projects/psaseclipse/olimex2378/liblpc23xx/lpc23xx-uart/lpc23xx-uart.c:107
    Freq     cclk;

    uart0stat.baudrate = ZERO_H_B;

    // Enable GPIO for TXD/RXD
    SET_RXD0_TXD0;
    13d4:	e3c110f0 	bic	r1, r1, #240	; 0xf0
/home/kwilson/Projects/psaseclipse/olimex2378/liblpc23xx/lpc23xx-uart/lpc23xx-uart.c:104
 */
void uart0_init_115200(void) {

    Freq     cclk;

    uart0stat.baudrate = ZERO_H_B;
    13d8:	e59f5108 	ldr	r5, [pc, #264]	; 14e8 <uart0_init_115200+0x124>
/home/kwilson/Projects/psaseclipse/olimex2378/liblpc23xx/lpc23xx-uart/lpc23xx-uart.c:107

    // Enable GPIO for TXD/RXD
    SET_RXD0_TXD0;
    13dc:	e3811050 	orr	r1, r1, #80	; 0x50
/home/kwilson/Projects/psaseclipse/olimex2378/liblpc23xx/lpc23xx-uart/lpc23xx-uart.c:104
 */
void uart0_init_115200(void) {

    Freq     cclk;

    uart0stat.baudrate = ZERO_H_B;
    13e0:	e3a06000 	mov	r6, #0
    13e4:	e5856000 	str	r6, [r5]
/home/kwilson/Projects/psaseclipse/olimex2378/liblpc23xx/lpc23xx-uart/lpc23xx-uart.c:110

    // Enable GPIO for TXD/RXD
    SET_RXD0_TXD0;

    // turn on power.
    POWER_ON_UART0;
    13e8:	e3a0320e 	mov	r3, #-536870912	; 0xe0000000
/home/kwilson/Projects/psaseclipse/olimex2378/liblpc23xx/lpc23xx-uart/lpc23xx-uart.c:107
    Freq     cclk;

    uart0stat.baudrate = ZERO_H_B;

    // Enable GPIO for TXD/RXD
    SET_RXD0_TXD0;
    13ec:	e5821000 	str	r1, [r2]
/home/kwilson/Projects/psaseclipse/olimex2378/liblpc23xx/lpc23xx-uart/lpc23xx-uart.c:110

    // turn on power.
    POWER_ON_UART0;
    13f0:	e283397f 	add	r3, r3, #2080768	; 0x1fc000
    13f4:	e59320c4 	ldr	r2, [r3, #196]	; 0xc4
    13f8:	e3822008 	orr	r2, r2, #8
    13fc:	e58320c4 	str	r2, [r3, #196]	; 0xc4
/home/kwilson/Projects/psaseclipse/olimex2378/liblpc23xx/lpc23xx-uart/lpc23xx-uart.c:113

    // divide cclk by one
    PCLKSEL0_UART0_DIV1;
    1400:	e59321a8 	ldr	r2, [r3, #424]	; 0x1a8
    1404:	e3c22d11 	bic	r2, r2, #1088	; 0x440
    1408:	e3822040 	orr	r2, r2, #64	; 0x40
    140c:	e58321a8 	str	r2, [r3, #424]	; 0x1a8
/home/kwilson/Projects/psaseclipse/olimex2378/liblpc23xx/lpc23xx-uart/lpc23xx-uart.c:116

    // enable divisor latch access
    SET_DLAB0;
    1410:	e3a0420e 	mov	r4, #-536870912	; 0xe0000000
    1414:	e2844903 	add	r4, r4, #49152	; 0xc000
    1418:	e5d4300c 	ldrb	r3, [r4, #12]
    141c:	e3833080 	orr	r3, r3, #128	; 0x80
    1420:	e5c4300c 	strb	r3, [r4, #12]
/home/kwilson/Projects/psaseclipse/olimex2378/liblpc23xx/lpc23xx-uart/lpc23xx-uart.c:118

    cclk = pllquery_cclk_mhz();
    1424:	ebfffeb7 	bl	f08 <pllquery_cclk_mhz>
/home/kwilson/Projects/psaseclipse/olimex2378/liblpc23xx/lpc23xx-uart/lpc23xx-uart.c:120

    switch(cclk) {
    1428:	e3a037e5 	mov	r3, #60030976	; 0x3940000
    142c:	e2433c79 	sub	r3, r3, #30976	; 0x7900
    1430:	e1500003 	cmp	r0, r3
    1434:	0a000025 	beq	14d0 <uart0_init_115200+0x10c>
    1438:	e3a03511 	mov	r3, #71303168	; 0x4400000
    143c:	e2833aaa 	add	r3, r3, #696320	; 0xaa000
    1440:	e2833c02 	add	r3, r3, #512	; 0x200
    1444:	e1500003 	cmp	r0, r3
    1448:	0a00001a 	beq	14b8 <uart0_init_115200+0xf4>
    144c:	e3a037b7 	mov	r3, #47972352	; 0x2dc0000
    1450:	e2833b1b 	add	r3, r3, #27648	; 0x6c00
    1454:	e1500003 	cmp	r0, r3
    1458:	0a000000 	beq	1460 <uart0_init_115200+0x9c>
    145c:	eafffffe 	b	145c <uart0_init_115200+0x98>
/home/kwilson/Projects/psaseclipse/olimex2378/liblpc23xx/lpc23xx-uart/lpc23xx-uart.c:122
        case FOURTY_EIGHT_MHZ:
            U0DLL = 17;
    1460:	e3a03011 	mov	r3, #17
    1464:	e5c43000 	strb	r3, [r4]
/home/kwilson/Projects/psaseclipse/olimex2378/liblpc23xx/lpc23xx-uart/lpc23xx-uart.c:124
            U0DLM = 0;
            U0FDR = (15<<4) | 8; // MULVAL = 15, DIVADD = 8;
    1468:	e3e03007 	mvn	r3, #7
/home/kwilson/Projects/psaseclipse/olimex2378/liblpc23xx/lpc23xx-uart/lpc23xx-uart.c:123
    cclk = pllquery_cclk_mhz();

    switch(cclk) {
        case FOURTY_EIGHT_MHZ:
            U0DLL = 17;
            U0DLM = 0;
    146c:	e5c46004 	strb	r6, [r4, #4]
/home/kwilson/Projects/psaseclipse/olimex2378/liblpc23xx/lpc23xx-uart/lpc23xx-uart.c:124
            U0FDR = (15<<4) | 8; // MULVAL = 15, DIVADD = 8;
    1470:	e5c43028 	strb	r3, [r4, #40]	; 0x28
/home/kwilson/Projects/psaseclipse/olimex2378/liblpc23xx/lpc23xx-uart/lpc23xx-uart.c:141
        default:
            while(1);
            break;
    }
    // enable interrupt
    UART0_FCR_ONE_CHAR_EN;
    1474:	e3a0320e 	mov	r3, #-536870912	; 0xe0000000
    1478:	e2833903 	add	r3, r3, #49152	; 0xc000
    147c:	e3a02007 	mov	r2, #7
    1480:	e5c32008 	strb	r2, [r3, #8]
/home/kwilson/Projects/psaseclipse/olimex2378/liblpc23xx/lpc23xx-uart/lpc23xx-uart.c:144

    // set parameters
    UART0_8N1;
    1484:	e3a02003 	mov	r2, #3
    1488:	e5c3200c 	strb	r2, [r3, #12]
/home/kwilson/Projects/psaseclipse/olimex2378/liblpc23xx/lpc23xx-uart/lpc23xx-uart.c:146

    uart0stat.charlength = 8;
    148c:	e2822005 	add	r2, r2, #5
    1490:	e5c52004 	strb	r2, [r5, #4]
/home/kwilson/Projects/psaseclipse/olimex2378/liblpc23xx/lpc23xx-uart/lpc23xx-uart.c:147
    uart0stat.stopbits   = 1;
    1494:	e3a02001 	mov	r2, #1
    1498:	e5c52005 	strb	r2, [r5, #5]
/home/kwilson/Projects/psaseclipse/olimex2378/liblpc23xx/lpc23xx-uart/lpc23xx-uart.c:149

    CLEAR_DLAB0;
    149c:	e5d3100c 	ldrb	r1, [r3, #12]
/home/kwilson/Projects/psaseclipse/olimex2378/liblpc23xx/lpc23xx-uart/lpc23xx-uart.c:152


    uart0stat.baudrate = ONE_FIFTEEN_TWO_H_B;
    14a0:	e3a02907 	mov	r2, #114688	; 0x1c000
/home/kwilson/Projects/psaseclipse/olimex2378/liblpc23xx/lpc23xx-uart/lpc23xx-uart.c:149
    UART0_8N1;

    uart0stat.charlength = 8;
    uart0stat.stopbits   = 1;

    CLEAR_DLAB0;
    14a4:	e201107f 	and	r1, r1, #127	; 0x7f
/home/kwilson/Projects/psaseclipse/olimex2378/liblpc23xx/lpc23xx-uart/lpc23xx-uart.c:152


    uart0stat.baudrate = ONE_FIFTEEN_TWO_H_B;
    14a8:	e2822c02 	add	r2, r2, #512	; 0x200
/home/kwilson/Projects/psaseclipse/olimex2378/liblpc23xx/lpc23xx-uart/lpc23xx-uart.c:149
    UART0_8N1;

    uart0stat.charlength = 8;
    uart0stat.stopbits   = 1;

    CLEAR_DLAB0;
    14ac:	e5c3100c 	strb	r1, [r3, #12]
/home/kwilson/Projects/psaseclipse/olimex2378/liblpc23xx/lpc23xx-uart/lpc23xx-uart.c:152


    uart0stat.baudrate = ONE_FIFTEEN_TWO_H_B;
    14b0:	e5852000 	str	r2, [r5]
/home/kwilson/Projects/psaseclipse/olimex2378/liblpc23xx/lpc23xx-uart/lpc23xx-uart.c:154

}
    14b4:	e8bd8070 	pop	{r4, r5, r6, pc}
/home/kwilson/Projects/psaseclipse/olimex2378/liblpc23xx/lpc23xx-uart/lpc23xx-uart.c:132
            U0DLL = 21;
            U0DLM = 0;
            U0FDR = (11<<4) | 6; // MULVAL = 11, DIVADD = 6;
            break;
        case SEVENTY_TWO_MHZ:
            U0DLL = 26;
    14b8:	e3a0301a 	mov	r3, #26
    14bc:	e5c43000 	strb	r3, [r4]
/home/kwilson/Projects/psaseclipse/olimex2378/liblpc23xx/lpc23xx-uart/lpc23xx-uart.c:134
            U0DLM = 0;
            U0FDR = (2<<4) | 1; // MULVAL = 11, DIVADD = 6;
    14c0:	e2833007 	add	r3, r3, #7
/home/kwilson/Projects/psaseclipse/olimex2378/liblpc23xx/lpc23xx-uart/lpc23xx-uart.c:133
            U0DLM = 0;
            U0FDR = (11<<4) | 6; // MULVAL = 11, DIVADD = 6;
            break;
        case SEVENTY_TWO_MHZ:
            U0DLL = 26;
            U0DLM = 0;
    14c4:	e5c46004 	strb	r6, [r4, #4]
/home/kwilson/Projects/psaseclipse/olimex2378/liblpc23xx/lpc23xx-uart/lpc23xx-uart.c:134
            U0FDR = (2<<4) | 1; // MULVAL = 11, DIVADD = 6;
    14c8:	e5c43028 	strb	r3, [r4, #40]	; 0x28
/home/kwilson/Projects/psaseclipse/olimex2378/liblpc23xx/lpc23xx-uart/lpc23xx-uart.c:135
            break;
    14cc:	eaffffe8 	b	1474 <uart0_init_115200+0xb0>
/home/kwilson/Projects/psaseclipse/olimex2378/liblpc23xx/lpc23xx-uart/lpc23xx-uart.c:127
            U0DLL = 17;
            U0DLM = 0;
            U0FDR = (15<<4) | 8; // MULVAL = 15, DIVADD = 8;
            break;
        case SIXTY_MHZ:
            U0DLL = 21;
    14d0:	e3a03015 	mov	r3, #21
    14d4:	e5c43000 	strb	r3, [r4]
/home/kwilson/Projects/psaseclipse/olimex2378/liblpc23xx/lpc23xx-uart/lpc23xx-uart.c:129
            U0DLM = 0;
            U0FDR = (11<<4) | 6; // MULVAL = 11, DIVADD = 6;
    14d8:	e3e03049 	mvn	r3, #73	; 0x49
/home/kwilson/Projects/psaseclipse/olimex2378/liblpc23xx/lpc23xx-uart/lpc23xx-uart.c:128
            U0DLM = 0;
            U0FDR = (15<<4) | 8; // MULVAL = 15, DIVADD = 8;
            break;
        case SIXTY_MHZ:
            U0DLL = 21;
            U0DLM = 0;
    14dc:	e5c46004 	strb	r6, [r4, #4]
/home/kwilson/Projects/psaseclipse/olimex2378/liblpc23xx/lpc23xx-uart/lpc23xx-uart.c:129
            U0FDR = (11<<4) | 6; // MULVAL = 11, DIVADD = 6;
    14e0:	e5c43028 	strb	r3, [r4, #40]	; 0x28
/home/kwilson/Projects/psaseclipse/olimex2378/liblpc23xx/lpc23xx-uart/lpc23xx-uart.c:130
            break;
    14e4:	eaffffe2 	b	1474 <uart0_init_115200+0xb0>
    14e8:	40000260 	.word	0x40000260

000014ec <uart0_putchar>:
uart0_putchar():
/home/kwilson/Projects/psaseclipse/olimex2378/liblpc23xx/lpc23xx-uart/lpc23xx-uart.c:159
}

/*
 * uart0_putchar
 */
void uart0_putchar(int8_t ch) {
    14ec:	e1a00c00 	lsl	r0, r0, #24
    14f0:	e1a00c40 	asr	r0, r0, #24
/home/kwilson/Projects/psaseclipse/olimex2378/liblpc23xx/lpc23xx-uart/lpc23xx-uart.c:160
    if (ch == '\n') {
    14f4:	e350000a 	cmp	r0, #10
    14f8:	0a000009 	beq	1524 <uart0_putchar+0x38>
/home/kwilson/Projects/psaseclipse/olimex2378/liblpc23xx/lpc23xx-uart/lpc23xx-uart.c:164
        while (!(U0THR_EMPTY));
        U0THR = '\r';
    }
    while (!(U0THR_EMPTY));
    14fc:	e3a0120e 	mov	r1, #-536870912	; 0xe0000000
    1500:	e2811903 	add	r1, r1, #49152	; 0xc000
    1504:	e5d12014 	ldrb	r2, [r1, #20]
    1508:	e3a0320e 	mov	r3, #-536870912	; 0xe0000000
    150c:	e3120020 	tst	r2, #32
    1510:	e2833903 	add	r3, r3, #49152	; 0xc000
    1514:	0afffffa 	beq	1504 <uart0_putchar+0x18>
/home/kwilson/Projects/psaseclipse/olimex2378/liblpc23xx/lpc23xx-uart/lpc23xx-uart.c:165
    U0THR = ch;
    1518:	e20000ff 	and	r0, r0, #255	; 0xff
    151c:	e5c30000 	strb	r0, [r3]
/home/kwilson/Projects/psaseclipse/olimex2378/liblpc23xx/lpc23xx-uart/lpc23xx-uart.c:166
}
    1520:	e12fff1e 	bx	lr
/home/kwilson/Projects/psaseclipse/olimex2378/liblpc23xx/lpc23xx-uart/lpc23xx-uart.c:161
/*
 * uart0_putchar
 */
void uart0_putchar(int8_t ch) {
    if (ch == '\n') {
        while (!(U0THR_EMPTY));
    1524:	e3a0120e 	mov	r1, #-536870912	; 0xe0000000
    1528:	e2811903 	add	r1, r1, #49152	; 0xc000
    152c:	e5d12014 	ldrb	r2, [r1, #20]
    1530:	e3a0320e 	mov	r3, #-536870912	; 0xe0000000
    1534:	e3120020 	tst	r2, #32
    1538:	e2833903 	add	r3, r3, #49152	; 0xc000
    153c:	0afffffa 	beq	152c <uart0_putchar+0x40>
/home/kwilson/Projects/psaseclipse/olimex2378/liblpc23xx/lpc23xx-uart/lpc23xx-uart.c:162
        U0THR = '\r';
    1540:	e3a0200d 	mov	r2, #13
    1544:	e5c32000 	strb	r2, [r3]
    1548:	eaffffeb 	b	14fc <uart0_putchar+0x10>

0000154c <uart0_putstring>:
uart0_putstring():
/home/kwilson/Projects/psaseclipse/olimex2378/liblpc23xx/lpc23xx-uart/lpc23xx-uart.c:176
 * -------------------------------------
 * put a string to the serial port
 *
 * Assumes null termination of string.
 */
void uart0_putstring(const char *s) {
    154c:	e92d4010 	push	{r4, lr}
/home/kwilson/Projects/psaseclipse/olimex2378/liblpc23xx/lpc23xx-uart/lpc23xx-uart.c:178

    while(*s ) {
    1550:	e5d03000 	ldrb	r3, [r0]
    1554:	e3530000 	cmp	r3, #0
    1558:	08bd8010 	popeq	{r4, pc}
    155c:	e1a04000 	mov	r4, r0
/home/kwilson/Projects/psaseclipse/olimex2378/liblpc23xx/lpc23xx-uart/lpc23xx-uart.c:179
        uart0_putchar(*s++); // put the char
    1560:	e1a03c03 	lsl	r3, r3, #24
    1564:	e1a00c43 	asr	r0, r3, #24
    1568:	ebffffdf 	bl	14ec <uart0_putchar>
/home/kwilson/Projects/psaseclipse/olimex2378/liblpc23xx/lpc23xx-uart/lpc23xx-uart.c:178
 *
 * Assumes null termination of string.
 */
void uart0_putstring(const char *s) {

    while(*s ) {
    156c:	e5f43001 	ldrb	r3, [r4, #1]!
    1570:	e3530000 	cmp	r3, #0
    1574:	1afffff9 	bne	1560 <uart0_putstring+0x14>
    1578:	e8bd8010 	pop	{r4, pc}

0000157c <uart0_getchar>:
uart0_getchar():
/home/kwilson/Projects/psaseclipse/olimex2378/liblpc23xx/lpc23xx-uart/lpc23xx-uart.c:189
/*
 * uart0_getchar
 */
int8_t uart0_getchar (void)  {

    while (!U0RDR_READY);
    157c:	e3a0120e 	mov	r1, #-536870912	; 0xe0000000
    1580:	e2811903 	add	r1, r1, #49152	; 0xc000
    1584:	e5d12014 	ldrb	r2, [r1, #20]
    1588:	e3a0320e 	mov	r3, #-536870912	; 0xe0000000
    158c:	e3120001 	tst	r2, #1
    1590:	e2833903 	add	r3, r3, #49152	; 0xc000
    1594:	0afffffa 	beq	1584 <uart0_getchar+0x8>
/home/kwilson/Projects/psaseclipse/olimex2378/liblpc23xx/lpc23xx-uart/lpc23xx-uart.c:191

    return (U0RBR);
    1598:	e5d30000 	ldrb	r0, [r3]
    159c:	e1a00c00 	lsl	r0, r0, #24
/home/kwilson/Projects/psaseclipse/olimex2378/liblpc23xx/lpc23xx-uart/lpc23xx-uart.c:192
}
    15a0:	e1a00c40 	asr	r0, r0, #24
    15a4:	e12fff1e 	bx	lr

000015a8 <uart0_getstring>:
/home/kwilson/Projects/psaseclipse/olimex2378/liblpc23xx/lpc23xx-uart/lpc23xx-uart.c:189
/*
 * uart0_getchar
 */
int8_t uart0_getchar (void)  {

    while (!U0RDR_READY);
    15a8:	e3a0220e 	mov	r2, #-536870912	; 0xe0000000
    15ac:	e59f004c 	ldr	r0, [pc, #76]	; 1600 <uart0_getstring+0x58>
uart0_getstring():
/home/kwilson/Projects/psaseclipse/olimex2378/liblpc23xx/lpc23xx-uart/lpc23xx-uart.c:207
char* uart0_getstring (void) {

    static char uart0_linebuffer[UART_MAXBUFFER] ;

    uint8_t    current = ' ';
    uint32_t   index   = 0;
    15b0:	e3a01000 	mov	r1, #0
uart0_getchar():
/home/kwilson/Projects/psaseclipse/olimex2378/liblpc23xx/lpc23xx-uart/lpc23xx-uart.c:189
/*
 * uart0_getchar
 */
int8_t uart0_getchar (void)  {

    while (!U0RDR_READY);
    15b4:	e2822903 	add	r2, r2, #49152	; 0xc000
    15b8:	e5d23014 	ldrb	r3, [r2, #20]
    15bc:	e3130001 	tst	r3, #1
    15c0:	0afffffc 	beq	15b8 <uart0_getstring+0x10>
/home/kwilson/Projects/psaseclipse/olimex2378/liblpc23xx/lpc23xx-uart/lpc23xx-uart.c:191

    return (U0RBR);
    15c4:	e5d23000 	ldrb	r3, [r2]
    15c8:	e20330ff 	and	r3, r3, #255	; 0xff
uart0_getstring():
/home/kwilson/Projects/psaseclipse/olimex2378/liblpc23xx/lpc23xx-uart/lpc23xx-uart.c:209
    static char uart0_linebuffer[UART_MAXBUFFER] ;

    uint8_t    current = ' ';
    uint32_t   index   = 0;

    while((current != '\n' && current != '\r') && index < UART_MAXBUFFER-1) {
    15cc:	e353000d 	cmp	r3, #13
    15d0:	1353000a 	cmpne	r3, #10
/home/kwilson/Projects/psaseclipse/olimex2378/liblpc23xx/lpc23xx-uart/lpc23xx-uart.c:211
        current                 = uart0_getchar();
        uart0_linebuffer[index] = current;
    15d4:	e7c03001 	strb	r3, [r0, r1]
/home/kwilson/Projects/psaseclipse/olimex2378/liblpc23xx/lpc23xx-uart/lpc23xx-uart.c:212
        ++index;
    15d8:	e2811001 	add	r1, r1, #1
/home/kwilson/Projects/psaseclipse/olimex2378/liblpc23xx/lpc23xx-uart/lpc23xx-uart.c:209
    static char uart0_linebuffer[UART_MAXBUFFER] ;

    uint8_t    current = ' ';
    uint32_t   index   = 0;

    while((current != '\n' && current != '\r') && index < UART_MAXBUFFER-1) {
    15dc:	0a000001 	beq	15e8 <uart0_getstring+0x40>
    15e0:	e3510078 	cmp	r1, #120	; 0x78
    15e4:	1afffff3 	bne	15b8 <uart0_getstring+0x10>
/home/kwilson/Projects/psaseclipse/olimex2378/liblpc23xx/lpc23xx-uart/lpc23xx-uart.c:214
        current                 = uart0_getchar();
        uart0_linebuffer[index] = current;
        ++index;
    }
    uart0_linebuffer[index]     = '\0';
    15e8:	e59f0014 	ldr	r0, [pc, #20]	; 1604 <uart0_getstring+0x5c>
    15ec:	e3a03000 	mov	r3, #0
    15f0:	e0801001 	add	r1, r0, r1
    15f4:	e5c13008 	strb	r3, [r1, #8]
/home/kwilson/Projects/psaseclipse/olimex2378/liblpc23xx/lpc23xx-uart/lpc23xx-uart.c:217

    return(uart0_linebuffer);
}
    15f8:	e2800008 	add	r0, r0, #8
    15fc:	e12fff1e 	bx	lr
    1600:	40000268 	.word	0x40000268
    1604:	40000260 	.word	0x40000260

00001608 <microsecondsToCPUTicks>:
microsecondsToCPUTicks():
/home/kwilson/Projects/psaseclipse/olimex2378/liblpc23xx/lpc23xx-util/lpc23xx-util.c:17
#include "lpc23xx-util.h"

/*
 * microsecondsToCPUTicks
 */
uint32_t microsecondsToCPUTicks(const uint32_t microseconds) {
    1608:	e92d4010 	push	{r4, lr}
    160c:	e1a04000 	mov	r4, r0
/home/kwilson/Projects/psaseclipse/olimex2378/liblpc23xx/lpc23xx-util/lpc23xx-util.c:18
    uint32_t ret = ( pllquery_cclk_mhz() / 1000000) * microseconds;
    1610:	ebfffe3c 	bl	f08 <pllquery_cclk_mhz>
    1614:	e59f300c 	ldr	r3, [pc, #12]	; 1628 <microsecondsToCPUTicks+0x20>
    1618:	e0802093 	umull	r2, r0, r3, r0
    161c:	e1a00920 	lsr	r0, r0, #18
/home/kwilson/Projects/psaseclipse/olimex2378/liblpc23xx/lpc23xx-util/lpc23xx-util.c:20
    return(ret);
}
    1620:	e0000094 	mul	r0, r4, r0
    1624:	e8bd8010 	pop	{r4, pc}
    1628:	431bde83 	.word	0x431bde83

0000162c <millisecondsToCPUTicks>:
millisecondsToCPUTicks():
/home/kwilson/Projects/psaseclipse/olimex2378/liblpc23xx/lpc23xx-util/lpc23xx-util.c:25

/*
 * millisecondsToCPUTicks
 */
uint32_t millisecondsToCPUTicks(const uint32_t milliseconds) {
    162c:	e92d4010 	push	{r4, lr}
    1630:	e1a04000 	mov	r4, r0
/home/kwilson/Projects/psaseclipse/olimex2378/liblpc23xx/lpc23xx-util/lpc23xx-util.c:26
    uint32_t ret = (pllquery_cclk_mhz() / 1000) * milliseconds;
    1634:	ebfffe33 	bl	f08 <pllquery_cclk_mhz>
    1638:	e59f300c 	ldr	r3, [pc, #12]	; 164c <millisecondsToCPUTicks+0x20>
    163c:	e0802093 	umull	r2, r0, r3, r0
    1640:	e1a00320 	lsr	r0, r0, #6
/home/kwilson/Projects/psaseclipse/olimex2378/liblpc23xx/lpc23xx-util/lpc23xx-util.c:28
    return(ret);
}
    1644:	e0000094 	mul	r0, r4, r0
    1648:	e8bd8010 	pop	{r4, pc}
    164c:	10624dd3 	.word	0x10624dd3

00001650 <util_itoa>:
util_itoa():
/home/kwilson/Projects/psaseclipse/olimex2378/liblpc23xx/lpc23xx-util/lpc23xx-util.c:34

/*
 * util_itoa
 * convert a signed int to a string...
 */
char* util_itoa(int32_t val, uint32_t base) {
    1650:	e92d45f0 	push	{r4, r5, r6, r7, r8, sl, lr}
/home/kwilson/Projects/psaseclipse/olimex2378/liblpc23xx/lpc23xx-util/lpc23xx-util.c:41
    static char ibuf[MAX_I2ASTRING];

    int         i     = MAX_I2ASTRING-2;
    int         minus = 0;

    memset(ibuf,'\0',MAX_I2ASTRING);
    1654:	e59f70cc 	ldr	r7, [pc, #204]	; 1728 <util_itoa+0xd8>
    1658:	e3a02000 	mov	r2, #0
    165c:	e2873008 	add	r3, r7, #8
    1660:	e5832000 	str	r2, [r3]
    1664:	e287300c 	add	r3, r7, #12
    1668:	e5832000 	str	r2, [r3]
    166c:	e2873010 	add	r3, r7, #16
    1670:	e5832000 	str	r2, [r3]
    1674:	e2873014 	add	r3, r7, #20
    1678:	e5832000 	str	r2, [r3]
    167c:	e2873018 	add	r3, r7, #24
    1680:	e5832000 	str	r2, [r3]
    1684:	e287301c 	add	r3, r7, #28
    1688:	e5832000 	str	r2, [r3]
/home/kwilson/Projects/psaseclipse/olimex2378/liblpc23xx/lpc23xx-util/lpc23xx-util.c:43

    if(val < 0) {
    168c:	e2504000 	subs	r4, r0, #0
/home/kwilson/Projects/psaseclipse/olimex2378/liblpc23xx/lpc23xx-util/lpc23xx-util.c:41
    static char ibuf[MAX_I2ASTRING];

    int         i     = MAX_I2ASTRING-2;
    int         minus = 0;

    memset(ibuf,'\0',MAX_I2ASTRING);
    1690:	e2873020 	add	r3, r7, #32
/home/kwilson/Projects/psaseclipse/olimex2378/liblpc23xx/lpc23xx-util/lpc23xx-util.c:34

/*
 * util_itoa
 * convert a signed int to a string...
 */
char* util_itoa(int32_t val, uint32_t base) {
    1694:	e1a06001 	mov	r6, r1
/home/kwilson/Projects/psaseclipse/olimex2378/liblpc23xx/lpc23xx-util/lpc23xx-util.c:41
    static char ibuf[MAX_I2ASTRING];

    int         i     = MAX_I2ASTRING-2;
    int         minus = 0;

    memset(ibuf,'\0',MAX_I2ASTRING);
    1698:	e5872000 	str	r2, [r7]
    169c:	e5872004 	str	r2, [r7, #4]
    16a0:	e5c32000 	strb	r2, [r3]
/home/kwilson/Projects/psaseclipse/olimex2378/liblpc23xx/lpc23xx-util/lpc23xx-util.c:43

    if(val < 0) {
    16a4:	ba00001a 	blt	1714 <util_itoa+0xc4>
/home/kwilson/Projects/psaseclipse/olimex2378/liblpc23xx/lpc23xx-util/lpc23xx-util.c:49
        val   = -val;
        minus = 1;
    }

    if(val == 0) {
        ibuf[0] = '0';
    16a8:	03a03030 	moveq	r3, #48	; 0x30
    16ac:	05c73000 	strbeq	r3, [r7]
/home/kwilson/Projects/psaseclipse/olimex2378/liblpc23xx/lpc23xx-util/lpc23xx-util.c:50
        return &ibuf[0];
    16b0:	01a00007 	moveq	r0, r7
/home/kwilson/Projects/psaseclipse/olimex2378/liblpc23xx/lpc23xx-util/lpc23xx-util.c:48
    if(val < 0) {
        val   = -val;
        minus = 1;
    }

    if(val == 0) {
    16b4:	08bd85f0 	popeq	{r4, r5, r6, r7, r8, sl, pc}
    16b8:	e1a0a002 	mov	sl, r2
    16bc:	e59f8068 	ldr	r8, [pc, #104]	; 172c <util_itoa+0xdc>
    16c0:	e3a0501f 	mov	r5, #31
/home/kwilson/Projects/psaseclipse/olimex2378/liblpc23xx/lpc23xx-util/lpc23xx-util.c:53
        ibuf[0] = '0';
        return &ibuf[0];
    } else {
        for(; val && i ; --i, val /= base) {
            ibuf[i] = "0123456789abcdef"[val % base];
    16c4:	e1a00004 	mov	r0, r4
    16c8:	e1a01006 	mov	r1, r6
    16cc:	eb000140 	bl	1bd4 <__umodsi3>
    16d0:	e7d83000 	ldrb	r3, [r8, r0]
/home/kwilson/Projects/psaseclipse/olimex2378/liblpc23xx/lpc23xx-util/lpc23xx-util.c:52

    if(val == 0) {
        ibuf[0] = '0';
        return &ibuf[0];
    } else {
        for(; val && i ; --i, val /= base) {
    16d4:	e1a01006 	mov	r1, r6
    16d8:	e1a00004 	mov	r0, r4
/home/kwilson/Projects/psaseclipse/olimex2378/liblpc23xx/lpc23xx-util/lpc23xx-util.c:53
            ibuf[i] = "0123456789abcdef"[val % base];
    16dc:	e7c73005 	strb	r3, [r7, r5]
/home/kwilson/Projects/psaseclipse/olimex2378/liblpc23xx/lpc23xx-util/lpc23xx-util.c:52

    if(val == 0) {
        ibuf[0] = '0';
        return &ibuf[0];
    } else {
        for(; val && i ; --i, val /= base) {
    16e0:	eb0000f5 	bl	1abc <__aeabi_uidiv>
    16e4:	e2455001 	sub	r5, r5, #1
    16e8:	e3500000 	cmp	r0, #0
    16ec:	13550000 	cmpne	r5, #0
    16f0:	e1a04000 	mov	r4, r0
/home/kwilson/Projects/psaseclipse/olimex2378/liblpc23xx/lpc23xx-util/lpc23xx-util.c:53
            ibuf[i] = "0123456789abcdef"[val % base];
    16f4:	e59f002c 	ldr	r0, [pc, #44]	; 1728 <util_itoa+0xd8>
/home/kwilson/Projects/psaseclipse/olimex2378/liblpc23xx/lpc23xx-util/lpc23xx-util.c:52

    if(val == 0) {
        ibuf[0] = '0';
        return &ibuf[0];
    } else {
        for(; val && i ; --i, val /= base) {
    16f8:	1afffff1 	bne	16c4 <util_itoa+0x74>
/home/kwilson/Projects/psaseclipse/olimex2378/liblpc23xx/lpc23xx-util/lpc23xx-util.c:56
            ibuf[i] = "0123456789abcdef"[val % base];
        }

        if(minus == 1 && base == 10) {
    16fc:	e35a0000 	cmp	sl, #0
/home/kwilson/Projects/psaseclipse/olimex2378/liblpc23xx/lpc23xx-util/lpc23xx-util.c:57
            ibuf[i] = '-';
    1700:	13a0302d 	movne	r3, #45	; 0x2d
/home/kwilson/Projects/psaseclipse/olimex2378/liblpc23xx/lpc23xx-util/lpc23xx-util.c:60
            return &ibuf[i];
        } else {
            return &ibuf[i+1];
    1704:	02855001 	addeq	r5, r5, #1
/home/kwilson/Projects/psaseclipse/olimex2378/liblpc23xx/lpc23xx-util/lpc23xx-util.c:57
        for(; val && i ; --i, val /= base) {
            ibuf[i] = "0123456789abcdef"[val % base];
        }

        if(minus == 1 && base == 10) {
            ibuf[i] = '-';
    1708:	17e03005 	strbne	r3, [r0, r5]!
/home/kwilson/Projects/psaseclipse/olimex2378/liblpc23xx/lpc23xx-util/lpc23xx-util.c:60
            return &ibuf[i];
        } else {
            return &ibuf[i+1];
    170c:	00800005 	addeq	r0, r0, r5
/home/kwilson/Projects/psaseclipse/olimex2378/liblpc23xx/lpc23xx-util/lpc23xx-util.c:63
        }
    }
}
    1710:	e8bd85f0 	pop	{r4, r5, r6, r7, r8, sl, pc}
/home/kwilson/Projects/psaseclipse/olimex2378/liblpc23xx/lpc23xx-util/lpc23xx-util.c:44
    int         minus = 0;

    memset(ibuf,'\0',MAX_I2ASTRING);

    if(val < 0) {
        val   = -val;
    1714:	e2644000 	rsb	r4, r4, #0
    1718:	e351000a 	cmp	r1, #10
    171c:	13a0a000 	movne	sl, #0
    1720:	03a0a001 	moveq	sl, #1
    1724:	eaffffe4 	b	16bc <util_itoa+0x6c>
    1728:	400002e4 	.word	0x400002e4
    172c:	00001f54 	.word	0x00001f54

00001730 <util_uitoa>:
util_uitoa():
/home/kwilson/Projects/psaseclipse/olimex2378/liblpc23xx/lpc23xx-util/lpc23xx-util.c:75

    static char ibuf[MAX_I2ASTRING];

    int         i = MAX_I2ASTRING-2;

    memset(ibuf,'\0',MAX_I2ASTRING);
    1730:	e59f3090 	ldr	r3, [pc, #144]	; 17c8 <util_uitoa+0x98>
/home/kwilson/Projects/psaseclipse/olimex2378/liblpc23xx/lpc23xx-util/lpc23xx-util.c:69

/*
 * util_uitoa
 * convert an unsigned int to a string...
 */
char* util_uitoa(uint32_t val, uint32_t base) {
    1734:	e92d41f0 	push	{r4, r5, r6, r7, r8, lr}
/home/kwilson/Projects/psaseclipse/olimex2378/liblpc23xx/lpc23xx-util/lpc23xx-util.c:75

    static char ibuf[MAX_I2ASTRING];

    int         i = MAX_I2ASTRING-2;

    memset(ibuf,'\0',MAX_I2ASTRING);
    1738:	e3a02000 	mov	r2, #0
/home/kwilson/Projects/psaseclipse/olimex2378/liblpc23xx/lpc23xx-util/lpc23xx-util.c:77

    if(val == 0) {
    173c:	e2505000 	subs	r5, r0, #0
/home/kwilson/Projects/psaseclipse/olimex2378/liblpc23xx/lpc23xx-util/lpc23xx-util.c:75

    static char ibuf[MAX_I2ASTRING];

    int         i = MAX_I2ASTRING-2;

    memset(ibuf,'\0',MAX_I2ASTRING);
    1740:	e5832024 	str	r2, [r3, #36]	; 0x24
    1744:	e2837024 	add	r7, r3, #36	; 0x24
    1748:	e5832028 	str	r2, [r3, #40]	; 0x28
    174c:	e583202c 	str	r2, [r3, #44]	; 0x2c
    1750:	e5832030 	str	r2, [r3, #48]	; 0x30
    1754:	e5832034 	str	r2, [r3, #52]	; 0x34
    1758:	e5832038 	str	r2, [r3, #56]	; 0x38
    175c:	e583203c 	str	r2, [r3, #60]	; 0x3c
    1760:	e5832040 	str	r2, [r3, #64]	; 0x40
    1764:	e5c32044 	strb	r2, [r3, #68]	; 0x44
/home/kwilson/Projects/psaseclipse/olimex2378/liblpc23xx/lpc23xx-util/lpc23xx-util.c:78

    if(val == 0) {
        ibuf[0] = '0';
    1768:	03a02030 	moveq	r2, #48	; 0x30
/home/kwilson/Projects/psaseclipse/olimex2378/liblpc23xx/lpc23xx-util/lpc23xx-util.c:69

/*
 * util_uitoa
 * convert an unsigned int to a string...
 */
char* util_uitoa(uint32_t val, uint32_t base) {
    176c:	e1a06001 	mov	r6, r1
/home/kwilson/Projects/psaseclipse/olimex2378/liblpc23xx/lpc23xx-util/lpc23xx-util.c:78
    int         i = MAX_I2ASTRING-2;

    memset(ibuf,'\0',MAX_I2ASTRING);

    if(val == 0) {
        ibuf[0] = '0';
    1770:	05c32024 	strbeq	r2, [r3, #36]	; 0x24
/home/kwilson/Projects/psaseclipse/olimex2378/liblpc23xx/lpc23xx-util/lpc23xx-util.c:79
        return &ibuf[0];
    1774:	01a00007 	moveq	r0, r7
/home/kwilson/Projects/psaseclipse/olimex2378/liblpc23xx/lpc23xx-util/lpc23xx-util.c:77

    int         i = MAX_I2ASTRING-2;

    memset(ibuf,'\0',MAX_I2ASTRING);

    if(val == 0) {
    1778:	08bd81f0 	popeq	{r4, r5, r6, r7, r8, pc}
    177c:	e59f8048 	ldr	r8, [pc, #72]	; 17cc <util_uitoa+0x9c>
    1780:	e3a0401f 	mov	r4, #31
/home/kwilson/Projects/psaseclipse/olimex2378/liblpc23xx/lpc23xx-util/lpc23xx-util.c:82
        ibuf[0] = '0';
        return &ibuf[0];
    } else {
        for(; val && i ; --i, val /= base) {
            ibuf[i] = "0123456789abcdef"[val % base];
    1784:	e1a00005 	mov	r0, r5
    1788:	e1a01006 	mov	r1, r6
    178c:	eb000110 	bl	1bd4 <__umodsi3>
    1790:	e7d83000 	ldrb	r3, [r8, r0]
/home/kwilson/Projects/psaseclipse/olimex2378/liblpc23xx/lpc23xx-util/lpc23xx-util.c:81

    if(val == 0) {
        ibuf[0] = '0';
        return &ibuf[0];
    } else {
        for(; val && i ; --i, val /= base) {
    1794:	e1a01006 	mov	r1, r6
    1798:	e1a00005 	mov	r0, r5
/home/kwilson/Projects/psaseclipse/olimex2378/liblpc23xx/lpc23xx-util/lpc23xx-util.c:82
            ibuf[i] = "0123456789abcdef"[val % base];
    179c:	e7c73004 	strb	r3, [r7, r4]
/home/kwilson/Projects/psaseclipse/olimex2378/liblpc23xx/lpc23xx-util/lpc23xx-util.c:81

    if(val == 0) {
        ibuf[0] = '0';
        return &ibuf[0];
    } else {
        for(; val && i ; --i, val /= base) {
    17a0:	eb0000c5 	bl	1abc <__aeabi_uidiv>
    17a4:	e2444001 	sub	r4, r4, #1
    17a8:	e3540000 	cmp	r4, #0
    17ac:	13500000 	cmpne	r0, #0
    17b0:	e1a05000 	mov	r5, r0
    17b4:	1afffff2 	bne	1784 <util_uitoa+0x54>
/home/kwilson/Projects/psaseclipse/olimex2378/liblpc23xx/lpc23xx-util/lpc23xx-util.c:84
            ibuf[i] = "0123456789abcdef"[val % base];
        }
        return &ibuf[i+1];
    17b8:	e59f0010 	ldr	r0, [pc, #16]	; 17d0 <util_uitoa+0xa0>
    17bc:	e2844001 	add	r4, r4, #1
    17c0:	e0800004 	add	r0, r0, r4
/home/kwilson/Projects/psaseclipse/olimex2378/liblpc23xx/lpc23xx-util/lpc23xx-util.c:86
    }
}
    17c4:	e8bd81f0 	pop	{r4, r5, r6, r7, r8, pc}
    17c8:	400002e4 	.word	0x400002e4
    17cc:	00001f54 	.word	0x00001f54
    17d0:	40000308 	.word	0x40000308

000017d4 <util_waitticks>:
util_waitticks():
/home/kwilson/Projects/psaseclipse/olimex2378/liblpc23xx/lpc23xx-util/lpc23xx-util.c:97
 */
void util_waitticks(uint32_t ticks) {
    uint32_t j;

    for(j=ticks; j>0; --j);
}
    17d4:	e12fff1e 	bx	lr
	...

000017e0 <init_binsem>:
init_binsem():
/home/kwilson/Projects/psaseclipse/olimex2378/liblpc23xx/lpc23xx-binsem/lpc23xx-binsem.s:49
 * In C define prototype: void init_binsem(uint32_t *binsem_addr);
 */
.global init_binsem
init_binsem:
    ### prolog ###
    stmdb sp!, {r4-r11}
    17e0:	e92d0ff0 	push	{r4, r5, r6, r7, r8, r9, sl, fp}
/home/kwilson/Projects/psaseclipse/olimex2378/liblpc23xx/lpc23xx-binsem/lpc23xx-binsem.s:51

    mov r4, binsem_addr
    17e4:	e1a04000 	mov	r4, r0
/home/kwilson/Projects/psaseclipse/olimex2378/liblpc23xx/lpc23xx-binsem/lpc23xx-binsem.s:53

    ldr r5, =UNLOCKED
    17e8:	e3a05001 	mov	r5, #1
/home/kwilson/Projects/psaseclipse/olimex2378/liblpc23xx/lpc23xx-binsem/lpc23xx-binsem.s:54
    swp r5, r5, [r4]
    17ec:	e1045095 	swp	r5, r5, [r4]
/home/kwilson/Projects/psaseclipse/olimex2378/liblpc23xx/lpc23xx-binsem/lpc23xx-binsem.s:57

    ### epilog ###
    ldmia sp!, {r4-r11}
    17f0:	e8bd0ff0 	pop	{r4, r5, r6, r7, r8, r9, sl, fp}
/home/kwilson/Projects/psaseclipse/olimex2378/liblpc23xx/lpc23xx-binsem/lpc23xx-binsem.s:59

    mov r0, #0
    17f4:	e3a00000 	mov	r0, #0
/home/kwilson/Projects/psaseclipse/olimex2378/liblpc23xx/lpc23xx-binsem/lpc23xx-binsem.s:60
    mov pc, lr
    17f8:	e1a0f00e 	mov	pc, lr

000017fc <is_binsem_locked>:
is_binsem_locked():
/home/kwilson/Projects/psaseclipse/olimex2378/liblpc23xx/lpc23xx-binsem/lpc23xx-binsem.s:74
 */
.global is_binsem_locked
is_binsem_locked:
    ### prolog ###
    # store multiple, decrement before. '!' says to write back new value to sp
    stmdb sp!, {r4-r11}
    17fc:	e92d0ff0 	push	{r4, r5, r6, r7, r8, r9, sl, fp}
/home/kwilson/Projects/psaseclipse/olimex2378/liblpc23xx/lpc23xx-binsem/lpc23xx-binsem.s:76

    mov r4, binsem_addr
    1800:	e1a04000 	mov	r4, r0
/home/kwilson/Projects/psaseclipse/olimex2378/liblpc23xx/lpc23xx-binsem/lpc23xx-binsem.s:78

    ldr r5, [r4]
    1804:	e5945000 	ldr	r5, [r4]
/home/kwilson/Projects/psaseclipse/olimex2378/liblpc23xx/lpc23xx-binsem/lpc23xx-binsem.s:79
    cmp r5, #LOCKED
    1808:	e3550000 	cmp	r5, #0
/home/kwilson/Projects/psaseclipse/olimex2378/liblpc23xx/lpc23xx-binsem/lpc23xx-binsem.s:80
    beq is_locked
    180c:	0a000004 	beq	1824 <is_locked>
/home/kwilson/Projects/psaseclipse/olimex2378/liblpc23xx/lpc23xx-binsem/lpc23xx-binsem.s:81
    nop
    1810:	e1a00000 	nop			; (mov r0, r0)
/home/kwilson/Projects/psaseclipse/olimex2378/liblpc23xx/lpc23xx-binsem/lpc23xx-binsem.s:82
    nop
    1814:	e1a00000 	nop			; (mov r0, r0)
/home/kwilson/Projects/psaseclipse/olimex2378/liblpc23xx/lpc23xx-binsem/lpc23xx-binsem.s:83
    b   not_locked
    1818:	ea000005 	b	1834 <not_locked>
/home/kwilson/Projects/psaseclipse/olimex2378/liblpc23xx/lpc23xx-binsem/lpc23xx-binsem.s:84
    nop
    181c:	e1a00000 	nop			; (mov r0, r0)
/home/kwilson/Projects/psaseclipse/olimex2378/liblpc23xx/lpc23xx-binsem/lpc23xx-binsem.s:85
    nop
    1820:	e1a00000 	nop			; (mov r0, r0)

00001824 <is_locked>:
is_locked():
/home/kwilson/Projects/psaseclipse/olimex2378/liblpc23xx/lpc23xx-binsem/lpc23xx-binsem.s:88

is_locked:
    mov r0, #1
    1824:	e3a00001 	mov	r0, #1
/home/kwilson/Projects/psaseclipse/olimex2378/liblpc23xx/lpc23xx-binsem/lpc23xx-binsem.s:89
    b end_is_binsem_locked
    1828:	ea000002 	b	1838 <end_is_binsem_locked>
/home/kwilson/Projects/psaseclipse/olimex2378/liblpc23xx/lpc23xx-binsem/lpc23xx-binsem.s:90
    nop
    182c:	e1a00000 	nop			; (mov r0, r0)
/home/kwilson/Projects/psaseclipse/olimex2378/liblpc23xx/lpc23xx-binsem/lpc23xx-binsem.s:91
    nop
    1830:	e1a00000 	nop			; (mov r0, r0)

00001834 <not_locked>:
not_locked():
/home/kwilson/Projects/psaseclipse/olimex2378/liblpc23xx/lpc23xx-binsem/lpc23xx-binsem.s:94

not_locked:
    mov r0, #0
    1834:	e3a00000 	mov	r0, #0

00001838 <end_is_binsem_locked>:
end_is_binsem_locked():
/home/kwilson/Projects/psaseclipse/olimex2378/liblpc23xx/lpc23xx-binsem/lpc23xx-binsem.s:100

end_is_binsem_locked:

    ### epilog ###
    # load multiple, increment after. '!' says to write back new value to sp
    ldmia sp!, {r4-r11}
    1838:	e8bd0ff0 	pop	{r4, r5, r6, r7, r8, r9, sl, fp}
/home/kwilson/Projects/psaseclipse/olimex2378/liblpc23xx/lpc23xx-binsem/lpc23xx-binsem.s:103

    # lr contains address of next instruction after function
    mov pc, lr
    183c:	e1a0f00e 	mov	pc, lr

00001840 <get_binsem>:
get_binsem():
/home/kwilson/Projects/psaseclipse/olimex2378/liblpc23xx/lpc23xx-binsem/lpc23xx-binsem.s:118
 */ 
.global get_binsem
get_binsem:
    ### prolog ###
    # store multiple, decrement before. '!' says to write back new value to sp
    stmdb sp!, {r4-r11}
    1840:	e92d0ff0 	push	{r4, r5, r6, r7, r8, r9, sl, fp}
/home/kwilson/Projects/psaseclipse/olimex2378/liblpc23xx/lpc23xx-binsem/lpc23xx-binsem.s:120

    mov r4, binsem_addr
    1844:	e1a04000 	mov	r4, r0
/home/kwilson/Projects/psaseclipse/olimex2378/liblpc23xx/lpc23xx-binsem/lpc23xx-binsem.s:121
    mov r5, ticks
    1848:	e1a05001 	mov	r5, r1
/home/kwilson/Projects/psaseclipse/olimex2378/liblpc23xx/lpc23xx-binsem/lpc23xx-binsem.s:123
    # minimum wait is one count.
    add r5, #0x1
    184c:	e2855001 	add	r5, r5, #1
/home/kwilson/Projects/psaseclipse/olimex2378/liblpc23xx/lpc23xx-binsem/lpc23xx-binsem.s:125

    ldr r6, =LOCKED
    1850:	e3a06000 	mov	r6, #0

00001854 <spin_lock>:
spin_lock():
/home/kwilson/Projects/psaseclipse/olimex2378/liblpc23xx/lpc23xx-binsem/lpc23xx-binsem.s:129

spin_lock:
    # r1 is an indirect address (note '[' and ']')
    swp r6, r6, [r4]
    1854:	e1046096 	swp	r6, r6, [r4]
/home/kwilson/Projects/psaseclipse/olimex2378/liblpc23xx/lpc23xx-binsem/lpc23xx-binsem.s:131
    # use immediate value of LOCKED constant
    cmp r6, #LOCKED
    1858:	e3560000 	cmp	r6, #0
/home/kwilson/Projects/psaseclipse/olimex2378/liblpc23xx/lpc23xx-binsem/lpc23xx-binsem.s:132
    beq waitcount
    185c:	0a000004 	beq	1874 <waitcount>
/home/kwilson/Projects/psaseclipse/olimex2378/liblpc23xx/lpc23xx-binsem/lpc23xx-binsem.s:133
    nop
    1860:	e1a00000 	nop			; (mov r0, r0)
/home/kwilson/Projects/psaseclipse/olimex2378/liblpc23xx/lpc23xx-binsem/lpc23xx-binsem.s:134
    nop
    1864:	e1a00000 	nop			; (mov r0, r0)
/home/kwilson/Projects/psaseclipse/olimex2378/liblpc23xx/lpc23xx-binsem/lpc23xx-binsem.s:135
    b gotlock
    1868:	ea000009 	b	1894 <gotlock>
/home/kwilson/Projects/psaseclipse/olimex2378/liblpc23xx/lpc23xx-binsem/lpc23xx-binsem.s:136
    nop
    186c:	e1a00000 	nop			; (mov r0, r0)
/home/kwilson/Projects/psaseclipse/olimex2378/liblpc23xx/lpc23xx-binsem/lpc23xx-binsem.s:137
    nop
    1870:	e1a00000 	nop			; (mov r0, r0)

00001874 <waitcount>:
waitcount():
/home/kwilson/Projects/psaseclipse/olimex2378/liblpc23xx/lpc23xx-binsem/lpc23xx-binsem.s:140

waitcount:
    sub r5, #0x1
    1874:	e2455001 	sub	r5, r5, #1
/home/kwilson/Projects/psaseclipse/olimex2378/liblpc23xx/lpc23xx-binsem/lpc23xx-binsem.s:141
    cmp r5, #0x0
    1878:	e3550000 	cmp	r5, #0
/home/kwilson/Projects/psaseclipse/olimex2378/liblpc23xx/lpc23xx-binsem/lpc23xx-binsem.s:142
    beq timeout
    187c:	0a000008 	beq	18a4 <timeout>
/home/kwilson/Projects/psaseclipse/olimex2378/liblpc23xx/lpc23xx-binsem/lpc23xx-binsem.s:143
    nop
    1880:	e1a00000 	nop			; (mov r0, r0)
/home/kwilson/Projects/psaseclipse/olimex2378/liblpc23xx/lpc23xx-binsem/lpc23xx-binsem.s:144
    nop
    1884:	e1a00000 	nop			; (mov r0, r0)
/home/kwilson/Projects/psaseclipse/olimex2378/liblpc23xx/lpc23xx-binsem/lpc23xx-binsem.s:145
    b spin_lock
    1888:	eafffff1 	b	1854 <spin_lock>
/home/kwilson/Projects/psaseclipse/olimex2378/liblpc23xx/lpc23xx-binsem/lpc23xx-binsem.s:146
    nop
    188c:	e1a00000 	nop			; (mov r0, r0)
/home/kwilson/Projects/psaseclipse/olimex2378/liblpc23xx/lpc23xx-binsem/lpc23xx-binsem.s:147
    nop
    1890:	e1a00000 	nop			; (mov r0, r0)

00001894 <gotlock>:
gotlock():
/home/kwilson/Projects/psaseclipse/olimex2378/liblpc23xx/lpc23xx-binsem/lpc23xx-binsem.s:150

gotlock:
    mov r0, #1
    1894:	e3a00001 	mov	r0, #1
/home/kwilson/Projects/psaseclipse/olimex2378/liblpc23xx/lpc23xx-binsem/lpc23xx-binsem.s:151
    b end_get_binsem
    1898:	ea000002 	b	18a8 <end_get_binsem>
/home/kwilson/Projects/psaseclipse/olimex2378/liblpc23xx/lpc23xx-binsem/lpc23xx-binsem.s:152
    nop
    189c:	e1a00000 	nop			; (mov r0, r0)
/home/kwilson/Projects/psaseclipse/olimex2378/liblpc23xx/lpc23xx-binsem/lpc23xx-binsem.s:153
    nop
    18a0:	e1a00000 	nop			; (mov r0, r0)

000018a4 <timeout>:
timeout():
/home/kwilson/Projects/psaseclipse/olimex2378/liblpc23xx/lpc23xx-binsem/lpc23xx-binsem.s:156

timeout:
    mov r0, #0
    18a4:	e3a00000 	mov	r0, #0

000018a8 <end_get_binsem>:
end_get_binsem():
/home/kwilson/Projects/psaseclipse/olimex2378/liblpc23xx/lpc23xx-binsem/lpc23xx-binsem.s:161

end_get_binsem:

    ### epilog ###
    ldmia sp!, {r4-r11}
    18a8:	e8bd0ff0 	pop	{r4, r5, r6, r7, r8, r9, sl, fp}
/home/kwilson/Projects/psaseclipse/olimex2378/liblpc23xx/lpc23xx-binsem/lpc23xx-binsem.s:164

    # lr contains address of next instruction after function
    mov pc, lr
    18ac:	e1a0f00e 	mov	pc, lr

000018b0 <release_binsem>:
release_binsem():
/home/kwilson/Projects/psaseclipse/olimex2378/liblpc23xx/lpc23xx-binsem/lpc23xx-binsem.s:176
 * in C define prototype: uint32_t release_binsem(uint32_t* binsem_addr);
 */ 
.global release_binsem
release_binsem:
    ### prolog ###
    stmdb sp!, {r4-r11}
    18b0:	e92d0ff0 	push	{r4, r5, r6, r7, r8, r9, sl, fp}
/home/kwilson/Projects/psaseclipse/olimex2378/liblpc23xx/lpc23xx-binsem/lpc23xx-binsem.s:178

    mov r4, binsem_addr
    18b4:	e1a04000 	mov	r4, r0
/home/kwilson/Projects/psaseclipse/olimex2378/liblpc23xx/lpc23xx-binsem/lpc23xx-binsem.s:180
  
    ldr r5, =UNLOCKED
    18b8:	e3a05001 	mov	r5, #1
/home/kwilson/Projects/psaseclipse/olimex2378/liblpc23xx/lpc23xx-binsem/lpc23xx-binsem.s:182
   
    swp r5, r5, [r4]
    18bc:	e1045095 	swp	r5, r5, [r4]
/home/kwilson/Projects/psaseclipse/olimex2378/liblpc23xx/lpc23xx-binsem/lpc23xx-binsem.s:184
    
    cmp r5, #UNLOCKED
    18c0:	e3550001 	cmp	r5, #1
/home/kwilson/Projects/psaseclipse/olimex2378/liblpc23xx/lpc23xx-binsem/lpc23xx-binsem.s:185
    beq was_not_locked
    18c4:	0a000008 	beq	18ec <was_not_locked>
/home/kwilson/Projects/psaseclipse/olimex2378/liblpc23xx/lpc23xx-binsem/lpc23xx-binsem.s:186
    nop
    18c8:	e1a00000 	nop			; (mov r0, r0)
/home/kwilson/Projects/psaseclipse/olimex2378/liblpc23xx/lpc23xx-binsem/lpc23xx-binsem.s:187
    nop
    18cc:	e1a00000 	nop			; (mov r0, r0)
/home/kwilson/Projects/psaseclipse/olimex2378/liblpc23xx/lpc23xx-binsem/lpc23xx-binsem.s:188
    b released_lock
    18d0:	ea000001 	b	18dc <released_lock>
/home/kwilson/Projects/psaseclipse/olimex2378/liblpc23xx/lpc23xx-binsem/lpc23xx-binsem.s:189
    nop
    18d4:	e1a00000 	nop			; (mov r0, r0)
/home/kwilson/Projects/psaseclipse/olimex2378/liblpc23xx/lpc23xx-binsem/lpc23xx-binsem.s:190
    nop
    18d8:	e1a00000 	nop			; (mov r0, r0)

000018dc <released_lock>:
released_lock():
/home/kwilson/Projects/psaseclipse/olimex2378/liblpc23xx/lpc23xx-binsem/lpc23xx-binsem.s:193
 
released_lock:
    mov r0, #1
    18dc:	e3a00001 	mov	r0, #1
/home/kwilson/Projects/psaseclipse/olimex2378/liblpc23xx/lpc23xx-binsem/lpc23xx-binsem.s:194
    b end_release_binsem
    18e0:	ea000002 	b	18f0 <end_release_binsem>
/home/kwilson/Projects/psaseclipse/olimex2378/liblpc23xx/lpc23xx-binsem/lpc23xx-binsem.s:195
    nop
    18e4:	e1a00000 	nop			; (mov r0, r0)
/home/kwilson/Projects/psaseclipse/olimex2378/liblpc23xx/lpc23xx-binsem/lpc23xx-binsem.s:196
    nop
    18e8:	e1a00000 	nop			; (mov r0, r0)

000018ec <was_not_locked>:
was_not_locked():
/home/kwilson/Projects/psaseclipse/olimex2378/liblpc23xx/lpc23xx-binsem/lpc23xx-binsem.s:199

was_not_locked:
    mov r0, #0
    18ec:	e3a00000 	mov	r0, #0

000018f0 <end_release_binsem>:
end_release_binsem():
/home/kwilson/Projects/psaseclipse/olimex2378/liblpc23xx/lpc23xx-binsem/lpc23xx-binsem.s:203

end_release_binsem:
    ### epilog ###
    ldmia sp!, {r4-r11}
    18f0:	e8bd0ff0 	pop	{r4, r5, r6, r7, r8, r9, sl, fp}
/home/kwilson/Projects/psaseclipse/olimex2378/liblpc23xx/lpc23xx-binsem/lpc23xx-binsem.s:205

    mov pc, lr
    18f4:	e1a0f00e 	mov	pc, lr
    18f8:	e1a00000 	nop			; (mov r0, r0)
    18fc:	e1a00000 	nop			; (mov r0, r0)

00001900 <init_stat_led>:
init_stat_led():
/home/kwilson/Projects/psaseclipse/olimex2378/olimex2378-util/olimex2378_util.c:22

/*
 * init_stat_led
 */
void init_stat_led() {
    FIO_ENABLE;
    1900:	e3a0320e 	mov	r3, #-536870912	; 0xe0000000
    1904:	e283397f 	add	r3, r3, #2080768	; 0x1fc000
    1908:	e59321a0 	ldr	r2, [r3, #416]	; 0x1a0
    190c:	e3822001 	orr	r2, r2, #1
    1910:	e58321a0 	str	r2, [r3, #416]	; 0x1a0
/home/kwilson/Projects/psaseclipse/olimex2378/olimex2378-util/olimex2378_util.c:23
    STAT_LED_ENABLE;
    1914:	e3e03103 	mvn	r3, #-1073741824	; 0xc0000000
    1918:	e2433a03 	sub	r3, r3, #12288	; 0x3000
    191c:	e5132fdf 	ldr	r2, [r3, #-4063]	; 0xfdf
    1920:	e3822702 	orr	r2, r2, #524288	; 0x80000
    1924:	e5032fdf 	str	r2, [r3, #-4063]	; 0xfdf
/home/kwilson/Projects/psaseclipse/olimex2378/olimex2378-util/olimex2378_util.c:24
}
    1928:	e12fff1e 	bx	lr

0000192c <stat_led_flash_slow>:
stat_led_flash_slow():
/home/kwilson/Projects/psaseclipse/olimex2378/olimex2378-util/olimex2378_util.c:29

/*
 * stat_led_flash_slow
 */
void stat_led_flash_slow(uint32_t cycles) {
    192c:	e92d4010 	push	{r4, lr}
    1930:	e1a04000 	mov	r4, r0
/home/kwilson/Projects/psaseclipse/olimex2378/olimex2378-util/olimex2378_util.c:35

    int x              = 0;
    int interval       = 100000;

    Freq cclk;
    cclk  =  pllquery_cclk_mhz();
    1934:	ebfffd73 	bl	f08 <pllquery_cclk_mhz>
/home/kwilson/Projects/psaseclipse/olimex2378/olimex2378-util/olimex2378_util.c:37

    switch(cclk) {
    1938:	e3a037b7 	mov	r3, #47972352	; 0x2dc0000
    193c:	e2833b1b 	add	r3, r3, #27648	; 0x6c00
    1940:	e1500003 	cmp	r0, r3
    1944:	0a00000e 	beq	1984 <stat_led_flash_slow+0x58>
    1948:	9a00000b 	bls	197c <stat_led_flash_slow+0x50>
    194c:	e3a037e5 	mov	r3, #60030976	; 0x3940000
    1950:	e2433c79 	sub	r3, r3, #30976	; 0x7900
    1954:	e1500003 	cmp	r0, r3
    1958:	0a000009 	beq	1984 <stat_led_flash_slow+0x58>
    195c:	e3a03511 	mov	r3, #71303168	; 0x4400000
    1960:	e2833aaa 	add	r3, r3, #696320	; 0xaa000
    1964:	e2833c02 	add	r3, r3, #512	; 0x200
    1968:	e1500003 	cmp	r0, r3
    196c:	0a000004 	beq	1984 <stat_led_flash_slow+0x58>
/home/kwilson/Projects/psaseclipse/olimex2378/olimex2378-util/olimex2378_util.c:32
 * stat_led_flash_slow
 */
void stat_led_flash_slow(uint32_t cycles) {

    int x              = 0;
    int interval       = 100000;
    1970:	e3a02b61 	mov	r2, #99328	; 0x18400
    1974:	e2822e2a 	add	r2, r2, #672	; 0x2a0
    1978:	ea000003 	b	198c <stat_led_flash_slow+0x60>
/home/kwilson/Projects/psaseclipse/olimex2378/olimex2378-util/olimex2378_util.c:37

    Freq cclk;
    cclk  =  pllquery_cclk_mhz();

    switch(cclk) {
    197c:	e3500000 	cmp	r0, #0
    1980:	1afffffa 	bne	1970 <stat_led_flash_slow+0x44>
/home/kwilson/Projects/psaseclipse/olimex2378/olimex2378-util/olimex2378_util.c:45
        case FOURTY_EIGHT_MHZ:
            interval = 0.01 * 48000000;
        case SIXTY_MHZ:
            interval = 0.01 * 60000000;
        case SEVENTY_TWO_MHZ:
            interval = 0.01 * 72000000;
    1984:	e3a02aaf 	mov	r2, #716800	; 0xaf000
    1988:	e2822d32 	add	r2, r2, #3200	; 0xc80
/home/kwilson/Projects/psaseclipse/olimex2378/olimex2378-util/olimex2378_util.c:48
    }

    FIO_ENABLE;
    198c:	e3a0320e 	mov	r3, #-536870912	; 0xe0000000
    1990:	e283397f 	add	r3, r3, #2080768	; 0x1fc000
    1994:	e59311a0 	ldr	r1, [r3, #416]	; 0x1a0
    1998:	e3811001 	orr	r1, r1, #1
    199c:	e58311a0 	str	r1, [r3, #416]	; 0x1a0
/home/kwilson/Projects/psaseclipse/olimex2378/olimex2378-util/olimex2378_util.c:49
    STAT_LED_ENABLE;
    19a0:	e3e01103 	mvn	r1, #-1073741824	; 0xc0000000
    19a4:	e2411a03 	sub	r1, r1, #12288	; 0x3000
    19a8:	e5113fdf 	ldr	r3, [r1, #-4063]	; 0xfdf
/home/kwilson/Projects/psaseclipse/olimex2378/olimex2378-util/olimex2378_util.c:51

    if(cycles > 0) {
    19ac:	e3540000 	cmp	r4, #0
/home/kwilson/Projects/psaseclipse/olimex2378/olimex2378-util/olimex2378_util.c:49
        case SEVENTY_TWO_MHZ:
            interval = 0.01 * 72000000;
    }

    FIO_ENABLE;
    STAT_LED_ENABLE;
    19b0:	e3833702 	orr	r3, r3, #524288	; 0x80000
    19b4:	e5013fdf 	str	r3, [r1, #-4063]	; 0xfdf
/home/kwilson/Projects/psaseclipse/olimex2378/olimex2378-util/olimex2378_util.c:58
            if(cycles==0) break;
            x++;
            if (x == interval) {
                --cycles;
                STAT_LED_ON;
            } else if (x >= (interval * 2)) {
    19b8:	11a00082 	lslne	r0, r2, #1
    19bc:	13a03000 	movne	r3, #0
/home/kwilson/Projects/psaseclipse/olimex2378/olimex2378-util/olimex2378_util.c:59
                STAT_LED_OFF;
    19c0:	13a0c702 	movne	ip, #524288	; 0x80000
/home/kwilson/Projects/psaseclipse/olimex2378/olimex2378-util/olimex2378_util.c:51
    }

    FIO_ENABLE;
    STAT_LED_ENABLE;

    if(cycles > 0) {
    19c4:	08bd8010 	popeq	{r4, pc}
/home/kwilson/Projects/psaseclipse/olimex2378/olimex2378-util/olimex2378_util.c:54
        for(;;) {
            if(cycles==0) break;
            x++;
    19c8:	e2833001 	add	r3, r3, #1
/home/kwilson/Projects/psaseclipse/olimex2378/olimex2378-util/olimex2378_util.c:55
            if (x == interval) {
    19cc:	e1530002 	cmp	r3, r2
/home/kwilson/Projects/psaseclipse/olimex2378/olimex2378-util/olimex2378_util.c:56
                --cycles;
    19d0:	02444001 	subeq	r4, r4, #1
/home/kwilson/Projects/psaseclipse/olimex2378/olimex2378-util/olimex2378_util.c:57
                STAT_LED_ON;
    19d4:	0501cfc3 	streq	ip, [r1, #-4035]	; 0xfc3
/home/kwilson/Projects/psaseclipse/olimex2378/olimex2378-util/olimex2378_util.c:55

    if(cycles > 0) {
        for(;;) {
            if(cycles==0) break;
            x++;
            if (x == interval) {
    19d8:	0a000002 	beq	19e8 <stat_led_flash_slow+0xbc>
/home/kwilson/Projects/psaseclipse/olimex2378/olimex2378-util/olimex2378_util.c:58
                --cycles;
                STAT_LED_ON;
            } else if (x >= (interval * 2)) {
    19dc:	e1530000 	cmp	r3, r0
/home/kwilson/Projects/psaseclipse/olimex2378/olimex2378-util/olimex2378_util.c:59
                STAT_LED_OFF;
    19e0:	a501cfc7 	strge	ip, [r1, #-4039]	; 0xfc7
/home/kwilson/Projects/psaseclipse/olimex2378/olimex2378-util/olimex2378_util.c:60
                x = 0;
    19e4:	a3a03000 	movge	r3, #0
/home/kwilson/Projects/psaseclipse/olimex2378/olimex2378-util/olimex2378_util.c:53
    FIO_ENABLE;
    STAT_LED_ENABLE;

    if(cycles > 0) {
        for(;;) {
            if(cycles==0) break;
    19e8:	e3540000 	cmp	r4, #0
    19ec:	1afffff5 	bne	19c8 <stat_led_flash_slow+0x9c>
    19f0:	e8bd8010 	pop	{r4, pc}

000019f4 <stat_led_flash>:
stat_led_flash():
/home/kwilson/Projects/psaseclipse/olimex2378/olimex2378-util/olimex2378_util.c:69
}

/*
 * stat_led_flash
 */
void stat_led_flash(uint32_t cycles) {
    19f4:	e92d4010 	push	{r4, lr}
    19f8:	e1a04000 	mov	r4, r0
/home/kwilson/Projects/psaseclipse/olimex2378/olimex2378-util/olimex2378_util.c:75

    int x              = 0;
    int interval       = 1000000;

    Freq cclk;
    cclk  =  pllquery_cclk_mhz();
    19fc:	ebfffd41 	bl	f08 <pllquery_cclk_mhz>
/home/kwilson/Projects/psaseclipse/olimex2378/olimex2378-util/olimex2378_util.c:77

    switch(cclk) {
    1a00:	e3a037b7 	mov	r3, #47972352	; 0x2dc0000
    1a04:	e2833b1b 	add	r3, r3, #27648	; 0x6c00
    1a08:	e1500003 	cmp	r0, r3
    1a0c:	0a00000e 	beq	1a4c <stat_led_flash+0x58>
    1a10:	9a00000b 	bls	1a44 <stat_led_flash+0x50>
    1a14:	e3a037e5 	mov	r3, #60030976	; 0x3940000
    1a18:	e2433c79 	sub	r3, r3, #30976	; 0x7900
    1a1c:	e1500003 	cmp	r0, r3
    1a20:	0a000009 	beq	1a4c <stat_led_flash+0x58>
    1a24:	e3a03511 	mov	r3, #71303168	; 0x4400000
    1a28:	e2833aaa 	add	r3, r3, #696320	; 0xaa000
    1a2c:	e2833c02 	add	r3, r3, #512	; 0x200
    1a30:	e1500003 	cmp	r0, r3
    1a34:	0a000004 	beq	1a4c <stat_led_flash+0x58>
/home/kwilson/Projects/psaseclipse/olimex2378/olimex2378-util/olimex2378_util.c:72
 * stat_led_flash
 */
void stat_led_flash(uint32_t cycles) {

    int x              = 0;
    int interval       = 1000000;
    1a38:	e3a0293d 	mov	r2, #999424	; 0xf4000
    1a3c:	e2822d09 	add	r2, r2, #576	; 0x240
    1a40:	ea000003 	b	1a54 <stat_led_flash+0x60>
/home/kwilson/Projects/psaseclipse/olimex2378/olimex2378-util/olimex2378_util.c:77

    Freq cclk;
    cclk  =  pllquery_cclk_mhz();

    switch(cclk) {
    1a44:	e3500000 	cmp	r0, #0
    1a48:	1afffffa 	bne	1a38 <stat_led_flash+0x44>
/home/kwilson/Projects/psaseclipse/olimex2378/olimex2378-util/olimex2378_util.c:85
        case FOURTY_EIGHT_MHZ:
            interval = 0.001 * 48000000;
        case SIXTY_MHZ:
            interval = 0.001 * 60000000;
        case SEVENTY_TWO_MHZ:
            interval = 0.001 * 72000000;
    1a4c:	e3a02b46 	mov	r2, #71680	; 0x11800
    1a50:	e2822d05 	add	r2, r2, #320	; 0x140
/home/kwilson/Projects/psaseclipse/olimex2378/olimex2378-util/olimex2378_util.c:88
    }

    FIO_ENABLE;
    1a54:	e3a0320e 	mov	r3, #-536870912	; 0xe0000000
    1a58:	e283397f 	add	r3, r3, #2080768	; 0x1fc000
    1a5c:	e59311a0 	ldr	r1, [r3, #416]	; 0x1a0
    1a60:	e3811001 	orr	r1, r1, #1
    1a64:	e58311a0 	str	r1, [r3, #416]	; 0x1a0
/home/kwilson/Projects/psaseclipse/olimex2378/olimex2378-util/olimex2378_util.c:89
    STAT_LED_ENABLE;
    1a68:	e3e01103 	mvn	r1, #-1073741824	; 0xc0000000
    1a6c:	e2411a03 	sub	r1, r1, #12288	; 0x3000
    1a70:	e5113fdf 	ldr	r3, [r1, #-4063]	; 0xfdf
/home/kwilson/Projects/psaseclipse/olimex2378/olimex2378-util/olimex2378_util.c:91

    if(cycles > 0) {
    1a74:	e3540000 	cmp	r4, #0
/home/kwilson/Projects/psaseclipse/olimex2378/olimex2378-util/olimex2378_util.c:89
        case SEVENTY_TWO_MHZ:
            interval = 0.001 * 72000000;
    }

    FIO_ENABLE;
    STAT_LED_ENABLE;
    1a78:	e3833702 	orr	r3, r3, #524288	; 0x80000
    1a7c:	e5013fdf 	str	r3, [r1, #-4063]	; 0xfdf
/home/kwilson/Projects/psaseclipse/olimex2378/olimex2378-util/olimex2378_util.c:98
            if(cycles==0) break;
            x++;
            if (x == interval) {
                --cycles;
                STAT_LED_ON;
            } else if (x >= (interval * 2)) {
    1a80:	11a00082 	lslne	r0, r2, #1
    1a84:	13a03000 	movne	r3, #0
/home/kwilson/Projects/psaseclipse/olimex2378/olimex2378-util/olimex2378_util.c:99
                STAT_LED_OFF;
    1a88:	13a0c702 	movne	ip, #524288	; 0x80000
/home/kwilson/Projects/psaseclipse/olimex2378/olimex2378-util/olimex2378_util.c:91
    }

    FIO_ENABLE;
    STAT_LED_ENABLE;

    if(cycles > 0) {
    1a8c:	08bd8010 	popeq	{r4, pc}
/home/kwilson/Projects/psaseclipse/olimex2378/olimex2378-util/olimex2378_util.c:94
        for(;;) {
            if(cycles==0) break;
            x++;
    1a90:	e2833001 	add	r3, r3, #1
/home/kwilson/Projects/psaseclipse/olimex2378/olimex2378-util/olimex2378_util.c:95
            if (x == interval) {
    1a94:	e1530002 	cmp	r3, r2
/home/kwilson/Projects/psaseclipse/olimex2378/olimex2378-util/olimex2378_util.c:96
                --cycles;
    1a98:	02444001 	subeq	r4, r4, #1
/home/kwilson/Projects/psaseclipse/olimex2378/olimex2378-util/olimex2378_util.c:97
                STAT_LED_ON;
    1a9c:	0501cfc3 	streq	ip, [r1, #-4035]	; 0xfc3
/home/kwilson/Projects/psaseclipse/olimex2378/olimex2378-util/olimex2378_util.c:95

    if(cycles > 0) {
        for(;;) {
            if(cycles==0) break;
            x++;
            if (x == interval) {
    1aa0:	0a000002 	beq	1ab0 <stat_led_flash+0xbc>
/home/kwilson/Projects/psaseclipse/olimex2378/olimex2378-util/olimex2378_util.c:98
                --cycles;
                STAT_LED_ON;
            } else if (x >= (interval * 2)) {
    1aa4:	e1530000 	cmp	r3, r0
/home/kwilson/Projects/psaseclipse/olimex2378/olimex2378-util/olimex2378_util.c:99
                STAT_LED_OFF;
    1aa8:	a501cfc7 	strge	ip, [r1, #-4039]	; 0xfc7
/home/kwilson/Projects/psaseclipse/olimex2378/olimex2378-util/olimex2378_util.c:100
                x = 0;
    1aac:	a3a03000 	movge	r3, #0
/home/kwilson/Projects/psaseclipse/olimex2378/olimex2378-util/olimex2378_util.c:93
    FIO_ENABLE;
    STAT_LED_ENABLE;

    if(cycles > 0) {
        for(;;) {
            if(cycles==0) break;
    1ab0:	e3540000 	cmp	r4, #0
    1ab4:	1afffff5 	bne	1a90 <stat_led_flash+0x9c>
    1ab8:	e8bd8010 	pop	{r4, pc}

00001abc <__aeabi_uidiv>:
__aeabi_uidiv():
/home/kwilson/Projects/summon-arm-toolchain/build/arm-elf/libgcc/../../../gcc-4.5.2/libgcc/../gcc/config/arm/lib1funcs.asm:961
    1abc:	e2512001 	subs	r2, r1, #1
/home/kwilson/Projects/summon-arm-toolchain/build/arm-elf/libgcc/../../../gcc-4.5.2/libgcc/../gcc/config/arm/lib1funcs.asm:963
    1ac0:	012fff1e 	bxeq	lr
/home/kwilson/Projects/summon-arm-toolchain/build/arm-elf/libgcc/../../../gcc-4.5.2/libgcc/../gcc/config/arm/lib1funcs.asm:964
    1ac4:	3a000036 	bcc	1ba4 <__aeabi_uidiv+0xe8>
/home/kwilson/Projects/summon-arm-toolchain/build/arm-elf/libgcc/../../../gcc-4.5.2/libgcc/../gcc/config/arm/lib1funcs.asm:965
    1ac8:	e1500001 	cmp	r0, r1
/home/kwilson/Projects/summon-arm-toolchain/build/arm-elf/libgcc/../../../gcc-4.5.2/libgcc/../gcc/config/arm/lib1funcs.asm:966
    1acc:	9a000022 	bls	1b5c <__aeabi_uidiv+0xa0>
/home/kwilson/Projects/summon-arm-toolchain/build/arm-elf/libgcc/../../../gcc-4.5.2/libgcc/../gcc/config/arm/lib1funcs.asm:967
    1ad0:	e1110002 	tst	r1, r2
/home/kwilson/Projects/summon-arm-toolchain/build/arm-elf/libgcc/../../../gcc-4.5.2/libgcc/../gcc/config/arm/lib1funcs.asm:968
    1ad4:	0a000023 	beq	1b68 <__aeabi_uidiv+0xac>
/home/kwilson/Projects/summon-arm-toolchain/build/arm-elf/libgcc/../../../gcc-4.5.2/libgcc/../gcc/config/arm/lib1funcs.asm:593
    1ad8:	e311020e 	tst	r1, #-536870912	; 0xe0000000
    1adc:	01a01181 	lsleq	r1, r1, #3
    1ae0:	03a03008 	moveq	r3, #8
    1ae4:	13a03001 	movne	r3, #1
    1ae8:	e3510201 	cmp	r1, #268435456	; 0x10000000
    1aec:	31510000 	cmpcc	r1, r0
    1af0:	31a01201 	lslcc	r1, r1, #4
    1af4:	31a03203 	lslcc	r3, r3, #4
    1af8:	3afffffa 	bcc	1ae8 <__aeabi_uidiv+0x2c>
    1afc:	e3510102 	cmp	r1, #-2147483648	; 0x80000000
    1b00:	31510000 	cmpcc	r1, r0
    1b04:	31a01081 	lslcc	r1, r1, #1
    1b08:	31a03083 	lslcc	r3, r3, #1
    1b0c:	3afffffa 	bcc	1afc <__aeabi_uidiv+0x40>
    1b10:	e3a02000 	mov	r2, #0
    1b14:	e1500001 	cmp	r0, r1
    1b18:	20400001 	subcs	r0, r0, r1
    1b1c:	21822003 	orrcs	r2, r2, r3
    1b20:	e15000a1 	cmp	r0, r1, lsr #1
    1b24:	204000a1 	subcs	r0, r0, r1, lsr #1
    1b28:	218220a3 	orrcs	r2, r2, r3, lsr #1
    1b2c:	e1500121 	cmp	r0, r1, lsr #2
    1b30:	20400121 	subcs	r0, r0, r1, lsr #2
    1b34:	21822123 	orrcs	r2, r2, r3, lsr #2
    1b38:	e15001a1 	cmp	r0, r1, lsr #3
    1b3c:	204001a1 	subcs	r0, r0, r1, lsr #3
    1b40:	218221a3 	orrcs	r2, r2, r3, lsr #3
    1b44:	e3500000 	cmp	r0, #0
    1b48:	11b03223 	lsrsne	r3, r3, #4
    1b4c:	11a01221 	lsrne	r1, r1, #4
    1b50:	1affffef 	bne	1b14 <__aeabi_uidiv+0x58>
/home/kwilson/Projects/summon-arm-toolchain/build/arm-elf/libgcc/../../../gcc-4.5.2/libgcc/../gcc/config/arm/lib1funcs.asm:972
    1b54:	e1a00002 	mov	r0, r2
/home/kwilson/Projects/summon-arm-toolchain/build/arm-elf/libgcc/../../../gcc-4.5.2/libgcc/../gcc/config/arm/lib1funcs.asm:973
    1b58:	e12fff1e 	bx	lr
/home/kwilson/Projects/summon-arm-toolchain/build/arm-elf/libgcc/../../../gcc-4.5.2/libgcc/../gcc/config/arm/lib1funcs.asm:976
    1b5c:	03a00001 	moveq	r0, #1
/home/kwilson/Projects/summon-arm-toolchain/build/arm-elf/libgcc/../../../gcc-4.5.2/libgcc/../gcc/config/arm/lib1funcs.asm:977
    1b60:	13a00000 	movne	r0, #0
/home/kwilson/Projects/summon-arm-toolchain/build/arm-elf/libgcc/../../../gcc-4.5.2/libgcc/../gcc/config/arm/lib1funcs.asm:978
    1b64:	e12fff1e 	bx	lr
/home/kwilson/Projects/summon-arm-toolchain/build/arm-elf/libgcc/../../../gcc-4.5.2/libgcc/../gcc/config/arm/lib1funcs.asm:660
    1b68:	e3510801 	cmp	r1, #65536	; 0x10000
    1b6c:	21a01821 	lsrcs	r1, r1, #16
    1b70:	23a02010 	movcs	r2, #16
    1b74:	33a02000 	movcc	r2, #0
    1b78:	e3510c01 	cmp	r1, #256	; 0x100
    1b7c:	21a01421 	lsrcs	r1, r1, #8
    1b80:	22822008 	addcs	r2, r2, #8
    1b84:	e3510010 	cmp	r1, #16
    1b88:	21a01221 	lsrcs	r1, r1, #4
    1b8c:	22822004 	addcs	r2, r2, #4
    1b90:	e3510004 	cmp	r1, #4
    1b94:	82822003 	addhi	r2, r2, #3
    1b98:	908220a1 	addls	r2, r2, r1, lsr #1
/home/kwilson/Projects/summon-arm-toolchain/build/arm-elf/libgcc/../../../gcc-4.5.2/libgcc/../gcc/config/arm/lib1funcs.asm:982
    1b9c:	e1a00230 	lsr	r0, r0, r2
/home/kwilson/Projects/summon-arm-toolchain/build/arm-elf/libgcc/../../../gcc-4.5.2/libgcc/../gcc/config/arm/lib1funcs.asm:983
    1ba0:	e12fff1e 	bx	lr
/home/kwilson/Projects/summon-arm-toolchain/build/arm-elf/libgcc/../../../gcc-4.5.2/libgcc/../gcc/config/arm/lib1funcs.asm:987
    1ba4:	e52de008 	str	lr, [sp, #-8]!
    1ba8:	eb00003c 	bl	1ca0 <__div0>
    1bac:	e3a00000 	mov	r0, #0
/home/kwilson/Projects/summon-arm-toolchain/build/arm-elf/libgcc/../../../gcc-4.5.2/libgcc/../gcc/config/arm/lib1funcs.asm:234
    1bb0:	e49df008 	ldr	pc, [sp], #8

00001bb4 <__aeabi_uidivmod>:
__aeabi_uidivmod():
/home/kwilson/Projects/summon-arm-toolchain/build/arm-elf/libgcc/../../../gcc-4.5.2/libgcc/../gcc/config/arm/lib1funcs.asm:1001
    1bb4:	e3510000 	cmp	r1, #0
/home/kwilson/Projects/summon-arm-toolchain/build/arm-elf/libgcc/../../../gcc-4.5.2/libgcc/../gcc/config/arm/lib1funcs.asm:1002
    1bb8:	0afffff9 	beq	1ba4 <__aeabi_uidiv+0xe8>
/home/kwilson/Projects/summon-arm-toolchain/build/arm-elf/libgcc/../../../gcc-4.5.2/libgcc/../gcc/config/arm/lib1funcs.asm:1003
    1bbc:	e92d4003 	push	{r0, r1, lr}
/home/kwilson/Projects/summon-arm-toolchain/build/arm-elf/libgcc/../../../gcc-4.5.2/libgcc/../gcc/config/arm/lib1funcs.asm:1004
    1bc0:	ebffffbd 	bl	1abc <__aeabi_uidiv>
/home/kwilson/Projects/summon-arm-toolchain/build/arm-elf/libgcc/../../../gcc-4.5.2/libgcc/../gcc/config/arm/lib1funcs.asm:1005
    1bc4:	e8bd4006 	pop	{r1, r2, lr}
/home/kwilson/Projects/summon-arm-toolchain/build/arm-elf/libgcc/../../../gcc-4.5.2/libgcc/../gcc/config/arm/lib1funcs.asm:1006
    1bc8:	e0030092 	mul	r3, r2, r0
/home/kwilson/Projects/summon-arm-toolchain/build/arm-elf/libgcc/../../../gcc-4.5.2/libgcc/../gcc/config/arm/lib1funcs.asm:1007
    1bcc:	e0411003 	sub	r1, r1, r3
/home/kwilson/Projects/summon-arm-toolchain/build/arm-elf/libgcc/../../../gcc-4.5.2/libgcc/../gcc/config/arm/lib1funcs.asm:1008
    1bd0:	e12fff1e 	bx	lr

00001bd4 <__umodsi3>:
__umodsi3():
/home/kwilson/Projects/summon-arm-toolchain/build/arm-elf/libgcc/../../../gcc-4.5.2/libgcc/../gcc/config/arm/lib1funcs.asm:1037
    1bd4:	e2512001 	subs	r2, r1, #1
/home/kwilson/Projects/summon-arm-toolchain/build/arm-elf/libgcc/../../../gcc-4.5.2/libgcc/../gcc/config/arm/lib1funcs.asm:1038
    1bd8:	3a00002c 	bcc	1c90 <__umodsi3+0xbc>
/home/kwilson/Projects/summon-arm-toolchain/build/arm-elf/libgcc/../../../gcc-4.5.2/libgcc/../gcc/config/arm/lib1funcs.asm:1039
    1bdc:	11500001 	cmpne	r0, r1
/home/kwilson/Projects/summon-arm-toolchain/build/arm-elf/libgcc/../../../gcc-4.5.2/libgcc/../gcc/config/arm/lib1funcs.asm:1040
    1be0:	03a00000 	moveq	r0, #0
/home/kwilson/Projects/summon-arm-toolchain/build/arm-elf/libgcc/../../../gcc-4.5.2/libgcc/../gcc/config/arm/lib1funcs.asm:1041
    1be4:	81110002 	tsthi	r1, r2
/home/kwilson/Projects/summon-arm-toolchain/build/arm-elf/libgcc/../../../gcc-4.5.2/libgcc/../gcc/config/arm/lib1funcs.asm:1042
    1be8:	00000002 	andeq	r0, r0, r2
/home/kwilson/Projects/summon-arm-toolchain/build/arm-elf/libgcc/../../../gcc-4.5.2/libgcc/../gcc/config/arm/lib1funcs.asm:1043
    1bec:	912fff1e 	bxls	lr
/home/kwilson/Projects/summon-arm-toolchain/build/arm-elf/libgcc/../../../gcc-4.5.2/libgcc/../gcc/config/arm/lib1funcs.asm:708
    1bf0:	e3a02000 	mov	r2, #0
    1bf4:	e3510201 	cmp	r1, #268435456	; 0x10000000
    1bf8:	31510000 	cmpcc	r1, r0
    1bfc:	31a01201 	lslcc	r1, r1, #4
    1c00:	32822004 	addcc	r2, r2, #4
    1c04:	3afffffa 	bcc	1bf4 <__umodsi3+0x20>
    1c08:	e3510102 	cmp	r1, #-2147483648	; 0x80000000
    1c0c:	31510000 	cmpcc	r1, r0
    1c10:	31a01081 	lslcc	r1, r1, #1
    1c14:	32822001 	addcc	r2, r2, #1
    1c18:	3afffffa 	bcc	1c08 <__umodsi3+0x34>
    1c1c:	e2522003 	subs	r2, r2, #3
    1c20:	ba00000e 	blt	1c60 <__umodsi3+0x8c>
    1c24:	e1500001 	cmp	r0, r1
    1c28:	20400001 	subcs	r0, r0, r1
    1c2c:	e15000a1 	cmp	r0, r1, lsr #1
    1c30:	204000a1 	subcs	r0, r0, r1, lsr #1
    1c34:	e1500121 	cmp	r0, r1, lsr #2
    1c38:	20400121 	subcs	r0, r0, r1, lsr #2
    1c3c:	e15001a1 	cmp	r0, r1, lsr #3
    1c40:	204001a1 	subcs	r0, r0, r1, lsr #3
    1c44:	e3500001 	cmp	r0, #1
    1c48:	e1a01221 	lsr	r1, r1, #4
    1c4c:	a2522004 	subsge	r2, r2, #4
    1c50:	aafffff3 	bge	1c24 <__umodsi3+0x50>
    1c54:	e3120003 	tst	r2, #3
    1c58:	13300000 	teqne	r0, #0
    1c5c:	0a00000a 	beq	1c8c <__umodsi3+0xb8>
    1c60:	e3720002 	cmn	r2, #2
    1c64:	ba000006 	blt	1c84 <__umodsi3+0xb0>
    1c68:	0a000002 	beq	1c78 <__umodsi3+0xa4>
    1c6c:	e1500001 	cmp	r0, r1
    1c70:	20400001 	subcs	r0, r0, r1
    1c74:	e1a010a1 	lsr	r1, r1, #1
    1c78:	e1500001 	cmp	r0, r1
    1c7c:	20400001 	subcs	r0, r0, r1
    1c80:	e1a010a1 	lsr	r1, r1, #1
    1c84:	e1500001 	cmp	r0, r1
    1c88:	20400001 	subcs	r0, r0, r1
/home/kwilson/Projects/summon-arm-toolchain/build/arm-elf/libgcc/../../../gcc-4.5.2/libgcc/../gcc/config/arm/lib1funcs.asm:1047
    1c8c:	e12fff1e 	bx	lr
/home/kwilson/Projects/summon-arm-toolchain/build/arm-elf/libgcc/../../../gcc-4.5.2/libgcc/../gcc/config/arm/lib1funcs.asm:1051
    1c90:	e52de008 	str	lr, [sp, #-8]!
    1c94:	eb000001 	bl	1ca0 <__div0>
    1c98:	e3a00000 	mov	r0, #0
/home/kwilson/Projects/summon-arm-toolchain/build/arm-elf/libgcc/../../../gcc-4.5.2/libgcc/../gcc/config/arm/lib1funcs.asm:234
    1c9c:	e49df008 	ldr	pc, [sp], #8

00001ca0 <__div0>:
__div0():
/home/kwilson/Projects/summon-arm-toolchain/build/arm-elf/libgcc/../../../gcc-4.5.2/libgcc/../gcc/config/arm/lib1funcs.asm:1242
    1ca0:	e12fff1e 	bx	lr
    1ca4:	63206e49 	.word	0x63206e49
    1ca8:	626c6c61 	.word	0x626c6c61
    1cac:	0a6b6361 	.word	0x0a6b6361
    1cb0:	43495600 	.word	0x43495600
    1cb4:	53515249 	.word	0x53515249
    1cb8:	75746174 	.word	0x75746174
    1cbc:	73692073 	.word	0x73692073
    1cc0:	6230093a 	.word	0x6230093a
    1cc4:	43495600 	.word	0x43495600
    1cc8:	49776152 	.word	0x49776152
    1ccc:	2072746e 	.word	0x2072746e
    1cd0:	093a7369 	.word	0x093a7369
    1cd4:	49006230 	.word	0x49006230
    1cd8:	53304332 	.word	0x53304332
    1cdc:	20544154 	.word	0x20544154
    1ce0:	093a7369 	.word	0x093a7369
    1ce4:	56006230 	.word	0x56006230
    1ce8:	6e494349 	.word	0x6e494349
    1cec:	616e4574 	.word	0x616e4574
    1cf0:	20656c62 	.word	0x20656c62
    1cf4:	093a7369 	.word	0x093a7369
    1cf8:	56006230 	.word	0x56006230
    1cfc:	65564349 	.word	0x65564349
    1d00:	64417463 	.word	0x64417463
    1d04:	20397264 	.word	0x20397264
    1d08:	093a7369 	.word	0x093a7369
    1d0c:	56006230 	.word	0x56006230
    1d10:	65564349 	.word	0x65564349
    1d14:	64417463 	.word	0x64417463
    1d18:	20387264 	.word	0x20387264
    1d1c:	093a7369 	.word	0x093a7369
    1d20:	70006230 	.word	0x70006230
    1d24:	20747361 	.word	0x20747361
    1d28:	72617473 	.word	0x72617473
    1d2c:	61782074 	.word	0x61782074
    1d30:	6f697463 	.word	0x6f697463
    1d34:	7277206e 	.word	0x7277206e
    1d38:	20657469 	.word	0x20657469
    1d3c:	69000a2e 	.word	0x69000a2e
    1d40:	77206332 	.word	0x77206332
    1d44:	65746972 	.word	0x65746972
    1d48:	63617820 	.word	0x63617820
    1d4c:	6e6f6974 	.word	0x6e6f6974
    1d50:	63757320 	.word	0x63757320
    1d54:	73736563 	.word	0x73736563
    1d58:	69000a2e 	.word	0x69000a2e
    1d5c:	77206332 	.word	0x77206332
    1d60:	65746972 	.word	0x65746972
    1d64:	63617820 	.word	0x63617820
    1d68:	6e6f6974 	.word	0x6e6f6974
    1d6c:	69616620 	.word	0x69616620
    1d70:	000a2e6c 	.word	0x000a2e6c
    1d74:	20633269 	.word	0x20633269
    1d78:	64616552 	.word	0x64616552
    1d7c:	6c6f4320 	.word	0x6c6f4320
    1d80:	5420726f 	.word	0x5420726f
    1d84:	2e6b7361 	.word	0x2e6b7361
    1d88:	000a2e2e 	.word	0x000a2e2e
    1d8c:	20633269 	.word	0x20633269
    1d90:	64616572 	.word	0x64616572
    1d94:	63617820 	.word	0x63617820
    1d98:	6e6f6974 	.word	0x6e6f6974
    1d9c:	63757320 	.word	0x63757320
    1da0:	73736563 	.word	0x73736563
    1da4:	69000a2e 	.word	0x69000a2e
    1da8:	72206332 	.word	0x72206332
    1dac:	20646165 	.word	0x20646165
    1db0:	74636178 	.word	0x74636178
    1db4:	206e6f69 	.word	0x206e6f69
    1db8:	6c696166 	.word	0x6c696166
    1dbc:	52000a2e 	.word	0x52000a2e
    1dc0:	20646165 	.word	0x20646165
    1dc4:	61746164 	.word	0x61746164
    1dc8:	69203020 	.word	0x69203020
    1dcc:	78302073 	.word	0x78302073
    1dd0:	2a2a0a00 	.word	0x2a2a0a00
    1dd4:	6174532a 	.word	0x6174532a
    1dd8:	6e697472 	.word	0x6e697472
    1ddc:	6c6f2067 	.word	0x6c6f2067
    1de0:	78656d69 	.word	0x78656d69
    1de4:	696c6220 	.word	0x696c6220
    1de8:	206d6b6e 	.word	0x206d6b6e
    1dec:	74736574 	.word	0x74736574
    1df0:	0a2a2a2a 	.word	0x0a2a2a2a
    1df4:	7063000a 	.word	0x7063000a
    1df8:	69207273 	.word	0x69207273
    1dfc:	30093a73 	.word	0x30093a73
    1e00:	0a0a0062 	.word	0x0a0a0062
    1e04:	442a2a2a 	.word	0x442a2a2a
    1e08:	2a656e6f 	.word	0x2a656e6f
    1e0c:	0a0a2a2a 	.word	0x0a0a2a2a
    1e10:	00000000 	.word	0x00000000
    1e14:	65746e45 	.word	0x65746e45
    1e18:	676e6972 	.word	0x676e6972
    1e1c:	63326920 	.word	0x63326920
    1e20:	73695f30 	.word	0x73695f30
    1e24:	00000072 	.word	0x00000072
    1e28:	74617473 	.word	0x74617473
    1e2c:	69207375 	.word	0x69207375
    1e30:	30203a73 	.word	0x30203a73
    1e34:	00000078 	.word	0x00000078
    1e38:	69206e49 	.word	0x69206e49
    1e3c:	695f6332 	.word	0x695f6332
    1e40:	0a74696e 	.word	0x0a74696e
    1e44:	00000000 	.word	0x00000000
    1e48:	69206e49 	.word	0x69206e49
    1e4c:	20306332 	.word	0x20306332
    1e50:	74696e69 	.word	0x74696e69
    1e54:	0000000a 	.word	0x0000000a
    1e58:	30433249 	.word	0x30433249
    1e5c:	54415453 	.word	0x54415453
    1e60:	3a736920 	.word	0x3a736920
    1e64:	00623009 	.word	0x00623009
    1e68:	52434956 	.word	0x52434956
    1e6c:	6e497761 	.word	0x6e497761
    1e70:	69207274 	.word	0x69207274
    1e74:	30093a73 	.word	0x30093a73
    1e78:	00000062 	.word	0x00000062
    1e7c:	49434956 	.word	0x49434956
    1e80:	6e45746e 	.word	0x6e45746e
    1e84:	656c6261 	.word	0x656c6261
    1e88:	3a736920 	.word	0x3a736920
    1e8c:	00623020 	.word	0x00623020
    1e90:	7466610a 	.word	0x7466610a
    1e94:	63207265 	.word	0x63207265
    1e98:	7261656c 	.word	0x7261656c
    1e9c:	20676e69 	.word	0x20676e69
    1ea0:	0a3a4953 	.word	0x0a3a4953
    1ea4:	00000000 	.word	0x00000000
    1ea8:	202a2a2a 	.word	0x202a2a2a
    1eac:	30433249 	.word	0x30433249
    1eb0:	5252452d 	.word	0x5252452d
    1eb4:	2a20524f 	.word	0x2a20524f
    1eb8:	203a2a2a 	.word	0x203a2a2a
    1ebc:	30433249 	.word	0x30433249
    1ec0:	73616d5f 	.word	0x73616d5f
    1ec4:	5f726574 	.word	0x5f726574
    1ec8:	74636178 	.word	0x74636178
    1ecc:	6954202c 	.word	0x6954202c
    1ed0:	2064656d 	.word	0x2064656d
    1ed4:	2074756f 	.word	0x2074756f
    1ed8:	74696177 	.word	0x74696177
    1edc:	20676e69 	.word	0x20676e69
    1ee0:	20726f66 	.word	0x20726f66
    1ee4:	30633269 	.word	0x30633269
    1ee8:	6e69625f 	.word	0x6e69625f
    1eec:	5f6d6573 	.word	0x5f6d6573
    1ef0:	53202e67 	.word	0x53202e67
    1ef4:	7070696b 	.word	0x7070696b
    1ef8:	20676e69 	.word	0x20676e69
    1efc:	75716552 	.word	0x75716552
    1f00:	2e747365 	.word	0x2e747365
    1f04:	0000000a 	.word	0x0000000a
    1f08:	202a2a2a 	.word	0x202a2a2a
    1f0c:	30433249 	.word	0x30433249
    1f10:	5252452d 	.word	0x5252452d
    1f14:	2a20524f 	.word	0x2a20524f
    1f18:	203a2a2a 	.word	0x203a2a2a
    1f1c:	30433249 	.word	0x30433249
    1f20:	73616d5f 	.word	0x73616d5f
    1f24:	5f726574 	.word	0x5f726574
    1f28:	74636178 	.word	0x74636178
    1f2c:	7473202c 	.word	0x7473202c
    1f30:	74637572 	.word	0x74637572
    1f34:	20657275 	.word	0x20657275
    1f38:	6e696f70 	.word	0x6e696f70
    1f3c:	20726574 	.word	0x20726574
    1f40:	4e207369 	.word	0x4e207369
    1f44:	2e4c4c55 	.word	0x2e4c4c55
    1f48:	696b5320 	.word	0x696b5320
    1f4c:	6e697070 	.word	0x6e697070
    1f50:	000a2e67 	.word	0x000a2e67
    1f54:	33323130 	.word	0x33323130
    1f58:	37363534 	.word	0x37363534
    1f5c:	62613938 	.word	0x62613938
    1f60:	66656463 	.word	0x66656463
    1f64:	00000000 	.word	0x00000000
