
blinkm-test.out:     file format elf32-littlearm

SYMBOL TABLE:
00000000 l    d  startup	00000000 startup
00000050 l    d  prog	00000000 prog
40000000 l    d  .bss	00000000 .bss
00000000 l    d  .ARM.attributes	00000000 .ARM.attributes
00000000 l    d  .comment	00000000 .comment
00000000 l    d  .debug_line	00000000 .debug_line
00000000 l    d  .debug_info	00000000 .debug_info
00000000 l    d  .debug_abbrev	00000000 .debug_abbrev
00000000 l    d  .debug_aranges	00000000 .debug_aranges
00000000 l    d  .debug_ranges	00000000 .debug_ranges
00000000 l    d  .debug_loc	00000000 .debug_loc
00000000 l    d  .debug_pubnames	00000000 .debug_pubnames
00000000 l    d  .debug_pubtypes	00000000 .debug_pubtypes
00000000 l    d  .debug_str	00000000 .debug_str
00000000 l    d  .debug_frame	00000000 .debug_frame
00000004 l       *ABS*	00000000 UND_STACK_SIZE
00000004 l       *ABS*	00000000 ABT_STACK_SIZE
00000004 l       *ABS*	00000000 FIQ_STACK_SIZE
00000100 l       *ABS*	00000000 IRQ_STACK_SIZE
00000100 l       *ABS*	00000000 SVC_STACK_SIZE
00000010 l       *ABS*	00000000 MODE_USR
00000011 l       *ABS*	00000000 MODE_FIQ
00000012 l       *ABS*	00000000 MODE_IRQ
00000013 l       *ABS*	00000000 MODE_SVC
00000017 l       *ABS*	00000000 MODE_ABT
0000001b l       *ABS*	00000000 MODE_UND
0000001f l       *ABS*	00000000 MODE_SYS
00000080 l       *ABS*	00000000 I_BIT
00000040 l       *ABS*	00000000 F_BIT
00000050 l       prog	00000000 _start
00000050 l       prog	00000000 _mainCRTStartup
000000bc l       prog	00000000 .end_clear_loop
000000b0 l       prog	00000000 .clear_loop
000000e0 l       prog	00000000 .end_set_loop
000000d0 l       prog	00000000 .set_loop
00000020 l       startup	00000000 _undf
00000024 l       startup	00000000 _swi
00000028 l       startup	00000000 _pabt
0000002c l       startup	00000000 _dabt
00000030 l       startup	00000000 _fiq
00000034 l       startup	00000000 __undf
00000038 l       startup	00000000 __pabt
0000003c l       startup	00000000 __dabt
00000040 l       startup	00000000 __fiq
00000000 l    df *ABS*	00000000 blinkm-test.c
00000000 l    df *ABS*	00000000 hwsys.c
00000000 l    df *ABS*	00000000 lpc23xx-i2c.c
00000000 l    df *ABS*	00000000 lpc23xx-pll.c
00000000 l    df *ABS*	00000000 lpc23xx-uart.c
40000268 l     O .bss	00000079 uart0_linebuffer.1328
00000000 l    df *ABS*	00000000 lpc23xx-util.c
400002e4 l     O .bss	00000021 ibuf.1602
40000308 l     O .bss	00000021 ibuf.1612
00000000 l       *ABS*	00000000 LOCKED
00000001 l       *ABS*	00000000 UNLOCKED
000016d4 l       prog	00000000 is_locked
000016e4 l       prog	00000000 not_locked
000016e8 l       prog	00000000 end_is_binsem_locked
00001704 l       prog	00000000 spin_lock
00001724 l       prog	00000000 waitcount
00001744 l       prog	00000000 gotlock
00001754 l       prog	00000000 timeout
00001758 l       prog	00000000 end_get_binsem
0000179c l       prog	00000000 was_not_locked
0000178c l       prog	00000000 released_lock
000017a0 l       prog	00000000 end_release_binsem
00000000 l    df *ABS*	00000000 olimex2378_util.c
0000196c l       prog	00000000 .udivsi3_skip_div0_test
000016f0 g       prog	00000000 get_binsem
00001044 g     F prog	000000ec pllstart_fourtyeightmhz
0000145c g     F prog	00000060 uart0_getstring
400001c0 g     O .bss	0000008c i2c2_s_g
00000964 g     F prog	0000000c i2c_create_write_address
40000130 g     O .bss	0000008c i2c1_s_g
00000448 g     F prog	00000004 UNDEF_Routine
00000454 g     F prog	00000500 i2c0_isr
4000032c g       *ABS*	00000000 _bss_end__
40000094 g     O .bss	0000008c i2c0_s_g
40000124 g     O .bss	00000004 i2c0_s_caller_g
40000128 g     O .bss	00000004 i2c0_binsem_g
0000017c g     F prog	00000250 blinkm_task
00000df8 g     F prog	00000068 pllstop
4000025c g     O .bss	00000004 pllstat
00000dcc g     F prog	0000002c pllfeed
0000044c g     F prog	00000004 i2c1_isr
00001760 g       prog	00000000 release_binsem
00000450 g     F prog	00000004 i2c2_isr
0000196c g     F prog	000000f8 __udivsi3
40000254 g     O .bss	00000004 i2c1_s_caller_g
00000970 g     F prog	00000044 i2c_init_state
00001150 g     F prog	00000010 uart0_query_stopbits
00001160 g     F prog	00000118 uart0_init_9600
00000444 g     F prog	00000004 SWI_Routine
00000e60 g     F prog	000000f4 pllstart_seventytwomhz
4000012c g     O .bss	00000004 i2c1_binsem_g
000016ac g       prog	00000000 is_binsem_locked
000014e0 g     F prog	00000024 millisecondsToCPUTicks
40001d80 g       prog	00000000 __data_beg_src__
7fe00000 g       .ARM.attributes	00000000 __ethram_end__
00000440 g     F prog	00000004 FIQ_Routine
00001a84 g     F prog	000000cc __umodsi3
000017dc g     F prog	000000c8 stat_led_flash_slow
40000120 g     O .bss	00000004 _i2c0_FnCallback_g
40000000 g       prog	00000000 __data_end__
00000dbc g     F prog	00000010 pllquery_cclk_mhz
7fe00000 g       .ARM.attributes	00000000 __ethram_beg__
4000032c g       *ABS*	00000000 __bss_end__
00001430 g     F prog	0000002c uart0_getchar
40000000 g       prog	00000000 __data_beg__
000015e4 g     F prog	000000a4 util_uitoa
00001140 g     F prog	00000010 uart0_query_charlength
000014bc g     F prog	00000024 microsecondsToCPUTicks
000003cc g     F prog	00000070 main
00000f54 g     F prog	000000f0 pllstart_sixtymhz
00001b50 g     F prog	00000004 __div0
00001d80 g       *ABS*	00000000 __end_of_text__
0000196c g     F prog	00000000 __aeabi_uidiv
4000032c g       *ABS*	00000000 __end__
00000954 g     F prog	00000010 i2c_create_read_address
40000090 g     O .bss	00000004 i2c_rdindex_g
00001504 g     F prog	000000e0 util_itoa
4000008c g     O .bss	00000004 i2c_wrindex_g
400001bc g     O .bss	00000004 i2c2_binsem_g
00001130 g     F prog	00000010 uart0_query_baud
0000043c g     F prog	00000004 IRQ_Routine
7fd00000 g       .ARM.attributes	00000000 __usbram_end__
000009b4 g     F prog	00000328 i2c_init
00001690 g       prog	00000000 init_binsem
000013a0 g     F prog	00000060 uart0_putchar
40000250 g     O .bss	00000004 _i2c2_FnCallback_g
00001a64 g     F prog	00000020 __aeabi_uidivmod
7fd00000 g       .ARM.attributes	00000000 __usbram_beg__
7fe00000 g       *ABS*	00000000 _end
40000258 g     O .bss	00000004 i2c2_s_caller_g
40000000 g     O .bss	0000008c xact_s
00001688 g     F prog	00000004 util_waitticks
40000000 g       .bss	00000000 __bss_beg__
00000050 g       prog	00000000 start
00001278 g     F prog	00000128 uart0_init_115200
00000cdc g     F prog	000000e0 start_i2c0_master_xact
40007ffc g       *ABS*	00000000 __stack_end__
00000108 g     F prog	00000074 xact_callback
4000024c g     O .bss	00000004 _i2c1_FnCallback_g
000000ec g       prog	00000000 endless_loop
00001400 g     F prog	00000030 uart0_putstring
000018a4 g     F prog	000000c8 stat_led_flash
000017b0 g     F prog	0000002c init_stat_led
40000260 g     O .bss	00000008 uart0stat



Disassembly of section startup:

00000000 <_undf-0x20>:
/home/kwilson/Projects/psaseclipse/olimex2378/olimex2378-i2c/blinkm-test/boot.s:139

.section .startup,"ax"
         .code 32
         .align 0

	b     _start						/* reset - _start			*/
   0:	ea000012 	b	50 <start>
/home/kwilson/Projects/psaseclipse/olimex2378/olimex2378-i2c/blinkm-test/boot.s:140
	ldr   pc, _undf						/* undefined - _undf		*/
   4:	e59ff014 	ldr	pc, [pc, #20]	; 20 <_undf>
/home/kwilson/Projects/psaseclipse/olimex2378/olimex2378-i2c/blinkm-test/boot.s:141
	ldr   pc, _swi						/* SWI - _swi				*/
   8:	e59ff014 	ldr	pc, [pc, #20]	; 24 <_swi>
/home/kwilson/Projects/psaseclipse/olimex2378/olimex2378-i2c/blinkm-test/boot.s:142
	ldr   pc, _pabt						/* program abort - _pabt	*/
   c:	e59ff014 	ldr	pc, [pc, #20]	; 28 <_pabt>
/home/kwilson/Projects/psaseclipse/olimex2378/olimex2378-i2c/blinkm-test/boot.s:143
	ldr   pc, _dabt						/* data abort - _dabt		*/
  10:	e59ff014 	ldr	pc, [pc, #20]	; 2c <_dabt>
/home/kwilson/Projects/psaseclipse/olimex2378/olimex2378-i2c/blinkm-test/boot.s:144
	nop									/* reserved					*/
  14:	e1a00000 	nop			; (mov r0, r0)
/home/kwilson/Projects/psaseclipse/olimex2378/olimex2378-i2c/blinkm-test/boot.s:145
	ldr   pc, [pc,#-0x120]				/* IRQ - read the VIC		*/
  18:	e51ff120 	ldr	pc, [pc, #-288]	; ffffff00 <_end+0x801fff00>
/home/kwilson/Projects/psaseclipse/olimex2378/olimex2378-i2c/blinkm-test/boot.s:146
	ldr   pc, _fiq						/* FIQ - _fiq				*/
  1c:	e59ff00c 	ldr	pc, [pc, #12]	; 30 <_fiq>

00000020 <_undf>:
_undf():
  20:	00000034 	.word	0x00000034

00000024 <_swi>:
_swi():
  24:	00000444 	.word	0x00000444

00000028 <_pabt>:
_pabt():
  28:	00000038 	.word	0x00000038

0000002c <_dabt>:
_dabt():
  2c:	0000003c 	.word	0x0000003c

00000030 <_fiq>:
_fiq():
  30:	00000040 	.word	0x00000040

00000034 <__undf>:
__undf():
/home/kwilson/Projects/psaseclipse/olimex2378/olimex2378-i2c/blinkm-test/boot.s:154
_swi:   .word SWI_Routine       /* SWI						*/
_pabt:  .word __pabt                    /* program abort			*/
_dabt:  .word __dabt                    /* data abort				*/
_fiq:   .word __fiq                     /* FIQ						*/

__undf: b     .                         /* undefined				*/
  34:	eafffffe 	b	34 <__undf>

00000038 <__pabt>:
__pabt():
/home/kwilson/Projects/psaseclipse/olimex2378/olimex2378-i2c/blinkm-test/boot.s:155
__pabt: b     .                         /* program abort			*/
  38:	eafffffe 	b	38 <__pabt>

0000003c <__dabt>:
__dabt():
/home/kwilson/Projects/psaseclipse/olimex2378/olimex2378-i2c/blinkm-test/boot.s:156
__dabt: b     .                         /* data abort				*/
  3c:	eafffffe 	b	3c <__dabt>

00000040 <__fiq>:
__fiq():
/home/kwilson/Projects/psaseclipse/olimex2378/olimex2378-i2c/blinkm-test/boot.s:157
__fiq:  b     .                         /* FIQ						*/
  40:	eafffffe 	b	40 <__fiq>

Disassembly of section prog:

00000050 <start>:
start():
/home/kwilson/Projects/psaseclipse/olimex2378/olimex2378-i2c/blinkm-test/boot.s:49
_mainCRTStartup:

	/* Setup a stack for each mode - note that this only sets up a usable stack
	for system/user, SWI and IRQ modes.   Also each mode is setup with
	interrupts initially disabled. */
    ldr   r0, .LC6
      50:	e59f00ac 	ldr	r0, [pc, #172]	; 104 <IRQ_STACK_SIZE+0x4>
/home/kwilson/Projects/psaseclipse/olimex2378/olimex2378-i2c/blinkm-test/boot.s:50
    msr   CPSR_c, #MODE_UND|I_BIT|F_BIT /* Undefined Instruction Mode
      54:	e321f0db 	msr	CPSR_c, #219	; 0xdb
/home/kwilson/Projects/psaseclipse/olimex2378/olimex2378-i2c/blinkm-test/boot.s:54
    mov   sp, r0
    sub   r0, r0, #UND_STACK_SIZE
    msr   CPSR_c, #MODE_ABT|I_BIT|F_BIT /* Abort Mode */
    mov   sp, r0
      58:	e1a0d000 	mov	sp, r0
/home/kwilson/Projects/psaseclipse/olimex2378/olimex2378-i2c/blinkm-test/boot.s:55
    sub   r0, r0, #ABT_STACK_SIZE
      5c:	e2400004 	sub	r0, r0, #4
/home/kwilson/Projects/psaseclipse/olimex2378/olimex2378-i2c/blinkm-test/boot.s:56
    msr   CPSR_c, #MODE_FIQ|I_BIT|F_BIT /* FIQ Mode */
      60:	e321f0d1 	msr	CPSR_c, #209	; 0xd1
/home/kwilson/Projects/psaseclipse/olimex2378/olimex2378-i2c/blinkm-test/boot.s:57
    mov   sp, r0
      64:	e1a0d000 	mov	sp, r0
/home/kwilson/Projects/psaseclipse/olimex2378/olimex2378-i2c/blinkm-test/boot.s:58
    sub   r0, r0, #FIQ_STACK_SIZE
      68:	e2400004 	sub	r0, r0, #4
/home/kwilson/Projects/psaseclipse/olimex2378/olimex2378-i2c/blinkm-test/boot.s:59
    msr   CPSR_c, #MODE_IRQ|I_BIT|F_BIT /* IRQ Mode */
      6c:	e321f0d2 	msr	CPSR_c, #210	; 0xd2
/home/kwilson/Projects/psaseclipse/olimex2378/olimex2378-i2c/blinkm-test/boot.s:60
    mov   sp, r0
      70:	e1a0d000 	mov	sp, r0
/home/kwilson/Projects/psaseclipse/olimex2378/olimex2378-i2c/blinkm-test/boot.s:61
    sub   r0, r0, #IRQ_STACK_SIZE
      74:	e2400c01 	sub	r0, r0, #256	; 0x100
/home/kwilson/Projects/psaseclipse/olimex2378/olimex2378-i2c/blinkm-test/boot.s:62
    msr   CPSR_c, #MODE_SVC|I_BIT|F_BIT /* Supervisor Mode */
      78:	e321f0d3 	msr	CPSR_c, #211	; 0xd3
/home/kwilson/Projects/psaseclipse/olimex2378/olimex2378-i2c/blinkm-test/boot.s:63
    mov   sp, r0
      7c:	e1a0d000 	mov	sp, r0
/home/kwilson/Projects/psaseclipse/olimex2378/olimex2378-i2c/blinkm-test/boot.s:64
    sub   r0, r0, #SVC_STACK_SIZE
      80:	e2400c01 	sub	r0, r0, #256	; 0x100
/home/kwilson/Projects/psaseclipse/olimex2378/olimex2378-i2c/blinkm-test/boot.s:65
    msr   CPSR_c, #MODE_SYS|I_BIT|F_BIT /* System Mode */
      84:	e321f0df 	msr	CPSR_c, #223	; 0xdf
/home/kwilson/Projects/psaseclipse/olimex2378/olimex2378-i2c/blinkm-test/boot.s:66
    mov   sp, r0
      88:	e1a0d000 	mov	sp, r0
/home/kwilson/Projects/psaseclipse/olimex2378/olimex2378-i2c/blinkm-test/boot.s:70

	/* We want to start in supervisor mode.  Operation will switch to system
	mode when the first task starts. */
	msr   CPSR_c, #MODE_SVC|I_BIT|F_BIT
      8c:	e321f0d3 	msr	CPSR_c, #211	; 0xd3
/home/kwilson/Projects/psaseclipse/olimex2378/olimex2378-i2c/blinkm-test/boot.s:74

	/* Clear BSS. */

	mov     a2, #0			/* Fill value */
      90:	e3a01000 	mov	r1, #0
/home/kwilson/Projects/psaseclipse/olimex2378/olimex2378-i2c/blinkm-test/boot.s:75
	mov		fp, a2			/* Null frame pointer */
      94:	e1a0b001 	mov	fp, r1
/home/kwilson/Projects/psaseclipse/olimex2378/olimex2378-i2c/blinkm-test/boot.s:76
	mov		r7, a2			/* Null frame pointer for Thumb */
      98:	e1a07001 	mov	r7, r1
/home/kwilson/Projects/psaseclipse/olimex2378/olimex2378-i2c/blinkm-test/boot.s:78

	ldr		r1, .LC1		/* Start of memory block */
      9c:	e59f104c 	ldr	r1, [pc, #76]	; f0 <endless_loop+0x4>
/home/kwilson/Projects/psaseclipse/olimex2378/olimex2378-i2c/blinkm-test/boot.s:79
	ldr		r3, .LC2		/* End of memory block */
      a0:	e59f304c 	ldr	r3, [pc, #76]	; f4 <endless_loop+0x8>
/home/kwilson/Projects/psaseclipse/olimex2378/olimex2378-i2c/blinkm-test/boot.s:80
	subs	r3, r3, r1      /* Length of block */
      a4:	e0533001 	subs	r3, r3, r1
/home/kwilson/Projects/psaseclipse/olimex2378/olimex2378-i2c/blinkm-test/boot.s:81
	beq		.end_clear_loop
      a8:	0a000003 	beq	bc <.end_clear_loop>
/home/kwilson/Projects/psaseclipse/olimex2378/olimex2378-i2c/blinkm-test/boot.s:82
	mov		r2, #0
      ac:	e3a02000 	mov	r2, #0

000000b0 <.clear_loop>:
.clear_loop():
/home/kwilson/Projects/psaseclipse/olimex2378/olimex2378-i2c/blinkm-test/boot.s:85

.clear_loop:
	strb	r2, [r1], #1
      b0:	e4c12001 	strb	r2, [r1], #1
/home/kwilson/Projects/psaseclipse/olimex2378/olimex2378-i2c/blinkm-test/boot.s:86
	subs	r3, r3, #1
      b4:	e2533001 	subs	r3, r3, #1
/home/kwilson/Projects/psaseclipse/olimex2378/olimex2378-i2c/blinkm-test/boot.s:87
	bgt		.clear_loop
      b8:	cafffffc 	bgt	b0 <.clear_loop>

000000bc <.end_clear_loop>:
.end_clear_loop():
/home/kwilson/Projects/psaseclipse/olimex2378/olimex2378-i2c/blinkm-test/boot.s:93

.end_clear_loop:

	/* Initialise data. */

	ldr		r1, .LC3		/* Start of memory block */
      bc:	e59f1034 	ldr	r1, [pc, #52]	; f8 <endless_loop+0xc>
/home/kwilson/Projects/psaseclipse/olimex2378/olimex2378-i2c/blinkm-test/boot.s:94
	ldr		r2, .LC4		/* End of memory block */
      c0:	e59f2034 	ldr	r2, [pc, #52]	; fc <endless_loop+0x10>
/home/kwilson/Projects/psaseclipse/olimex2378/olimex2378-i2c/blinkm-test/boot.s:95
	ldr		r3, .LC5
      c4:	e59f3034 	ldr	r3, [pc, #52]	; 100 <IRQ_STACK_SIZE>
/home/kwilson/Projects/psaseclipse/olimex2378/olimex2378-i2c/blinkm-test/boot.s:96
	subs	r3, r3, r1		/* Length of block */
      c8:	e0533001 	subs	r3, r3, r1
/home/kwilson/Projects/psaseclipse/olimex2378/olimex2378-i2c/blinkm-test/boot.s:97
	beq		.end_set_loop
      cc:	0a000003 	beq	e0 <.end_set_loop>

000000d0 <.set_loop>:
.set_loop():
/home/kwilson/Projects/psaseclipse/olimex2378/olimex2378-i2c/blinkm-test/boot.s:100

.set_loop:
	ldrb	r4, [r2], #1
      d0:	e4d24001 	ldrb	r4, [r2], #1
/home/kwilson/Projects/psaseclipse/olimex2378/olimex2378-i2c/blinkm-test/boot.s:101
	strb	r4, [r1], #1
      d4:	e4c14001 	strb	r4, [r1], #1
/home/kwilson/Projects/psaseclipse/olimex2378/olimex2378-i2c/blinkm-test/boot.s:102
	subs	r3, r3, #1
      d8:	e2533001 	subs	r3, r3, #1
/home/kwilson/Projects/psaseclipse/olimex2378/olimex2378-i2c/blinkm-test/boot.s:103
	bgt		.set_loop
      dc:	cafffffb 	bgt	d0 <.set_loop>

000000e0 <.end_set_loop>:
.end_set_loop():
/home/kwilson/Projects/psaseclipse/olimex2378/olimex2378-i2c/blinkm-test/boot.s:107

.end_set_loop:

	mov		r0, #0          /* no arguments  */
      e0:	e3a00000 	mov	r0, #0
/home/kwilson/Projects/psaseclipse/olimex2378/olimex2378-i2c/blinkm-test/boot.s:108
	mov		r1, #0          /* no argv either */
      e4:	e3a01000 	mov	r1, #0
/home/kwilson/Projects/psaseclipse/olimex2378/olimex2378-i2c/blinkm-test/boot.s:110

	bl		main
      e8:	eb0000b7 	bl	3cc <main>

000000ec <endless_loop>:
endless_loop():
/home/kwilson/Projects/psaseclipse/olimex2378/olimex2378-i2c/blinkm-test/boot.s:113

endless_loop:
	b               endless_loop
      ec:	eafffffe 	b	ec <endless_loop>
      f0:	40000000 	.word	0x40000000
      f4:	4000032c 	.word	0x4000032c
      f8:	40000000 	.word	0x40000000
      fc:	40001d80 	.word	0x40001d80
     100:	40000000 	.word	0x40000000
     104:	40007ffc 	.word	0x40007ffc

00000108 <xact_callback>:
xact_callback():
/home/kwilson/Projects/psaseclipse/olimex2378/olimex2378-i2c/blinkm-test/blinkm-test.c:27

/*
 * xact_callback
 * callback function for i2c
 */
void xact_callback(i2c_master_xact_t* caller, i2c_master_xact_t* i2c_s) {
     108:	e92d4010 	push	{r4, lr}
     10c:	e3a03000 	mov	r3, #0
/home/kwilson/Projects/psaseclipse/olimex2378/olimex2378-i2c/blinkm-test/blinkm-test.c:30
    uint16_t i;
    for(i=0; i<I2C_MAX_BUFFER; ++i) {
        caller->i2c_tx_buffer[i] = i2c_s->i2c_tx_buffer[i];
     110:	e081c003 	add	ip, r1, r3
     114:	e5dc4004 	ldrb	r4, [ip, #4]
     118:	e0802003 	add	r2, r0, r3
     11c:	e20440ff 	and	r4, r4, #255	; 0xff
     120:	e5c24004 	strb	r4, [r2, #4]
/home/kwilson/Projects/psaseclipse/olimex2378/olimex2378-i2c/blinkm-test/blinkm-test.c:31
        caller->i2c_rd_buffer[i] = i2c_s->i2c_rd_buffer[i];
     124:	e5dcc044 	ldrb	ip, [ip, #68]	; 0x44
     128:	e2833001 	add	r3, r3, #1
     12c:	e20cc0ff 	and	ip, ip, #255	; 0xff
/home/kwilson/Projects/psaseclipse/olimex2378/olimex2378-i2c/blinkm-test/blinkm-test.c:29
 * xact_callback
 * callback function for i2c
 */
void xact_callback(i2c_master_xact_t* caller, i2c_master_xact_t* i2c_s) {
    uint16_t i;
    for(i=0; i<I2C_MAX_BUFFER; ++i) {
     130:	e3530040 	cmp	r3, #64	; 0x40
/home/kwilson/Projects/psaseclipse/olimex2378/olimex2378-i2c/blinkm-test/blinkm-test.c:31
        caller->i2c_tx_buffer[i] = i2c_s->i2c_tx_buffer[i];
        caller->i2c_rd_buffer[i] = i2c_s->i2c_rd_buffer[i];
     134:	e5c2c044 	strb	ip, [r2, #68]	; 0x44
/home/kwilson/Projects/psaseclipse/olimex2378/olimex2378-i2c/blinkm-test/blinkm-test.c:29
 * xact_callback
 * callback function for i2c
 */
void xact_callback(i2c_master_xact_t* caller, i2c_master_xact_t* i2c_s) {
    uint16_t i;
    for(i=0; i<I2C_MAX_BUFFER; ++i) {
     138:	1afffff4 	bne	110 <xact_callback+0x8>
/home/kwilson/Projects/psaseclipse/olimex2378/olimex2378-i2c/blinkm-test/blinkm-test.c:34
        caller->i2c_tx_buffer[i] = i2c_s->i2c_tx_buffer[i];
        caller->i2c_rd_buffer[i] = i2c_s->i2c_rd_buffer[i];
    }

    caller->i2c_ext_slave_address = i2c_s->i2c_ext_slave_address;
     13c:	e5d13084 	ldrb	r3, [r1, #132]	; 0x84
     140:	e20330ff 	and	r3, r3, #255	; 0xff
     144:	e5c03084 	strb	r3, [r0, #132]	; 0x84
/home/kwilson/Projects/psaseclipse/olimex2378/olimex2378-i2c/blinkm-test/blinkm-test.c:35
    caller->write_length          = i2c_s->write_length;
     148:	e5d13085 	ldrb	r3, [r1, #133]	; 0x85
     14c:	e20330ff 	and	r3, r3, #255	; 0xff
     150:	e5c03085 	strb	r3, [r0, #133]	; 0x85
/home/kwilson/Projects/psaseclipse/olimex2378/olimex2378-i2c/blinkm-test/blinkm-test.c:36
    caller->read_length           = i2c_s->read_length;
     154:	e5d13086 	ldrb	r3, [r1, #134]	; 0x86
     158:	e20330ff 	and	r3, r3, #255	; 0xff
     15c:	e5c03086 	strb	r3, [r0, #134]	; 0x86
/home/kwilson/Projects/psaseclipse/olimex2378/olimex2378-i2c/blinkm-test/blinkm-test.c:37
    caller->xact_active           = i2c_s->xact_active;
     160:	e5d13087 	ldrb	r3, [r1, #135]	; 0x87
     164:	e20330ff 	and	r3, r3, #255	; 0xff
     168:	e5c03087 	strb	r3, [r0, #135]	; 0x87
/home/kwilson/Projects/psaseclipse/olimex2378/olimex2378-i2c/blinkm-test/blinkm-test.c:38
    caller->xact_success          = i2c_s->xact_success;
     16c:	e5d13088 	ldrb	r3, [r1, #136]	; 0x88
     170:	e20330ff 	and	r3, r3, #255	; 0xff
     174:	e5c03088 	strb	r3, [r0, #136]	; 0x88
/home/kwilson/Projects/psaseclipse/olimex2378/olimex2378-i2c/blinkm-test/blinkm-test.c:40
    /* maybe trigger an interrupt here */
}
     178:	e8bd8010 	pop	{r4, pc}

0000017c <blinkm_task>:
blinkm_task():
/home/kwilson/Projects/psaseclipse/olimex2378/olimex2378-i2c/blinkm-test/blinkm-test.c:46

/*
 * blinkm_task
 * 
 */
void blinkm_task() {
     17c:	e92d45f0 	push	{r4, r5, r6, r7, r8, sl, lr}
/home/kwilson/Projects/psaseclipse/olimex2378/olimex2378-i2c/blinkm-test/blinkm-test.c:51

    uint32_t i;
    uint32_t on;

    xact_s.i2c_tx_buffer[0] =  i2c_create_write_address(BLINKM_ADDR);
     180:	e3a00009 	mov	r0, #9
     184:	eb0001f6 	bl	964 <i2c_create_write_address>
     188:	e59f41fc 	ldr	r4, [pc, #508]	; 38c <blinkm_task+0x210>
/home/kwilson/Projects/psaseclipse/olimex2378/olimex2378-i2c/blinkm-test/blinkm-test.c:52
    xact_s.i2c_tx_buffer[1] =  'o';
     18c:	e3a0306f 	mov	r3, #111	; 0x6f
/home/kwilson/Projects/psaseclipse/olimex2378/olimex2378-i2c/blinkm-test/blinkm-test.c:51
void blinkm_task() {

    uint32_t i;
    uint32_t on;

    xact_s.i2c_tx_buffer[0] =  i2c_create_write_address(BLINKM_ADDR);
     190:	e5c40004 	strb	r0, [r4, #4]
/home/kwilson/Projects/psaseclipse/olimex2378/olimex2378-i2c/blinkm-test/blinkm-test.c:52
    xact_s.i2c_tx_buffer[1] =  'o';
     194:	e5c43005 	strb	r3, [r4, #5]
/home/kwilson/Projects/psaseclipse/olimex2378/olimex2378-i2c/blinkm-test/blinkm-test.c:53
    xact_s.i2c_tx_buffer[2] =  'n';
     198:	e3a0306e 	mov	r3, #110	; 0x6e
     19c:	e5c43006 	strb	r3, [r4, #6]
/home/kwilson/Projects/psaseclipse/olimex2378/olimex2378-i2c/blinkm-test/blinkm-test.c:54
    xact_s.i2c_tx_buffer[3] =  0xbd;
     1a0:	e3e03042 	mvn	r3, #66	; 0x42
     1a4:	e5c43007 	strb	r3, [r4, #7]
/home/kwilson/Projects/psaseclipse/olimex2378/olimex2378-i2c/blinkm-test/blinkm-test.c:55
    xact_s.i2c_tx_buffer[4] =  0x10;
     1a8:	e2833053 	add	r3, r3, #83	; 0x53
     1ac:	e5c43008 	strb	r3, [r4, #8]
/home/kwilson/Projects/psaseclipse/olimex2378/olimex2378-i2c/blinkm-test/blinkm-test.c:56
    xact_s.i2c_tx_buffer[5] =  0x03;
     1b0:	e3a03003 	mov	r3, #3
     1b4:	e5c43009 	strb	r3, [r4, #9]
/home/kwilson/Projects/psaseclipse/olimex2378/olimex2378-i2c/blinkm-test/blinkm-test.c:59
    xact_s.write_length     =  0x06;
    xact_s.read_length      =  0x0;
    start_i2c0_master_xact(&xact_s, &xact_callback);
     1b8:	e59f11d0 	ldr	r1, [pc, #464]	; 390 <blinkm_task+0x214>
/home/kwilson/Projects/psaseclipse/olimex2378/olimex2378-i2c/blinkm-test/blinkm-test.c:57
    xact_s.i2c_tx_buffer[1] =  'o';
    xact_s.i2c_tx_buffer[2] =  'n';
    xact_s.i2c_tx_buffer[3] =  0xbd;
    xact_s.i2c_tx_buffer[4] =  0x10;
    xact_s.i2c_tx_buffer[5] =  0x03;
    xact_s.write_length     =  0x06;
     1bc:	e0833003 	add	r3, r3, r3
/home/kwilson/Projects/psaseclipse/olimex2378/olimex2378-i2c/blinkm-test/blinkm-test.c:59
    xact_s.read_length      =  0x0;
    start_i2c0_master_xact(&xact_s, &xact_callback);
     1c0:	e1a00004 	mov	r0, r4
/home/kwilson/Projects/psaseclipse/olimex2378/olimex2378-i2c/blinkm-test/blinkm-test.c:58
    xact_s.i2c_tx_buffer[2] =  'n';
    xact_s.i2c_tx_buffer[3] =  0xbd;
    xact_s.i2c_tx_buffer[4] =  0x10;
    xact_s.i2c_tx_buffer[5] =  0x03;
    xact_s.write_length     =  0x06;
    xact_s.read_length      =  0x0;
     1c4:	e3a05000 	mov	r5, #0
/home/kwilson/Projects/psaseclipse/olimex2378/olimex2378-i2c/blinkm-test/blinkm-test.c:57
    xact_s.i2c_tx_buffer[1] =  'o';
    xact_s.i2c_tx_buffer[2] =  'n';
    xact_s.i2c_tx_buffer[3] =  0xbd;
    xact_s.i2c_tx_buffer[4] =  0x10;
    xact_s.i2c_tx_buffer[5] =  0x03;
    xact_s.write_length     =  0x06;
     1c8:	e5c43085 	strb	r3, [r4, #133]	; 0x85
/home/kwilson/Projects/psaseclipse/olimex2378/olimex2378-i2c/blinkm-test/blinkm-test.c:62
    xact_s.read_length      =  0x0;
    start_i2c0_master_xact(&xact_s, &xact_callback);

    uart0_putstring("VICIRQStatus is:\t0b");
    uart0_putstring(util_uitoa(VICIRQStatus,2));
     1cc:	e3e06000 	mvn	r6, #0
/home/kwilson/Projects/psaseclipse/olimex2378/olimex2378-i2c/blinkm-test/blinkm-test.c:58
    xact_s.i2c_tx_buffer[2] =  'n';
    xact_s.i2c_tx_buffer[3] =  0xbd;
    xact_s.i2c_tx_buffer[4] =  0x10;
    xact_s.i2c_tx_buffer[5] =  0x03;
    xact_s.write_length     =  0x06;
    xact_s.read_length      =  0x0;
     1d0:	e5c45086 	strb	r5, [r4, #134]	; 0x86
/home/kwilson/Projects/psaseclipse/olimex2378/olimex2378-i2c/blinkm-test/blinkm-test.c:59
    start_i2c0_master_xact(&xact_s, &xact_callback);
     1d4:	eb0002c0 	bl	cdc <start_i2c0_master_xact>
/home/kwilson/Projects/psaseclipse/olimex2378/olimex2378-i2c/blinkm-test/blinkm-test.c:61

    uart0_putstring("VICIRQStatus is:\t0b");
     1d8:	e59f01b4 	ldr	r0, [pc, #436]	; 394 <blinkm_task+0x218>
     1dc:	eb000487 	bl	1400 <uart0_putstring>
/home/kwilson/Projects/psaseclipse/olimex2378/olimex2378-i2c/blinkm-test/blinkm-test.c:62
    uart0_putstring(util_uitoa(VICIRQStatus,2));
     1e0:	e3a01002 	mov	r1, #2
     1e4:	e5160fff 	ldr	r0, [r6, #-4095]	; 0xfff
     1e8:	eb0004fd 	bl	15e4 <util_uitoa>
     1ec:	eb000483 	bl	1400 <uart0_putstring>
/home/kwilson/Projects/psaseclipse/olimex2378/olimex2378-i2c/blinkm-test/blinkm-test.c:63
    uart0_putstring("\n");
     1f0:	e59f01a0 	ldr	r0, [pc, #416]	; 398 <blinkm_task+0x21c>
     1f4:	eb000481 	bl	1400 <uart0_putstring>
/home/kwilson/Projects/psaseclipse/olimex2378/olimex2378-i2c/blinkm-test/blinkm-test.c:65

    uart0_putstring("VICRawIntr is:\t0b");
     1f8:	e59f019c 	ldr	r0, [pc, #412]	; 39c <blinkm_task+0x220>
     1fc:	eb00047f 	bl	1400 <uart0_putstring>
/home/kwilson/Projects/psaseclipse/olimex2378/olimex2378-i2c/blinkm-test/blinkm-test.c:66
    uart0_putstring(util_uitoa(VICRawIntr,2));
     200:	e3a01002 	mov	r1, #2
     204:	e5160ff7 	ldr	r0, [r6, #-4087]	; 0xff7
     208:	eb0004f5 	bl	15e4 <util_uitoa>
     20c:	eb00047b 	bl	1400 <uart0_putstring>
/home/kwilson/Projects/psaseclipse/olimex2378/olimex2378-i2c/blinkm-test/blinkm-test.c:67
    uart0_putstring("\n");
     210:	e59f0180 	ldr	r0, [pc, #384]	; 398 <blinkm_task+0x21c>
     214:	eb000479 	bl	1400 <uart0_putstring>
/home/kwilson/Projects/psaseclipse/olimex2378/olimex2378-i2c/blinkm-test/blinkm-test.c:69

    uart0_putstring("I2C0STAT is:\t0b");
     218:	e59f0180 	ldr	r0, [pc, #384]	; 3a0 <blinkm_task+0x224>
     21c:	eb000477 	bl	1400 <uart0_putstring>
/home/kwilson/Projects/psaseclipse/olimex2378/olimex2378-i2c/blinkm-test/blinkm-test.c:70
    uart0_putstring(util_uitoa(I2C0STAT,2));
     220:	e59f317c 	ldr	r3, [pc, #380]	; 3a4 <blinkm_task+0x228>
     224:	e3a01002 	mov	r1, #2
     228:	e5d30004 	ldrb	r0, [r3, #4]
     22c:	eb0004ec 	bl	15e4 <util_uitoa>
     230:	eb000472 	bl	1400 <uart0_putstring>
/home/kwilson/Projects/psaseclipse/olimex2378/olimex2378-i2c/blinkm-test/blinkm-test.c:74
    uart0_putstring("\n");
    uart0_putstring("past start xaction write .\n");

    STAT_LED_OFF;
     234:	e59f816c 	ldr	r8, [pc, #364]	; 3a8 <blinkm_task+0x22c>
/home/kwilson/Projects/psaseclipse/olimex2378/olimex2378-i2c/blinkm-test/blinkm-test.c:71
    uart0_putstring(util_uitoa(VICRawIntr,2));
    uart0_putstring("\n");

    uart0_putstring("I2C0STAT is:\t0b");
    uart0_putstring(util_uitoa(I2C0STAT,2));
    uart0_putstring("\n");
     238:	e59f0158 	ldr	r0, [pc, #344]	; 398 <blinkm_task+0x21c>
     23c:	eb00046f 	bl	1400 <uart0_putstring>
/home/kwilson/Projects/psaseclipse/olimex2378/olimex2378-i2c/blinkm-test/blinkm-test.c:74
    uart0_putstring("past start xaction write .\n");

    STAT_LED_OFF;
     240:	e3a07702 	mov	r7, #524288	; 0x80000
/home/kwilson/Projects/psaseclipse/olimex2378/olimex2378-i2c/blinkm-test/blinkm-test.c:72
    uart0_putstring("\n");

    uart0_putstring("I2C0STAT is:\t0b");
    uart0_putstring(util_uitoa(I2C0STAT,2));
    uart0_putstring("\n");
    uart0_putstring("past start xaction write .\n");
     244:	e59f0160 	ldr	r0, [pc, #352]	; 3ac <blinkm_task+0x230>
     248:	eb00046c 	bl	1400 <uart0_putstring>
/home/kwilson/Projects/psaseclipse/olimex2378/olimex2378-i2c/blinkm-test/blinkm-test.c:74

    STAT_LED_OFF;
     24c:	e5087fc7 	str	r7, [r8, #-4039]	; 0xfc7
/home/kwilson/Projects/psaseclipse/olimex2378/olimex2378-i2c/blinkm-test/blinkm-test.c:78
    i = 0;
    on = 0;
    // poll
    while(xact_s.xact_active == 1) {
     250:	ea00000a 	b	280 <blinkm_task+0x104>
/home/kwilson/Projects/psaseclipse/olimex2378/olimex2378-i2c/blinkm-test/blinkm-test.c:79
        i++;
     254:	e2866001 	add	r6, r6, #1
/home/kwilson/Projects/psaseclipse/olimex2378/olimex2378-i2c/blinkm-test/blinkm-test.c:80
        if(i % BLINKM_POLL_WAITTICKS == 0) {
     258:	e1a00006 	mov	r0, r6
     25c:	e59f114c 	ldr	r1, [pc, #332]	; 3b0 <blinkm_task+0x234>
     260:	eb000607 	bl	1a84 <__umodsi3>
     264:	e3500000 	cmp	r0, #0
     268:	1a000005 	bne	284 <blinkm_task+0x108>
/home/kwilson/Projects/psaseclipse/olimex2378/olimex2378-i2c/blinkm-test/blinkm-test.c:82
         //   uart0_putstring("waiting....\n");
            if(on==0) {
     26c:	e3550000 	cmp	r5, #0
/home/kwilson/Projects/psaseclipse/olimex2378/olimex2378-i2c/blinkm-test/blinkm-test.c:83
                STAT_LED_ON;
     270:	05087fc3 	streq	r7, [r8, #-4035]	; 0xfc3
/home/kwilson/Projects/psaseclipse/olimex2378/olimex2378-i2c/blinkm-test/blinkm-test.c:87
                on = 1;
            } else {
                on = 0;
                STAT_LED_OFF;
     274:	15087fc7 	strne	r7, [r8, #-4039]	; 0xfc7
/home/kwilson/Projects/psaseclipse/olimex2378/olimex2378-i2c/blinkm-test/blinkm-test.c:84
        i++;
        if(i % BLINKM_POLL_WAITTICKS == 0) {
         //   uart0_putstring("waiting....\n");
            if(on==0) {
                STAT_LED_ON;
                on = 1;
     278:	01a0500a 	moveq	r5, sl
/home/kwilson/Projects/psaseclipse/olimex2378/olimex2378-i2c/blinkm-test/blinkm-test.c:86
            } else {
                on = 0;
     27c:	11a05000 	movne	r5, r0
/home/kwilson/Projects/psaseclipse/olimex2378/olimex2378-i2c/blinkm-test/blinkm-test.c:76
    uart0_putstring("\n");
    uart0_putstring("past start xaction write .\n");

    STAT_LED_OFF;
    i = 0;
    on = 0;
     280:	e3a06000 	mov	r6, #0
/home/kwilson/Projects/psaseclipse/olimex2378/olimex2378-i2c/blinkm-test/blinkm-test.c:78
    // poll
    while(xact_s.xact_active == 1) {
     284:	e5d4a087 	ldrb	sl, [r4, #135]	; 0x87
     288:	e20aa0ff 	and	sl, sl, #255	; 0xff
     28c:	e35a0001 	cmp	sl, #1
     290:	0affffef 	beq	254 <blinkm_task+0xd8>
/home/kwilson/Projects/psaseclipse/olimex2378/olimex2378-i2c/blinkm-test/blinkm-test.c:93
            }
            i = 0;
        }
    }

    if(xact_s.xact_success == 1) {
     294:	e59f30f0 	ldr	r3, [pc, #240]	; 38c <blinkm_task+0x210>
     298:	e5d33088 	ldrb	r3, [r3, #136]	; 0x88
     29c:	e3530001 	cmp	r3, #1
/home/kwilson/Projects/psaseclipse/olimex2378/olimex2378-i2c/blinkm-test/blinkm-test.c:94
        uart0_putstring("i2c write xaction success.\n");
     2a0:	059f010c 	ldreq	r0, [pc, #268]	; 3b4 <blinkm_task+0x238>
/home/kwilson/Projects/psaseclipse/olimex2378/olimex2378-i2c/blinkm-test/blinkm-test.c:96
    } else {
        uart0_putstring("i2c write xaction fail.\n");
     2a4:	159f010c 	ldrne	r0, [pc, #268]	; 3b8 <blinkm_task+0x23c>
     2a8:	eb000454 	bl	1400 <uart0_putstring>
/home/kwilson/Projects/psaseclipse/olimex2378/olimex2378-i2c/blinkm-test/blinkm-test.c:99
    }

    uart0_putstring("i2c Read Color Task...\n");
     2ac:	e59f0108 	ldr	r0, [pc, #264]	; 3bc <blinkm_task+0x240>
     2b0:	eb000452 	bl	1400 <uart0_putstring>
/home/kwilson/Projects/psaseclipse/olimex2378/olimex2378-i2c/blinkm-test/blinkm-test.c:103

    // xact_s.I2C_TX_buffer[1] =  'Z';
    //
    xact_s.i2c_tx_buffer[0] =  i2c_create_write_address(BLINKM_ADDR);
     2b4:	e3a00009 	mov	r0, #9
     2b8:	eb0001a9 	bl	964 <i2c_create_write_address>
     2bc:	e59f40c8 	ldr	r4, [pc, #200]	; 38c <blinkm_task+0x210>
/home/kwilson/Projects/psaseclipse/olimex2378/olimex2378-i2c/blinkm-test/blinkm-test.c:104
    xact_s.i2c_tx_buffer[1] =  'g';
     2c0:	e3a03067 	mov	r3, #103	; 0x67
/home/kwilson/Projects/psaseclipse/olimex2378/olimex2378-i2c/blinkm-test/blinkm-test.c:103

    uart0_putstring("i2c Read Color Task...\n");

    // xact_s.I2C_TX_buffer[1] =  'Z';
    //
    xact_s.i2c_tx_buffer[0] =  i2c_create_write_address(BLINKM_ADDR);
     2c4:	e5c40004 	strb	r0, [r4, #4]
/home/kwilson/Projects/psaseclipse/olimex2378/olimex2378-i2c/blinkm-test/blinkm-test.c:104
    xact_s.i2c_tx_buffer[1] =  'g';
     2c8:	e5c43005 	strb	r3, [r4, #5]
/home/kwilson/Projects/psaseclipse/olimex2378/olimex2378-i2c/blinkm-test/blinkm-test.c:106
    xact_s.write_length     =  0x02;
    xact_s.i2c_tx_buffer[2] =  i2c_create_read_address(BLINKM_ADDR);
     2cc:	e3a00009 	mov	r0, #9
/home/kwilson/Projects/psaseclipse/olimex2378/olimex2378-i2c/blinkm-test/blinkm-test.c:105

    // xact_s.I2C_TX_buffer[1] =  'Z';
    //
    xact_s.i2c_tx_buffer[0] =  i2c_create_write_address(BLINKM_ADDR);
    xact_s.i2c_tx_buffer[1] =  'g';
    xact_s.write_length     =  0x02;
     2d0:	e3a03002 	mov	r3, #2
     2d4:	e5c43085 	strb	r3, [r4, #133]	; 0x85
/home/kwilson/Projects/psaseclipse/olimex2378/olimex2378-i2c/blinkm-test/blinkm-test.c:106
    xact_s.i2c_tx_buffer[2] =  i2c_create_read_address(BLINKM_ADDR);
     2d8:	eb00019d 	bl	954 <i2c_create_read_address>
/home/kwilson/Projects/psaseclipse/olimex2378/olimex2378-i2c/blinkm-test/blinkm-test.c:107
    xact_s.read_length      =  0x03;
     2dc:	e3a03003 	mov	r3, #3
/home/kwilson/Projects/psaseclipse/olimex2378/olimex2378-i2c/blinkm-test/blinkm-test.c:106
    // xact_s.I2C_TX_buffer[1] =  'Z';
    //
    xact_s.i2c_tx_buffer[0] =  i2c_create_write_address(BLINKM_ADDR);
    xact_s.i2c_tx_buffer[1] =  'g';
    xact_s.write_length     =  0x02;
    xact_s.i2c_tx_buffer[2] =  i2c_create_read_address(BLINKM_ADDR);
     2e0:	e5c40006 	strb	r0, [r4, #6]
/home/kwilson/Projects/psaseclipse/olimex2378/olimex2378-i2c/blinkm-test/blinkm-test.c:108
    xact_s.read_length      =  0x03;
    start_i2c0_master_xact(&xact_s, &xact_callback);
     2e4:	e59f10a4 	ldr	r1, [pc, #164]	; 390 <blinkm_task+0x214>
     2e8:	e1a00004 	mov	r0, r4
/home/kwilson/Projects/psaseclipse/olimex2378/olimex2378-i2c/blinkm-test/blinkm-test.c:107
    //
    xact_s.i2c_tx_buffer[0] =  i2c_create_write_address(BLINKM_ADDR);
    xact_s.i2c_tx_buffer[1] =  'g';
    xact_s.write_length     =  0x02;
    xact_s.i2c_tx_buffer[2] =  i2c_create_read_address(BLINKM_ADDR);
    xact_s.read_length      =  0x03;
     2ec:	e5c43086 	strb	r3, [r4, #134]	; 0x86
/home/kwilson/Projects/psaseclipse/olimex2378/olimex2378-i2c/blinkm-test/blinkm-test.c:108
    start_i2c0_master_xact(&xact_s, &xact_callback);
     2f0:	eb000279 	bl	cdc <start_i2c0_master_xact>
/home/kwilson/Projects/psaseclipse/olimex2378/olimex2378-i2c/blinkm-test/blinkm-test.c:111

    // poll
    while(xact_s.xact_active == 1) {
     2f4:	ea000001 	b	300 <blinkm_task+0x184>
/home/kwilson/Projects/psaseclipse/olimex2378/olimex2378-i2c/blinkm-test/blinkm-test.c:112
        util_waitticks(BLINKM_POLL_WAITTICKS);
     2f8:	e59f00b0 	ldr	r0, [pc, #176]	; 3b0 <blinkm_task+0x234>
     2fc:	eb0004e1 	bl	1688 <util_waitticks>
/home/kwilson/Projects/psaseclipse/olimex2378/olimex2378-i2c/blinkm-test/blinkm-test.c:111
    xact_s.i2c_tx_buffer[2] =  i2c_create_read_address(BLINKM_ADDR);
    xact_s.read_length      =  0x03;
    start_i2c0_master_xact(&xact_s, &xact_callback);

    // poll
    while(xact_s.xact_active == 1) {
     300:	e5d43087 	ldrb	r3, [r4, #135]	; 0x87
     304:	e3530001 	cmp	r3, #1
     308:	0afffffa 	beq	2f8 <blinkm_task+0x17c>
/home/kwilson/Projects/psaseclipse/olimex2378/olimex2378-i2c/blinkm-test/blinkm-test.c:114
        util_waitticks(BLINKM_POLL_WAITTICKS);
    }
    if(xact_s.xact_success == 1) {
     30c:	e59f3078 	ldr	r3, [pc, #120]	; 38c <blinkm_task+0x210>
     310:	e5d33088 	ldrb	r3, [r3, #136]	; 0x88
     314:	e3530001 	cmp	r3, #1
/home/kwilson/Projects/psaseclipse/olimex2378/olimex2378-i2c/blinkm-test/blinkm-test.c:115
        uart0_putstring("i2c read xaction success.\n");
     318:	059f00a0 	ldreq	r0, [pc, #160]	; 3c0 <blinkm_task+0x244>
/home/kwilson/Projects/psaseclipse/olimex2378/olimex2378-i2c/blinkm-test/blinkm-test.c:117
    } else {
        uart0_putstring("i2c read xaction fail.\n");
     31c:	159f00a0 	ldrne	r0, [pc, #160]	; 3c4 <blinkm_task+0x248>
/home/kwilson/Projects/psaseclipse/olimex2378/olimex2378-i2c/blinkm-test/blinkm-test.c:121
    }

    uart0_putstring("Read data 0 is 0x");
    uart0_putstring(util_uitoa(xact_s.i2c_rd_buffer[0],16));
     320:	e59f4064 	ldr	r4, [pc, #100]	; 38c <blinkm_task+0x210>
/home/kwilson/Projects/psaseclipse/olimex2378/olimex2378-i2c/blinkm-test/blinkm-test.c:117
        util_waitticks(BLINKM_POLL_WAITTICKS);
    }
    if(xact_s.xact_success == 1) {
        uart0_putstring("i2c read xaction success.\n");
    } else {
        uart0_putstring("i2c read xaction fail.\n");
     324:	eb000435 	bl	1400 <uart0_putstring>
/home/kwilson/Projects/psaseclipse/olimex2378/olimex2378-i2c/blinkm-test/blinkm-test.c:120
    }

    uart0_putstring("Read data 0 is 0x");
     328:	e59f0098 	ldr	r0, [pc, #152]	; 3c8 <blinkm_task+0x24c>
     32c:	eb000433 	bl	1400 <uart0_putstring>
/home/kwilson/Projects/psaseclipse/olimex2378/olimex2378-i2c/blinkm-test/blinkm-test.c:121
    uart0_putstring(util_uitoa(xact_s.i2c_rd_buffer[0],16));
     330:	e3a01010 	mov	r1, #16
     334:	e5d40044 	ldrb	r0, [r4, #68]	; 0x44
     338:	eb0004a9 	bl	15e4 <util_uitoa>
     33c:	eb00042f 	bl	1400 <uart0_putstring>
/home/kwilson/Projects/psaseclipse/olimex2378/olimex2378-i2c/blinkm-test/blinkm-test.c:122
    uart0_putstring("\n");
     340:	e59f0050 	ldr	r0, [pc, #80]	; 398 <blinkm_task+0x21c>
     344:	eb00042d 	bl	1400 <uart0_putstring>
/home/kwilson/Projects/psaseclipse/olimex2378/olimex2378-i2c/blinkm-test/blinkm-test.c:123
    uart0_putstring("Read data 0 is 0x");
     348:	e59f0078 	ldr	r0, [pc, #120]	; 3c8 <blinkm_task+0x24c>
     34c:	eb00042b 	bl	1400 <uart0_putstring>
/home/kwilson/Projects/psaseclipse/olimex2378/olimex2378-i2c/blinkm-test/blinkm-test.c:124
    uart0_putstring(util_uitoa(xact_s.i2c_rd_buffer[0],16));
     350:	e3a01010 	mov	r1, #16
     354:	e5d40044 	ldrb	r0, [r4, #68]	; 0x44
     358:	eb0004a1 	bl	15e4 <util_uitoa>
     35c:	eb000427 	bl	1400 <uart0_putstring>
/home/kwilson/Projects/psaseclipse/olimex2378/olimex2378-i2c/blinkm-test/blinkm-test.c:125
    uart0_putstring("\n");
     360:	e59f0030 	ldr	r0, [pc, #48]	; 398 <blinkm_task+0x21c>
     364:	eb000425 	bl	1400 <uart0_putstring>
/home/kwilson/Projects/psaseclipse/olimex2378/olimex2378-i2c/blinkm-test/blinkm-test.c:126
    uart0_putstring("Read data 0 is 0x");
     368:	e59f0058 	ldr	r0, [pc, #88]	; 3c8 <blinkm_task+0x24c>
     36c:	eb000423 	bl	1400 <uart0_putstring>
/home/kwilson/Projects/psaseclipse/olimex2378/olimex2378-i2c/blinkm-test/blinkm-test.c:127
    uart0_putstring(util_uitoa(xact_s.i2c_rd_buffer[0],16));
     370:	e3a01010 	mov	r1, #16
     374:	e5d40044 	ldrb	r0, [r4, #68]	; 0x44
     378:	eb000499 	bl	15e4 <util_uitoa>
     37c:	eb00041f 	bl	1400 <uart0_putstring>
/home/kwilson/Projects/psaseclipse/olimex2378/olimex2378-i2c/blinkm-test/blinkm-test.c:128
    uart0_putstring("\n");
     380:	e59f0010 	ldr	r0, [pc, #16]	; 398 <blinkm_task+0x21c>
/home/kwilson/Projects/psaseclipse/olimex2378/olimex2378-i2c/blinkm-test/blinkm-test.c:129
}
     384:	e8bd45f0 	pop	{r4, r5, r6, r7, r8, sl, lr}
/home/kwilson/Projects/psaseclipse/olimex2378/olimex2378-i2c/blinkm-test/blinkm-test.c:128
    uart0_putstring("Read data 0 is 0x");
    uart0_putstring(util_uitoa(xact_s.i2c_rd_buffer[0],16));
    uart0_putstring("\n");
    uart0_putstring("Read data 0 is 0x");
    uart0_putstring(util_uitoa(xact_s.i2c_rd_buffer[0],16));
    uart0_putstring("\n");
     388:	ea00041c 	b	1400 <uart0_putstring>
     38c:	40000000 	.word	0x40000000
     390:	00000108 	.word	0x00000108
     394:	00001b54 	.word	0x00001b54
     398:	00001c76 	.word	0x00001c76
     39c:	00001b68 	.word	0x00001b68
     3a0:	00001b7a 	.word	0x00001b7a
     3a4:	e001c000 	.word	0xe001c000
     3a8:	3fffcfff 	.word	0x3fffcfff
     3ac:	00001b8a 	.word	0x00001b8a
     3b0:	0007a120 	.word	0x0007a120
     3b4:	00001ba6 	.word	0x00001ba6
     3b8:	00001bc2 	.word	0x00001bc2
     3bc:	00001bdb 	.word	0x00001bdb
     3c0:	00001bf3 	.word	0x00001bf3
     3c4:	00001c0e 	.word	0x00001c0e
     3c8:	00001c26 	.word	0x00001c26

000003cc <main>:
main():
/home/kwilson/Projects/psaseclipse/olimex2378/olimex2378-i2c/blinkm-test/blinkm-test.c:132
}


int main (void) {
     3cc:	e52de004 	push	{lr}		; (str lr, [sp, #-4]!)
/home/kwilson/Projects/psaseclipse/olimex2378/olimex2378-i2c/blinkm-test/blinkm-test.c:136

    int32_t cycles = 5;

    pllstart_seventytwomhz() ;
     3d0:	eb0002a2 	bl	e60 <pllstart_seventytwomhz>
/home/kwilson/Projects/psaseclipse/olimex2378/olimex2378-i2c/blinkm-test/blinkm-test.c:140
    //   pllstart_sixtymhz() ;
    //   pllstart_fourtyeightmhz() ;

    uart0_init_115200() ;
     3d4:	eb0003a7 	bl	1278 <uart0_init_115200>
/home/kwilson/Projects/psaseclipse/olimex2378/olimex2378-i2c/blinkm-test/blinkm-test.c:142

    uart0_putstring("\n***Starting olimex blinkm test***\n\n");
     3d8:	e59f004c 	ldr	r0, [pc, #76]	; 42c <main+0x60>
     3dc:	eb000407 	bl	1400 <uart0_putstring>
/home/kwilson/Projects/psaseclipse/olimex2378/olimex2378-i2c/blinkm-test/blinkm-test.c:144

    i2c_init(I2C0);
     3e0:	e3a00000 	mov	r0, #0
     3e4:	eb000172 	bl	9b4 <i2c_init>
/home/kwilson/Projects/psaseclipse/olimex2378/olimex2378-i2c/blinkm-test/blinkm-test.c:146

    uart0_putstring("cpsr is:\t0b");
     3e8:	e59f0040 	ldr	r0, [pc, #64]	; 430 <main+0x64>
     3ec:	eb000403 	bl	1400 <uart0_putstring>
__get_cpsr():
/home/kwilson/Projects/psaseclipse/olimex2378/olimex2378-i2c/blinkm-test/../../liblpc23xx/lpc23xx-util/include/lpc23xx-util.h:30
 * Reads and returns the value of the cpsr
http://infocenter.arm.com/help/index.jsp?topic=/com.arm.doc.faqs/ka3724.html
 */
static inline uint32_t __get_cpsr(void) {
    uint32_t retval;
    asm volatile (" mrs  %0, cpsr" : "=r" (retval) : /* no inputs */  );
     3f0:	e10f0000 	mrs	r0, CPSR
main():
/home/kwilson/Projects/psaseclipse/olimex2378/olimex2378-i2c/blinkm-test/blinkm-test.c:147
    uart0_putstring(util_uitoa(__get_cpsr(),2));
     3f4:	e3a01002 	mov	r1, #2
     3f8:	eb000479 	bl	15e4 <util_uitoa>
     3fc:	eb0003ff 	bl	1400 <uart0_putstring>
/home/kwilson/Projects/psaseclipse/olimex2378/olimex2378-i2c/blinkm-test/blinkm-test.c:148
    uart0_putstring("\n");
     400:	e59f002c 	ldr	r0, [pc, #44]	; 434 <main+0x68>
     404:	eb0003fd 	bl	1400 <uart0_putstring>
/home/kwilson/Projects/psaseclipse/olimex2378/olimex2378-i2c/blinkm-test/blinkm-test.c:150

    stat_led_flash(cycles); // initial visual check
     408:	e3a00005 	mov	r0, #5
     40c:	eb000524 	bl	18a4 <stat_led_flash>
/home/kwilson/Projects/psaseclipse/olimex2378/olimex2378-i2c/blinkm-test/blinkm-test.c:152

    blinkm_task() ;
     410:	ebffff59 	bl	17c <blinkm_task>
/home/kwilson/Projects/psaseclipse/olimex2378/olimex2378-i2c/blinkm-test/blinkm-test.c:154

    stat_led_flash_slow(2);
     414:	e3a00002 	mov	r0, #2
     418:	eb0004ef 	bl	17dc <stat_led_flash_slow>
/home/kwilson/Projects/psaseclipse/olimex2378/olimex2378-i2c/blinkm-test/blinkm-test.c:156

    uart0_putstring("\n\n***Done***\n\n");
     41c:	e59f0014 	ldr	r0, [pc, #20]	; 438 <main+0x6c>
     420:	eb0003f6 	bl	1400 <uart0_putstring>
/home/kwilson/Projects/psaseclipse/olimex2378/olimex2378-i2c/blinkm-test/blinkm-test.c:160

    return(0);

}
     424:	e3a00000 	mov	r0, #0
     428:	e49df004 	pop	{pc}		; (ldr pc, [sp], #4)
     42c:	00001c38 	.word	0x00001c38
     430:	00001c5d 	.word	0x00001c5d
     434:	00001c76 	.word	0x00001c76
     438:	00001c69 	.word	0x00001c69

0000043c <IRQ_Routine>:
IRQ_Routine():
/home/kwilson/Projects/psaseclipse/olimex2378/olimex2378-i2c/blinkm-test/hwsys.c:12

/*
 *  Stubs for various interrupts 
 */

void IRQ_Routine (void) {
     43c:	eafffffe 	b	43c <IRQ_Routine>

00000440 <FIQ_Routine>:
FIQ_Routine():
/home/kwilson/Projects/psaseclipse/olimex2378/olimex2378-i2c/blinkm-test/hwsys.c:16
	while (1) ;	
}

void FIQ_Routine (void)  {
     440:	eafffffe 	b	440 <FIQ_Routine>

00000444 <SWI_Routine>:
SWI_Routine():
/home/kwilson/Projects/psaseclipse/olimex2378/olimex2378-i2c/blinkm-test/hwsys.c:20
	while (1) ;	
}

void SWI_Routine (void)  {
     444:	eafffffe 	b	444 <SWI_Routine>

00000448 <UNDEF_Routine>:
UNDEF_Routine():
/home/kwilson/Projects/psaseclipse/olimex2378/olimex2378-i2c/blinkm-test/hwsys.c:24
	while (1) ;	
}

void UNDEF_Routine (void) {
     448:	eafffffe 	b	448 <UNDEF_Routine>

0000044c <i2c1_isr>:
i2c1_isr():
/home/kwilson/Projects/psaseclipse/olimex2378/liblpc23xx/lpc23xx-i2c/lpc23xx-i2c.c:394
/*
 * i2c1_isr
 */
void i2c1_isr(void) {
    // not implemented
}
     44c:	e25ef004 	subs	pc, lr, #4

00000450 <i2c2_isr>:
i2c2_isr():
/home/kwilson/Projects/psaseclipse/olimex2378/liblpc23xx/lpc23xx-i2c/lpc23xx-i2c.c:401
/*
 * i2c2_isr
 */
void i2c2_isr(void) {
    // not implemented
}
     450:	e25ef004 	subs	pc, lr, #4

00000454 <i2c0_isr>:
i2c0_isr():
/home/kwilson/Projects/psaseclipse/olimex2378/liblpc23xx/lpc23xx-i2c/lpc23xx-i2c.c:184
}

/*
 * i2c0_isr
 */
void i2c0_isr(void) {
     454:	e24ee004 	sub	lr, lr, #4
     458:	e92d503f 	push	{r0, r1, r2, r3, r4, r5, ip, lr}
/home/kwilson/Projects/psaseclipse/olimex2378/liblpc23xx/lpc23xx-i2c/lpc23xx-i2c.c:193
    uint32_t                 status;
    uint8_t                  xact_exit;

    xact_exit              = 0;

    status                   = I2C0STAT;
     45c:	e3a0320e 	mov	r3, #-536870912	; 0xe0000000
     460:	e2833907 	add	r3, r3, #114688	; 0x1c000
     464:	e5d34004 	ldrb	r4, [r3, #4]
/home/kwilson/Projects/psaseclipse/olimex2378/liblpc23xx/lpc23xx-i2c/lpc23xx-i2c.c:194
    uart0_putstring("Entering i2c0_isr");
     468:	e59f04d4 	ldr	r0, [pc, #1236]	; 944 <i2c0_isr+0x4f0>
     46c:	eb0003e3 	bl	1400 <uart0_putstring>
/home/kwilson/Projects/psaseclipse/olimex2378/liblpc23xx/lpc23xx-i2c/lpc23xx-i2c.c:193
    uint32_t                 status;
    uint8_t                  xact_exit;

    xact_exit              = 0;

    status                   = I2C0STAT;
     470:	e20440ff 	and	r4, r4, #255	; 0xff
/home/kwilson/Projects/psaseclipse/olimex2378/liblpc23xx/lpc23xx-i2c/lpc23xx-i2c.c:195
    uart0_putstring("Entering i2c0_isr");
    uart0_putstring("status is: 0x");
     474:	e59f04cc 	ldr	r0, [pc, #1228]	; 948 <i2c0_isr+0x4f4>
     478:	eb0003e0 	bl	1400 <uart0_putstring>
/home/kwilson/Projects/psaseclipse/olimex2378/liblpc23xx/lpc23xx-i2c/lpc23xx-i2c.c:196
    uart0_putstring(util_uitoa(status,16));
     47c:	e3a01010 	mov	r1, #16
     480:	e1a00004 	mov	r0, r4
     484:	eb000456 	bl	15e4 <util_uitoa>
     488:	eb0003dc 	bl	1400 <uart0_putstring>
/home/kwilson/Projects/psaseclipse/olimex2378/liblpc23xx/lpc23xx-i2c/lpc23xx-i2c.c:199
    //Read the I2C state from the correct I2STA register and then branch to
    //the corresponding state routine.
    switch(status) {
     48c:	e3540058 	cmp	r4, #88	; 0x58
     490:	979ff104 	ldrls	pc, [pc, r4, lsl #2]
     494:	ea000084 	b	6ac <i2c0_isr+0x258>
     498:	000006ac 	.word	0x000006ac
     49c:	000006ac 	.word	0x000006ac
     4a0:	000006ac 	.word	0x000006ac
     4a4:	000006ac 	.word	0x000006ac
     4a8:	000006ac 	.word	0x000006ac
     4ac:	000006ac 	.word	0x000006ac
     4b0:	000006ac 	.word	0x000006ac
     4b4:	000006ac 	.word	0x000006ac
     4b8:	000006d8 	.word	0x000006d8
     4bc:	000006ac 	.word	0x000006ac
     4c0:	000006ac 	.word	0x000006ac
     4c4:	000006ac 	.word	0x000006ac
     4c8:	000006ac 	.word	0x000006ac
     4cc:	000006ac 	.word	0x000006ac
     4d0:	000006ac 	.word	0x000006ac
     4d4:	000006ac 	.word	0x000006ac
     4d8:	00000730 	.word	0x00000730
     4dc:	000006ac 	.word	0x000006ac
     4e0:	000006ac 	.word	0x000006ac
     4e4:	000006ac 	.word	0x000006ac
     4e8:	000006ac 	.word	0x000006ac
     4ec:	000006ac 	.word	0x000006ac
     4f0:	000006ac 	.word	0x000006ac
     4f4:	000006ac 	.word	0x000006ac
     4f8:	00000774 	.word	0x00000774
     4fc:	000006ac 	.word	0x000006ac
     500:	000006ac 	.word	0x000006ac
     504:	000006ac 	.word	0x000006ac
     508:	000006ac 	.word	0x000006ac
     50c:	000006ac 	.word	0x000006ac
     510:	000006ac 	.word	0x000006ac
     514:	000006ac 	.word	0x000006ac
     518:	000005fc 	.word	0x000005fc
     51c:	000006ac 	.word	0x000006ac
     520:	000006ac 	.word	0x000006ac
     524:	000006ac 	.word	0x000006ac
     528:	000006ac 	.word	0x000006ac
     52c:	000006ac 	.word	0x000006ac
     530:	000006ac 	.word	0x000006ac
     534:	000006ac 	.word	0x000006ac
     538:	0000089c 	.word	0x0000089c
     53c:	000006ac 	.word	0x000006ac
     540:	000006ac 	.word	0x000006ac
     544:	000006ac 	.word	0x000006ac
     548:	000006ac 	.word	0x000006ac
     54c:	000006ac 	.word	0x000006ac
     550:	000006ac 	.word	0x000006ac
     554:	000006ac 	.word	0x000006ac
     558:	000005fc 	.word	0x000005fc
     55c:	000006ac 	.word	0x000006ac
     560:	000006ac 	.word	0x000006ac
     564:	000006ac 	.word	0x000006ac
     568:	000006ac 	.word	0x000006ac
     56c:	000006ac 	.word	0x000006ac
     570:	000006ac 	.word	0x000006ac
     574:	000006ac 	.word	0x000006ac
     578:	00000814 	.word	0x00000814
     57c:	000006ac 	.word	0x000006ac
     580:	000006ac 	.word	0x000006ac
     584:	000006ac 	.word	0x000006ac
     588:	000006ac 	.word	0x000006ac
     58c:	000006ac 	.word	0x000006ac
     590:	000006ac 	.word	0x000006ac
     594:	000006ac 	.word	0x000006ac
     598:	00000834 	.word	0x00000834
     59c:	000006ac 	.word	0x000006ac
     5a0:	000006ac 	.word	0x000006ac
     5a4:	000006ac 	.word	0x000006ac
     5a8:	000006ac 	.word	0x000006ac
     5ac:	000006ac 	.word	0x000006ac
     5b0:	000006ac 	.word	0x000006ac
     5b4:	000006ac 	.word	0x000006ac
     5b8:	000005fc 	.word	0x000005fc
     5bc:	000006ac 	.word	0x000006ac
     5c0:	000006ac 	.word	0x000006ac
     5c4:	000006ac 	.word	0x000006ac
     5c8:	000006ac 	.word	0x000006ac
     5cc:	000006ac 	.word	0x000006ac
     5d0:	000006ac 	.word	0x000006ac
     5d4:	000006ac 	.word	0x000006ac
     5d8:	000007c0 	.word	0x000007c0
     5dc:	000006ac 	.word	0x000006ac
     5e0:	000006ac 	.word	0x000006ac
     5e4:	000006ac 	.word	0x000006ac
     5e8:	000006ac 	.word	0x000006ac
     5ec:	000006ac 	.word	0x000006ac
     5f0:	000006ac 	.word	0x000006ac
     5f4:	000006ac 	.word	0x000006ac
     5f8:	00000860 	.word	0x00000860
/home/kwilson/Projects/psaseclipse/olimex2378/liblpc23xx/lpc23xx-i2c/lpc23xx-i2c.c:325

            // State 0x48 - 
            //   Slave Address + Read has been transmitted, NOT ACK has been received. 
            //   A Stop condition will be transmitted.
        case 0x48:
            I2C0CONSET        = (I2C_STO | I2C_AA);
     5fc:	e3a0320e 	mov	r3, #-536870912	; 0xe0000000
     600:	e2833907 	add	r3, r3, #114688	; 0x1c000
/home/kwilson/Projects/psaseclipse/olimex2378/liblpc23xx/lpc23xx-i2c/lpc23xx-i2c.c:327
            xact_exit       = 1;
            i2c0_s_g.state    = I2C_NOTACK;
     604:	e59f4340 	ldr	r4, [pc, #832]	; 94c <i2c0_isr+0x4f8>
/home/kwilson/Projects/psaseclipse/olimex2378/liblpc23xx/lpc23xx-i2c/lpc23xx-i2c.c:325

            // State 0x48 - 
            //   Slave Address + Read has been transmitted, NOT ACK has been received. 
            //   A Stop condition will be transmitted.
        case 0x48:
            I2C0CONSET        = (I2C_STO | I2C_AA);
     608:	e3a02014 	mov	r2, #20
     60c:	e5c32000 	strb	r2, [r3]
/home/kwilson/Projects/psaseclipse/olimex2378/liblpc23xx/lpc23xx-i2c/lpc23xx-i2c.c:327
            xact_exit       = 1;
            i2c0_s_g.state    = I2C_NOTACK;
     610:	e3a03005 	mov	r3, #5
     614:	e5843008 	str	r3, [r4, #8]
/home/kwilson/Projects/psaseclipse/olimex2378/liblpc23xx/lpc23xx-i2c/lpc23xx-i2c.c:369
            I2C0CONSET        = (I2C_STO | I2C_AA);
            xact_exit       = 1;
            break;
    }

    I2C0CONCLR = I2C_SIC;
     618:	e3a0320e 	mov	r3, #-536870912	; 0xe0000000
     61c:	e2833907 	add	r3, r3, #114688	; 0x1c000
     620:	e3a02008 	mov	r2, #8
     624:	e5c32018 	strb	r2, [r3, #24]
/home/kwilson/Projects/psaseclipse/olimex2378/liblpc23xx/lpc23xx-i2c/lpc23xx-i2c.c:372

    // p 91 LPC23xx_UM
    VICAddress = 0x0;      // clear VIC address
     628:	e3a02000 	mov	r2, #0
     62c:	e3e03000 	mvn	r3, #0
     630:	e50320ff 	str	r2, [r3, #-255]	; 0xff
/home/kwilson/Projects/psaseclipse/olimex2378/liblpc23xx/lpc23xx-i2c/lpc23xx-i2c.c:375

    if(xact_exit == 1) {  // STOP Bit has been set
        if(i2c0_s_g.state != I2C_ERROR) {
     634:	e5943008 	ldr	r3, [r4, #8]
     638:	e3530006 	cmp	r3, #6
/home/kwilson/Projects/psaseclipse/olimex2378/liblpc23xx/lpc23xx-i2c/lpc23xx-i2c.c:376
            i2c0_s_g.xact_success = 1;
     63c:	159f3308 	ldrne	r3, [pc, #776]	; 94c <i2c0_isr+0x4f8>
/home/kwilson/Projects/psaseclipse/olimex2378/liblpc23xx/lpc23xx-i2c/lpc23xx-i2c.c:378
        }
        i2c0_s_g.xact_active = 0;
     640:	e3a05000 	mov	r5, #0
/home/kwilson/Projects/psaseclipse/olimex2378/liblpc23xx/lpc23xx-i2c/lpc23xx-i2c.c:376
    // p 91 LPC23xx_UM
    VICAddress = 0x0;      // clear VIC address

    if(xact_exit == 1) {  // STOP Bit has been set
        if(i2c0_s_g.state != I2C_ERROR) {
            i2c0_s_g.xact_success = 1;
     644:	13a02001 	movne	r2, #1
     648:	15c32090 	strbne	r2, [r3, #144]	; 0x90
/home/kwilson/Projects/psaseclipse/olimex2378/liblpc23xx/lpc23xx-i2c/lpc23xx-i2c.c:379
        }
        i2c0_s_g.xact_active = 0;
        _i2c0_FnCallback_g( i2c0_s_caller_g, &i2c0_s_g );
     64c:	e59f12fc 	ldr	r1, [pc, #764]	; 950 <i2c0_isr+0x4fc>
/home/kwilson/Projects/psaseclipse/olimex2378/liblpc23xx/lpc23xx-i2c/lpc23xx-i2c.c:378

    if(xact_exit == 1) {  // STOP Bit has been set
        if(i2c0_s_g.state != I2C_ERROR) {
            i2c0_s_g.xact_success = 1;
        }
        i2c0_s_g.xact_active = 0;
     650:	e5c4508f 	strb	r5, [r4, #143]	; 0x8f
/home/kwilson/Projects/psaseclipse/olimex2378/liblpc23xx/lpc23xx-i2c/lpc23xx-i2c.c:379
        _i2c0_FnCallback_g( i2c0_s_caller_g, &i2c0_s_g );
     654:	e5940098 	ldr	r0, [r4, #152]	; 0x98
     658:	e1a0e00f 	mov	lr, pc
     65c:	e594f094 	ldr	pc, [r4, #148]	; 0x94
i2c_init_state():
/home/kwilson/Projects/psaseclipse/olimex2378/liblpc23xx/lpc23xx-i2c/lpc23xx-i2c.c:57
 * i2c_init_state
 */
void i2c_init_state( i2c_master_xact_t* s) {
    int i = 0;

    s->state             = I2C_IDLE;
     660:	e5845008 	str	r5, [r4, #8]
/home/kwilson/Projects/psaseclipse/olimex2378/liblpc23xx/lpc23xx-i2c/lpc23xx-i2c.c:58
    for(i=0; i<I2C_MAX_BUFFER; i++) {
     664:	e1a01005 	mov	r1, r5
/home/kwilson/Projects/psaseclipse/olimex2378/liblpc23xx/lpc23xx-i2c/lpc23xx-i2c.c:59
        s->i2c_tx_buffer[i] = 0;
     668:	e1a0c005 	mov	ip, r5
     66c:	e0840001 	add	r0, r4, r1
/home/kwilson/Projects/psaseclipse/olimex2378/liblpc23xx/lpc23xx-i2c/lpc23xx-i2c.c:58
 */
void i2c_init_state( i2c_master_xact_t* s) {
    int i = 0;

    s->state             = I2C_IDLE;
    for(i=0; i<I2C_MAX_BUFFER; i++) {
     670:	e2811001 	add	r1, r1, #1
     674:	e3510040 	cmp	r1, #64	; 0x40
/home/kwilson/Projects/psaseclipse/olimex2378/liblpc23xx/lpc23xx-i2c/lpc23xx-i2c.c:59
        s->i2c_tx_buffer[i] = 0;
     678:	e5c0c00c 	strb	ip, [r0, #12]
     67c:	e59f32c8 	ldr	r3, [pc, #712]	; 94c <i2c0_isr+0x4f8>
     680:	e3a02000 	mov	r2, #0
/home/kwilson/Projects/psaseclipse/olimex2378/liblpc23xx/lpc23xx-i2c/lpc23xx-i2c.c:60
        s->i2c_rd_buffer[i] = 0;
     684:	e5c0c04c 	strb	ip, [r0, #76]	; 0x4c
/home/kwilson/Projects/psaseclipse/olimex2378/liblpc23xx/lpc23xx-i2c/lpc23xx-i2c.c:58
 */
void i2c_init_state( i2c_master_xact_t* s) {
    int i = 0;

    s->state             = I2C_IDLE;
    for(i=0; i<I2C_MAX_BUFFER; i++) {
     688:	1afffff7 	bne	66c <i2c0_isr+0x218>
/home/kwilson/Projects/psaseclipse/olimex2378/liblpc23xx/lpc23xx-i2c/lpc23xx-i2c.c:62
        s->i2c_tx_buffer[i] = 0;
        s->i2c_rd_buffer[i] = 0;
    }
    s->i2c_ext_slave_address = 0x0;
     68c:	e5c3208c 	strb	r2, [r3, #140]	; 0x8c
i2c0_isr():
/home/kwilson/Projects/psaseclipse/olimex2378/liblpc23xx/lpc23xx-i2c/lpc23xx-i2c.c:382
        }
        i2c0_s_g.xact_active = 0;
        _i2c0_FnCallback_g( i2c0_s_caller_g, &i2c0_s_g );
        i2c_init_state(&i2c0_s_g) ;

        release_binsem(&i2c0_binsem_g);
     690:	e283009c 	add	r0, r3, #156	; 0x9c
i2c_init_state():
/home/kwilson/Projects/psaseclipse/olimex2378/liblpc23xx/lpc23xx-i2c/lpc23xx-i2c.c:63
    for(i=0; i<I2C_MAX_BUFFER; i++) {
        s->i2c_tx_buffer[i] = 0;
        s->i2c_rd_buffer[i] = 0;
    }
    s->i2c_ext_slave_address = 0x0;
    s->write_length          = 0x0;
     694:	e5c3208d 	strb	r2, [r3, #141]	; 0x8d
/home/kwilson/Projects/psaseclipse/olimex2378/liblpc23xx/lpc23xx-i2c/lpc23xx-i2c.c:64
    s->read_length           = 0x0;
     698:	e5c3208e 	strb	r2, [r3, #142]	; 0x8e
/home/kwilson/Projects/psaseclipse/olimex2378/liblpc23xx/lpc23xx-i2c/lpc23xx-i2c.c:65
    s->xact_active           = 0x0;
     69c:	e5c3208f 	strb	r2, [r3, #143]	; 0x8f
/home/kwilson/Projects/psaseclipse/olimex2378/liblpc23xx/lpc23xx-i2c/lpc23xx-i2c.c:66
    s->xact_success          = 0x0;
     6a0:	e5c32090 	strb	r2, [r3, #144]	; 0x90
i2c0_isr():
/home/kwilson/Projects/psaseclipse/olimex2378/liblpc23xx/lpc23xx-i2c/lpc23xx-i2c.c:382
        }
        i2c0_s_g.xact_active = 0;
        _i2c0_FnCallback_g( i2c0_s_caller_g, &i2c0_s_g );
        i2c_init_state(&i2c0_s_g) ;

        release_binsem(&i2c0_binsem_g);
     6a4:	eb00042d 	bl	1760 <release_binsem>
     6a8:	e8fd903f 	ldm	sp!, {r0, r1, r2, r3, r4, r5, ip, pc}^
/home/kwilson/Projects/psaseclipse/olimex2378/liblpc23xx/lpc23xx-i2c/lpc23xx-i2c.c:361
            break;

            // State: ???
            //   Unimplemented state, treat like state 0x0, bus error
        default:
            i2c_wrindex_g     = 0;
     6ac:	e59f4298 	ldr	r4, [pc, #664]	; 94c <i2c0_isr+0x4f8>
     6b0:	e3a02000 	mov	r2, #0
     6b4:	e5842000 	str	r2, [r4]
/home/kwilson/Projects/psaseclipse/olimex2378/liblpc23xx/lpc23xx-i2c/lpc23xx-i2c.c:364
            i2c_rdindex_g     = 0;
            i2c0_s_g.state    = I2C_ERROR;
            I2C0CONSET        = (I2C_STO | I2C_AA);
     6b8:	e3a0320e 	mov	r3, #-536870912	; 0xe0000000
/home/kwilson/Projects/psaseclipse/olimex2378/liblpc23xx/lpc23xx-i2c/lpc23xx-i2c.c:362

            // State: ???
            //   Unimplemented state, treat like state 0x0, bus error
        default:
            i2c_wrindex_g     = 0;
            i2c_rdindex_g     = 0;
     6bc:	e5842004 	str	r2, [r4, #4]
/home/kwilson/Projects/psaseclipse/olimex2378/liblpc23xx/lpc23xx-i2c/lpc23xx-i2c.c:363
            i2c0_s_g.state    = I2C_ERROR;
     6c0:	e3a02006 	mov	r2, #6
     6c4:	e5842008 	str	r2, [r4, #8]
/home/kwilson/Projects/psaseclipse/olimex2378/liblpc23xx/lpc23xx-i2c/lpc23xx-i2c.c:364
            I2C0CONSET        = (I2C_STO | I2C_AA);
     6c8:	e2833907 	add	r3, r3, #114688	; 0x1c000
     6cc:	e3a02014 	mov	r2, #20
     6d0:	e5c32000 	strb	r2, [r3]
/home/kwilson/Projects/psaseclipse/olimex2378/liblpc23xx/lpc23xx-i2c/lpc23xx-i2c.c:366
            xact_exit       = 1;
            break;
     6d4:	eaffffcf 	b	618 <i2c0_isr+0x1c4>
/home/kwilson/Projects/psaseclipse/olimex2378/liblpc23xx/lpc23xx-i2c/lpc23xx-i2c.c:214
            // State 0X08 - 
            //   A start condition has been transmitted. 
            //   The Slave Address and Read or Write bit will be transmitted.
            //   An ACK bit will be received.
        case 0x08:
            i2c_wrindex_g     = 0;
     6d8:	e59f326c 	ldr	r3, [pc, #620]	; 94c <i2c0_isr+0x4f8>
     6dc:	e3a02000 	mov	r2, #0
     6e0:	e5832000 	str	r2, [r3]
/home/kwilson/Projects/psaseclipse/olimex2378/liblpc23xx/lpc23xx-i2c/lpc23xx-i2c.c:217

            // write the Slave Address with R/W bit to I2DAT
            I2C0DAT           = i2c0_s_g.i2c_tx_buffer[i2c_wrindex_g++] ;
     6e4:	e5931000 	ldr	r1, [r3]
     6e8:	e0832001 	add	r2, r3, r1
     6ec:	e5d2000c 	ldrb	r0, [r2, #12]
     6f0:	e3a0220e 	mov	r2, #-536870912	; 0xe0000000
     6f4:	e2822907 	add	r2, r2, #114688	; 0x1c000
     6f8:	e20000ff 	and	r0, r0, #255	; 0xff
     6fc:	e5c20008 	strb	r0, [r2, #8]
     700:	e2811001 	add	r1, r1, #1
/home/kwilson/Projects/psaseclipse/olimex2378/liblpc23xx/lpc23xx-i2c/lpc23xx-i2c.c:218
            i2c0_s_g.state    = I2C_START;
     704:	e3a02001 	mov	r2, #1
/home/kwilson/Projects/psaseclipse/olimex2378/liblpc23xx/lpc23xx-i2c/lpc23xx-i2c.c:217
            //   An ACK bit will be received.
        case 0x08:
            i2c_wrindex_g     = 0;

            // write the Slave Address with R/W bit to I2DAT
            I2C0DAT           = i2c0_s_g.i2c_tx_buffer[i2c_wrindex_g++] ;
     708:	e5831000 	str	r1, [r3]
/home/kwilson/Projects/psaseclipse/olimex2378/liblpc23xx/lpc23xx-i2c/lpc23xx-i2c.c:218
            i2c0_s_g.state    = I2C_START;
     70c:	e5832008 	str	r2, [r3, #8]
/home/kwilson/Projects/psaseclipse/olimex2378/liblpc23xx/lpc23xx-i2c/lpc23xx-i2c.c:369
            I2C0CONSET        = (I2C_STO | I2C_AA);
            xact_exit       = 1;
            break;
    }

    I2C0CONCLR = I2C_SIC;
     710:	e3a0320e 	mov	r3, #-536870912	; 0xe0000000
     714:	e2833907 	add	r3, r3, #114688	; 0x1c000
     718:	e3a02008 	mov	r2, #8
     71c:	e5c32018 	strb	r2, [r3, #24]
/home/kwilson/Projects/psaseclipse/olimex2378/liblpc23xx/lpc23xx-i2c/lpc23xx-i2c.c:372

    // p 91 LPC23xx_UM
    VICAddress = 0x0;      // clear VIC address
     720:	e3a02000 	mov	r2, #0
     724:	e3e03000 	mvn	r3, #0
     728:	e50320ff 	str	r2, [r3, #-255]	; 0xff
     72c:	e8fd903f 	ldm	sp!, {r0, r1, r2, r3, r4, r5, ip, pc}^
/home/kwilson/Projects/psaseclipse/olimex2378/liblpc23xx/lpc23xx-i2c/lpc23xx-i2c.c:227
            // State 0x10 - 
            //   A repeated start condition has been transmitted.
            //   The Slave Address and Read or Write bit will be transmitted.  
            //   An ACK bit will be received
        case 0x10:
            i2c_rdindex_g     = 0;
     730:	e59f3214 	ldr	r3, [pc, #532]	; 94c <i2c0_isr+0x4f8>
     734:	e3a02000 	mov	r2, #0
     738:	e5832004 	str	r2, [r3, #4]
/home/kwilson/Projects/psaseclipse/olimex2378/liblpc23xx/lpc23xx-i2c/lpc23xx-i2c.c:230

            // Device address + R/W is first after write data in stream
            I2C0DAT           = i2c0_s_g.i2c_tx_buffer[i2c_wrindex_g++] ;
     73c:	e5931000 	ldr	r1, [r3]
     740:	e0832001 	add	r2, r3, r1
     744:	e5d2000c 	ldrb	r0, [r2, #12]
     748:	e3a0220e 	mov	r2, #-536870912	; 0xe0000000
     74c:	e2822907 	add	r2, r2, #114688	; 0x1c000
     750:	e2811001 	add	r1, r1, #1
     754:	e20000ff 	and	r0, r0, #255	; 0xff
     758:	e5c20008 	strb	r0, [r2, #8]
     75c:	e5831000 	str	r1, [r3]
/home/kwilson/Projects/psaseclipse/olimex2378/liblpc23xx/lpc23xx-i2c/lpc23xx-i2c.c:231
            i2c0_s_g.state    = I2C_RESTART;
     760:	e3a01002 	mov	r1, #2
     764:	e5831008 	str	r1, [r3, #8]
/home/kwilson/Projects/psaseclipse/olimex2378/liblpc23xx/lpc23xx-i2c/lpc23xx-i2c.c:232
            I2C0CONCLR        = I2C_STAC;
     768:	e3a03020 	mov	r3, #32
     76c:	e5c23018 	strb	r3, [r2, #24]
/home/kwilson/Projects/psaseclipse/olimex2378/liblpc23xx/lpc23xx-i2c/lpc23xx-i2c.c:233
            break;
     770:	eaffffe6 	b	710 <i2c0_isr+0x2bc>
/home/kwilson/Projects/psaseclipse/olimex2378/liblpc23xx/lpc23xx-i2c/lpc23xx-i2c.c:242
            //   Slave Address and Read or Write has been transmitted.
            //   An ACK has been received. 
            //   The first data byte will be transmitted. 
            //   An ACK bit will be received.
        case 0x18:
            if(i2c0_s_g.state == I2C_START) {
     774:	e59f31d0 	ldr	r3, [pc, #464]	; 94c <i2c0_isr+0x4f8>
     778:	e5932008 	ldr	r2, [r3, #8]
     77c:	e3520001 	cmp	r2, #1
     780:	1affffe2 	bne	710 <i2c0_isr+0x2bc>
/home/kwilson/Projects/psaseclipse/olimex2378/liblpc23xx/lpc23xx-i2c/lpc23xx-i2c.c:243
                I2C0DAT           = i2c0_s_g.i2c_tx_buffer[i2c_wrindex_g++] ;
     784:	e5930000 	ldr	r0, [r3]
     788:	e0832000 	add	r2, r3, r0
     78c:	e5d2c00c 	ldrb	ip, [r2, #12]
     790:	e3a0220e 	mov	r2, #-536870912	; 0xe0000000
     794:	e2822907 	add	r2, r2, #114688	; 0x1c000
     798:	e2800001 	add	r0, r0, #1
     79c:	e20cc0ff 	and	ip, ip, #255	; 0xff
     7a0:	e5c2c008 	strb	ip, [r2, #8]
/home/kwilson/Projects/psaseclipse/olimex2378/liblpc23xx/lpc23xx-i2c/lpc23xx-i2c.c:244
                I2C0CONSET        = I2C_AA;
     7a4:	e3a01004 	mov	r1, #4
/home/kwilson/Projects/psaseclipse/olimex2378/liblpc23xx/lpc23xx-i2c/lpc23xx-i2c.c:243
            //   An ACK has been received. 
            //   The first data byte will be transmitted. 
            //   An ACK bit will be received.
        case 0x18:
            if(i2c0_s_g.state == I2C_START) {
                I2C0DAT           = i2c0_s_g.i2c_tx_buffer[i2c_wrindex_g++] ;
     7a8:	e5830000 	str	r0, [r3]
/home/kwilson/Projects/psaseclipse/olimex2378/liblpc23xx/lpc23xx-i2c/lpc23xx-i2c.c:245
                I2C0CONSET        = I2C_AA;
                I2C0CONCLR        = I2C_STAC; // undocumented clear start flag
     7ac:	e3a00020 	mov	r0, #32
/home/kwilson/Projects/psaseclipse/olimex2378/liblpc23xx/lpc23xx-i2c/lpc23xx-i2c.c:244
            //   The first data byte will be transmitted. 
            //   An ACK bit will be received.
        case 0x18:
            if(i2c0_s_g.state == I2C_START) {
                I2C0DAT           = i2c0_s_g.i2c_tx_buffer[i2c_wrindex_g++] ;
                I2C0CONSET        = I2C_AA;
     7b0:	e5c21000 	strb	r1, [r2]
/home/kwilson/Projects/psaseclipse/olimex2378/liblpc23xx/lpc23xx-i2c/lpc23xx-i2c.c:245
                I2C0CONCLR        = I2C_STAC; // undocumented clear start flag
     7b4:	e5c20018 	strb	r0, [r2, #24]
/home/kwilson/Projects/psaseclipse/olimex2378/liblpc23xx/lpc23xx-i2c/lpc23xx-i2c.c:246
                i2c0_s_g.state    = I2C_ACK;
     7b8:	e5831008 	str	r1, [r3, #8]
     7bc:	eaffffd3 	b	710 <i2c0_isr+0x2bc>
/home/kwilson/Projects/psaseclipse/olimex2378/liblpc23xx/lpc23xx-i2c/lpc23xx-i2c.c:337
            //   Data will be read from I2DAT. 
            //   Additional data will be received. 
            //   If this is the last data byte then NOT ACK will be returned, 
            //     otherwise ACK will be returned. 
        case 0x50:
            i2c0_s_g.i2c_rd_buffer[i2c_rdindex_g++] = I2C0DAT;  
     7c0:	e59f3184 	ldr	r3, [pc, #388]	; 94c <i2c0_isr+0x4f8>
     7c4:	e3a0220e 	mov	r2, #-536870912	; 0xe0000000
     7c8:	e2822907 	add	r2, r2, #114688	; 0x1c000
     7cc:	e5931004 	ldr	r1, [r3, #4]
     7d0:	e5d2c008 	ldrb	ip, [r2, #8]
     7d4:	e0830001 	add	r0, r3, r1
     7d8:	e20cc0ff 	and	ip, ip, #255	; 0xff
     7dc:	e2811001 	add	r1, r1, #1
     7e0:	e5c0c04c 	strb	ip, [r0, #76]	; 0x4c
     7e4:	e5831004 	str	r1, [r3, #4]
/home/kwilson/Projects/psaseclipse/olimex2378/liblpc23xx/lpc23xx-i2c/lpc23xx-i2c.c:338
            if(i2c_rdindex_g < i2c0_s_g.read_length) {
     7e8:	e5d3008e 	ldrb	r0, [r3, #142]	; 0x8e
     7ec:	e5931004 	ldr	r1, [r3, #4]
     7f0:	e1500001 	cmp	r0, r1
/home/kwilson/Projects/psaseclipse/olimex2378/liblpc23xx/lpc23xx-i2c/lpc23xx-i2c.c:342
                I2C0CONSET     = I2C_AA;
                i2c0_s_g.state = I2C_ACK;
            } else { // it's the last byte...
                I2C0CONCLR     = I2C_AAC;
     7f4:	93a01004 	movls	r1, #4
/home/kwilson/Projects/psaseclipse/olimex2378/liblpc23xx/lpc23xx-i2c/lpc23xx-i2c.c:339
            //   If this is the last data byte then NOT ACK will be returned, 
            //     otherwise ACK will be returned. 
        case 0x50:
            i2c0_s_g.i2c_rd_buffer[i2c_rdindex_g++] = I2C0DAT;  
            if(i2c_rdindex_g < i2c0_s_g.read_length) {
                I2C0CONSET     = I2C_AA;
     7f8:	83a01004 	movhi	r1, #4
/home/kwilson/Projects/psaseclipse/olimex2378/liblpc23xx/lpc23xx-i2c/lpc23xx-i2c.c:342
                i2c0_s_g.state = I2C_ACK;
            } else { // it's the last byte...
                I2C0CONCLR     = I2C_AAC;
     7fc:	95c21018 	strbls	r1, [r2, #24]
/home/kwilson/Projects/psaseclipse/olimex2378/liblpc23xx/lpc23xx-i2c/lpc23xx-i2c.c:343
                i2c0_s_g.state = I2C_NOTACK;
     800:	93a02005 	movls	r2, #5
/home/kwilson/Projects/psaseclipse/olimex2378/liblpc23xx/lpc23xx-i2c/lpc23xx-i2c.c:339
            //   If this is the last data byte then NOT ACK will be returned, 
            //     otherwise ACK will be returned. 
        case 0x50:
            i2c0_s_g.i2c_rd_buffer[i2c_rdindex_g++] = I2C0DAT;  
            if(i2c_rdindex_g < i2c0_s_g.read_length) {
                I2C0CONSET     = I2C_AA;
     804:	85c21000 	strbhi	r1, [r2]
/home/kwilson/Projects/psaseclipse/olimex2378/liblpc23xx/lpc23xx-i2c/lpc23xx-i2c.c:343
                i2c0_s_g.state = I2C_ACK;
            } else { // it's the last byte...
                I2C0CONCLR     = I2C_AAC;
                i2c0_s_g.state = I2C_NOTACK;
     808:	95832008 	strls	r2, [r3, #8]
/home/kwilson/Projects/psaseclipse/olimex2378/liblpc23xx/lpc23xx-i2c/lpc23xx-i2c.c:340
            //     otherwise ACK will be returned. 
        case 0x50:
            i2c0_s_g.i2c_rd_buffer[i2c_rdindex_g++] = I2C0DAT;  
            if(i2c_rdindex_g < i2c0_s_g.read_length) {
                I2C0CONSET     = I2C_AA;
                i2c0_s_g.state = I2C_ACK;
     80c:	85831008 	strhi	r1, [r3, #8]
     810:	eaffffbe 	b	710 <i2c0_isr+0x2bc>
/home/kwilson/Projects/psaseclipse/olimex2378/liblpc23xx/lpc23xx-i2c/lpc23xx-i2c.c:299
            //   The bus has been released and not addressed Slave mode is entered. 
            //   A new Start condition will be transmitted when the bus is free again.
            //   *** We will issue a STOP here, since we should never be in Multiple master 
            //   mode for our application ***
        case 0x38:
            I2C0CONSET        = (I2C_STO | I2C_AA);
     814:	e3a0320e 	mov	r3, #-536870912	; 0xe0000000
     818:	e2833907 	add	r3, r3, #114688	; 0x1c000
/home/kwilson/Projects/psaseclipse/olimex2378/liblpc23xx/lpc23xx-i2c/lpc23xx-i2c.c:301
            xact_exit       = 1;
            i2c0_s_g.state    = I2C_ERROR;
     81c:	e59f4128 	ldr	r4, [pc, #296]	; 94c <i2c0_isr+0x4f8>
/home/kwilson/Projects/psaseclipse/olimex2378/liblpc23xx/lpc23xx-i2c/lpc23xx-i2c.c:299
            //   The bus has been released and not addressed Slave mode is entered. 
            //   A new Start condition will be transmitted when the bus is free again.
            //   *** We will issue a STOP here, since we should never be in Multiple master 
            //   mode for our application ***
        case 0x38:
            I2C0CONSET        = (I2C_STO | I2C_AA);
     820:	e3a02014 	mov	r2, #20
     824:	e5c32000 	strb	r2, [r3]
/home/kwilson/Projects/psaseclipse/olimex2378/liblpc23xx/lpc23xx-i2c/lpc23xx-i2c.c:301
            xact_exit       = 1;
            i2c0_s_g.state    = I2C_ERROR;
     828:	e3a03006 	mov	r3, #6
     82c:	e5843008 	str	r3, [r4, #8]
/home/kwilson/Projects/psaseclipse/olimex2378/liblpc23xx/lpc23xx-i2c/lpc23xx-i2c.c:302
            break;
     830:	eaffff78 	b	618 <i2c0_isr+0x1c4>
/home/kwilson/Projects/psaseclipse/olimex2378/liblpc23xx/lpc23xx-i2c/lpc23xx-i2c.c:310

            // State 0x40 
            //   Previous state was State 0x08 or State 0x10. 
            //   Slave Address + Read has been transmitted, ACK has been received.
        case 0x40:
            if (i2c0_s_g.read_length == 1) {
     834:	e59f3110 	ldr	r3, [pc, #272]	; 94c <i2c0_isr+0x4f8>
     838:	e5d3308e 	ldrb	r3, [r3, #142]	; 0x8e
     83c:	e3530001 	cmp	r3, #1
     840:	0a000031 	beq	90c <i2c0_isr+0x4b8>
/home/kwilson/Projects/psaseclipse/olimex2378/liblpc23xx/lpc23xx-i2c/lpc23xx-i2c.c:316
                // go to state 0x58
                I2C0CONCLR        = I2C_AAC;
                I2C0CONCLR        = I2C_STAC; // undocumented clear start flag
            } else {
                // go to state 0x50
                I2C0CONSET        = I2C_AA;
     844:	e3a0320e 	mov	r3, #-536870912	; 0xe0000000
     848:	e2833907 	add	r3, r3, #114688	; 0x1c000
     84c:	e3a02004 	mov	r2, #4
     850:	e5c32000 	strb	r2, [r3]
/home/kwilson/Projects/psaseclipse/olimex2378/liblpc23xx/lpc23xx-i2c/lpc23xx-i2c.c:317
                I2C0CONCLR        = I2C_STAC; // undocumented clear start flag
     854:	e3a02020 	mov	r2, #32
     858:	e5c32018 	strb	r2, [r3, #24]
     85c:	eaffffab 	b	710 <i2c0_isr+0x2bc>
/home/kwilson/Projects/psaseclipse/olimex2378/liblpc23xx/lpc23xx-i2c/lpc23xx-i2c.c:352
            // State: 0x58 - 
            //   Data has been received, NOT ACK has been returned. 
            //   Data will be read from I2DAT. 
            //   A Stop condition will be transmitted.
        case 0x58:
            i2c0_s_g.i2c_rd_buffer[i2c_rdindex_g++] = I2C0DAT;  
     860:	e59f40e4 	ldr	r4, [pc, #228]	; 94c <i2c0_isr+0x4f8>
     864:	e3a0320e 	mov	r3, #-536870912	; 0xe0000000
     868:	e2833907 	add	r3, r3, #114688	; 0x1c000
     86c:	e5942004 	ldr	r2, [r4, #4]
     870:	e5d30008 	ldrb	r0, [r3, #8]
     874:	e0841002 	add	r1, r4, r2
     878:	e20000ff 	and	r0, r0, #255	; 0xff
     87c:	e2822001 	add	r2, r2, #1
     880:	e5c1004c 	strb	r0, [r1, #76]	; 0x4c
     884:	e5842004 	str	r2, [r4, #4]
/home/kwilson/Projects/psaseclipse/olimex2378/liblpc23xx/lpc23xx-i2c/lpc23xx-i2c.c:353
            I2C0CONSET         = (I2C_STO | I2C_AA);
     888:	e3a02014 	mov	r2, #20
     88c:	e5c32000 	strb	r2, [r3]
/home/kwilson/Projects/psaseclipse/olimex2378/liblpc23xx/lpc23xx-i2c/lpc23xx-i2c.c:354
            i2c0_s_g.state     = I2C_NOTACK;
     890:	e3a03005 	mov	r3, #5
     894:	e5843008 	str	r3, [r4, #8]
/home/kwilson/Projects/psaseclipse/olimex2378/liblpc23xx/lpc23xx-i2c/lpc23xx-i2c.c:356
            xact_exit = 1;
            break;
     898:	eaffff5e 	b	618 <i2c0_isr+0x1c4>
/home/kwilson/Projects/psaseclipse/olimex2378/liblpc23xx/lpc23xx-i2c/lpc23xx-i2c.c:266
            //   Data has been transmitted, ACK has been received. 
            //   If the transmitted data was the last data byte then 
            //   check to see if read length is > 0. (looking for repeated 
            //   start transaction)
        case 0x28:
            if(i2c_wrindex_g < i2c0_s_g.write_length) {
     89c:	e59f40a8 	ldr	r4, [pc, #168]	; 94c <i2c0_isr+0x4f8>
     8a0:	e5d4208d 	ldrb	r2, [r4, #141]	; 0x8d
     8a4:	e5943000 	ldr	r3, [r4]
     8a8:	e1520003 	cmp	r2, r3
     8ac:	8a000009 	bhi	8d8 <i2c0_isr+0x484>
/home/kwilson/Projects/psaseclipse/olimex2378/liblpc23xx/lpc23xx-i2c/lpc23xx-i2c.c:271
                I2C0DAT           = i2c0_s_g.i2c_tx_buffer[i2c_wrindex_g++] ;
                I2C0CONSET        = I2C_AA;
                i2c0_s_g.state    = I2C_ACK;
            } else {
                if (i2c0_s_g.read_length != 0) {
     8b0:	e5d4308e 	ldrb	r3, [r4, #142]	; 0x8e
     8b4:	e3530000 	cmp	r3, #0
     8b8:	0a00001a 	beq	928 <i2c0_isr+0x4d4>
/home/kwilson/Projects/psaseclipse/olimex2378/liblpc23xx/lpc23xx-i2c/lpc23xx-i2c.c:272
                    I2C0CONSET        = I2C_STA;  // repeated start
     8bc:	e3a0320e 	mov	r3, #-536870912	; 0xe0000000
     8c0:	e2833907 	add	r3, r3, #114688	; 0x1c000
     8c4:	e3a02020 	mov	r2, #32
     8c8:	e5c32000 	strb	r2, [r3]
/home/kwilson/Projects/psaseclipse/olimex2378/liblpc23xx/lpc23xx-i2c/lpc23xx-i2c.c:273
                    i2c0_s_g.state    = I2C_REPEATED_START;
     8cc:	e3a03003 	mov	r3, #3
     8d0:	e5843008 	str	r3, [r4, #8]
     8d4:	eaffff8d 	b	710 <i2c0_isr+0x2bc>
/home/kwilson/Projects/psaseclipse/olimex2378/liblpc23xx/lpc23xx-i2c/lpc23xx-i2c.c:267
            //   If the transmitted data was the last data byte then 
            //   check to see if read length is > 0. (looking for repeated 
            //   start transaction)
        case 0x28:
            if(i2c_wrindex_g < i2c0_s_g.write_length) {
                I2C0DAT           = i2c0_s_g.i2c_tx_buffer[i2c_wrindex_g++] ;
     8d8:	e5941000 	ldr	r1, [r4]
     8dc:	e0843001 	add	r3, r4, r1
     8e0:	e5d3000c 	ldrb	r0, [r3, #12]
     8e4:	e3a0320e 	mov	r3, #-536870912	; 0xe0000000
     8e8:	e2833907 	add	r3, r3, #114688	; 0x1c000
/home/kwilson/Projects/psaseclipse/olimex2378/liblpc23xx/lpc23xx-i2c/lpc23xx-i2c.c:268
                I2C0CONSET        = I2C_AA;
     8ec:	e3a02004 	mov	r2, #4
/home/kwilson/Projects/psaseclipse/olimex2378/liblpc23xx/lpc23xx-i2c/lpc23xx-i2c.c:267
            //   If the transmitted data was the last data byte then 
            //   check to see if read length is > 0. (looking for repeated 
            //   start transaction)
        case 0x28:
            if(i2c_wrindex_g < i2c0_s_g.write_length) {
                I2C0DAT           = i2c0_s_g.i2c_tx_buffer[i2c_wrindex_g++] ;
     8f0:	e20000ff 	and	r0, r0, #255	; 0xff
     8f4:	e2811001 	add	r1, r1, #1
     8f8:	e5c30008 	strb	r0, [r3, #8]
     8fc:	e5841000 	str	r1, [r4]
/home/kwilson/Projects/psaseclipse/olimex2378/liblpc23xx/lpc23xx-i2c/lpc23xx-i2c.c:268
                I2C0CONSET        = I2C_AA;
     900:	e5c32000 	strb	r2, [r3]
/home/kwilson/Projects/psaseclipse/olimex2378/liblpc23xx/lpc23xx-i2c/lpc23xx-i2c.c:269
                i2c0_s_g.state    = I2C_ACK;
     904:	e5842008 	str	r2, [r4, #8]
     908:	eaffff80 	b	710 <i2c0_isr+0x2bc>
/home/kwilson/Projects/psaseclipse/olimex2378/liblpc23xx/lpc23xx-i2c/lpc23xx-i2c.c:312
            //   Previous state was State 0x08 or State 0x10. 
            //   Slave Address + Read has been transmitted, ACK has been received.
        case 0x40:
            if (i2c0_s_g.read_length == 1) {
                // go to state 0x58
                I2C0CONCLR        = I2C_AAC;
     90c:	e3a0320e 	mov	r3, #-536870912	; 0xe0000000
     910:	e2833907 	add	r3, r3, #114688	; 0x1c000
     914:	e3a02004 	mov	r2, #4
     918:	e5c32018 	strb	r2, [r3, #24]
/home/kwilson/Projects/psaseclipse/olimex2378/liblpc23xx/lpc23xx-i2c/lpc23xx-i2c.c:313
                I2C0CONCLR        = I2C_STAC; // undocumented clear start flag
     91c:	e282201c 	add	r2, r2, #28
     920:	e5c32018 	strb	r2, [r3, #24]
     924:	eaffff79 	b	710 <i2c0_isr+0x2bc>
/home/kwilson/Projects/psaseclipse/olimex2378/liblpc23xx/lpc23xx-i2c/lpc23xx-i2c.c:275
            } else {
                if (i2c0_s_g.read_length != 0) {
                    I2C0CONSET        = I2C_STA;  // repeated start
                    i2c0_s_g.state    = I2C_REPEATED_START;
                } else {
                    I2C0CONSET        = (I2C_STO | I2C_AA);
     928:	e3a0320e 	mov	r3, #-536870912	; 0xe0000000
     92c:	e2833907 	add	r3, r3, #114688	; 0x1c000
     930:	e3a02014 	mov	r2, #20
     934:	e5c32000 	strb	r2, [r3]
/home/kwilson/Projects/psaseclipse/olimex2378/liblpc23xx/lpc23xx-i2c/lpc23xx-i2c.c:277
                    xact_exit       = 1;
                    i2c0_s_g.state    = I2C_ACK;
     938:	e3a03004 	mov	r3, #4
     93c:	e5843008 	str	r3, [r4, #8]
     940:	eaffff34 	b	618 <i2c0_isr+0x1c4>
     944:	00001c78 	.word	0x00001c78
     948:	00001c8c 	.word	0x00001c8c
     94c:	4000008c 	.word	0x4000008c
     950:	40000094 	.word	0x40000094

00000954 <i2c_create_read_address>:
i2c_create_read_address():
/home/kwilson/Projects/psaseclipse/olimex2378/liblpc23xx/lpc23xx-i2c/lpc23xx-i2c.c:41

/*
 * i2c_create_read_addr
 */
uint8_t i2c_create_read_address(uint8_t addr) {
    return (addr << 1) | 0x1;
     954:	e1a00080 	lsl	r0, r0, #1
/home/kwilson/Projects/psaseclipse/olimex2378/liblpc23xx/lpc23xx-i2c/lpc23xx-i2c.c:40
i2c_master_xact_t*    i2c2_s_caller_g;

/*
 * i2c_create_read_addr
 */
uint8_t i2c_create_read_address(uint8_t addr) {
     958:	e20000fe 	and	r0, r0, #254	; 0xfe
/home/kwilson/Projects/psaseclipse/olimex2378/liblpc23xx/lpc23xx-i2c/lpc23xx-i2c.c:42
    return (addr << 1) | 0x1;
}
     95c:	e3800001 	orr	r0, r0, #1
     960:	e12fff1e 	bx	lr

00000964 <i2c_create_write_address>:
i2c_create_write_address():
/home/kwilson/Projects/psaseclipse/olimex2378/liblpc23xx/lpc23xx-i2c/lpc23xx-i2c.c:48

/*
 * i2c_create_write_addr
 */
uint8_t i2c_create_write_address(uint8_t addr) {
    return addr << 1;
     964:	e1a00080 	lsl	r0, r0, #1
/home/kwilson/Projects/psaseclipse/olimex2378/liblpc23xx/lpc23xx-i2c/lpc23xx-i2c.c:49
}
     968:	e20000fe 	and	r0, r0, #254	; 0xfe
     96c:	e12fff1e 	bx	lr

00000970 <i2c_init_state>:
i2c_init_state():
/home/kwilson/Projects/psaseclipse/olimex2378/liblpc23xx/lpc23xx-i2c/lpc23xx-i2c.c:57
 * i2c_init_state
 */
void i2c_init_state( i2c_master_xact_t* s) {
    int i = 0;

    s->state             = I2C_IDLE;
     970:	e3a03000 	mov	r3, #0
     974:	e5803000 	str	r3, [r0]
/home/kwilson/Projects/psaseclipse/olimex2378/liblpc23xx/lpc23xx-i2c/lpc23xx-i2c.c:58
    for(i=0; i<I2C_MAX_BUFFER; i++) {
     978:	e1a02003 	mov	r2, r3
/home/kwilson/Projects/psaseclipse/olimex2378/liblpc23xx/lpc23xx-i2c/lpc23xx-i2c.c:59
        s->i2c_tx_buffer[i] = 0;
     97c:	e1a01003 	mov	r1, r3
     980:	e0803002 	add	r3, r0, r2
/home/kwilson/Projects/psaseclipse/olimex2378/liblpc23xx/lpc23xx-i2c/lpc23xx-i2c.c:58
 */
void i2c_init_state( i2c_master_xact_t* s) {
    int i = 0;

    s->state             = I2C_IDLE;
    for(i=0; i<I2C_MAX_BUFFER; i++) {
     984:	e2822001 	add	r2, r2, #1
     988:	e3520040 	cmp	r2, #64	; 0x40
/home/kwilson/Projects/psaseclipse/olimex2378/liblpc23xx/lpc23xx-i2c/lpc23xx-i2c.c:59
        s->i2c_tx_buffer[i] = 0;
     98c:	e5c31004 	strb	r1, [r3, #4]
     990:	e3a0c000 	mov	ip, #0
/home/kwilson/Projects/psaseclipse/olimex2378/liblpc23xx/lpc23xx-i2c/lpc23xx-i2c.c:60
        s->i2c_rd_buffer[i] = 0;
     994:	e5c31044 	strb	r1, [r3, #68]	; 0x44
/home/kwilson/Projects/psaseclipse/olimex2378/liblpc23xx/lpc23xx-i2c/lpc23xx-i2c.c:58
 */
void i2c_init_state( i2c_master_xact_t* s) {
    int i = 0;

    s->state             = I2C_IDLE;
    for(i=0; i<I2C_MAX_BUFFER; i++) {
     998:	1afffff8 	bne	980 <i2c_init_state+0x10>
/home/kwilson/Projects/psaseclipse/olimex2378/liblpc23xx/lpc23xx-i2c/lpc23xx-i2c.c:62
        s->i2c_tx_buffer[i] = 0;
        s->i2c_rd_buffer[i] = 0;
    }
    s->i2c_ext_slave_address = 0x0;
     99c:	e5c0c084 	strb	ip, [r0, #132]	; 0x84
/home/kwilson/Projects/psaseclipse/olimex2378/liblpc23xx/lpc23xx-i2c/lpc23xx-i2c.c:63
    s->write_length          = 0x0;
     9a0:	e5c0c085 	strb	ip, [r0, #133]	; 0x85
/home/kwilson/Projects/psaseclipse/olimex2378/liblpc23xx/lpc23xx-i2c/lpc23xx-i2c.c:64
    s->read_length           = 0x0;
     9a4:	e5c0c086 	strb	ip, [r0, #134]	; 0x86
/home/kwilson/Projects/psaseclipse/olimex2378/liblpc23xx/lpc23xx-i2c/lpc23xx-i2c.c:65
    s->xact_active           = 0x0;
     9a8:	e5c0c087 	strb	ip, [r0, #135]	; 0x87
/home/kwilson/Projects/psaseclipse/olimex2378/liblpc23xx/lpc23xx-i2c/lpc23xx-i2c.c:66
    s->xact_success          = 0x0;
     9ac:	e5c0c088 	strb	ip, [r0, #136]	; 0x88
/home/kwilson/Projects/psaseclipse/olimex2378/liblpc23xx/lpc23xx-i2c/lpc23xx-i2c.c:67
}
     9b0:	e12fff1e 	bx	lr

000009b4 <i2c_init>:
i2c_init():
/home/kwilson/Projects/psaseclipse/olimex2378/liblpc23xx/lpc23xx-i2c/lpc23xx-i2c.c:78
 * 1. Turn on the power to the channel
 * 2. Configure the clock for the channel
 * 3. Set I/O pins to correct mode
 * 4. Configure interrupt in VIC
 */
void i2c_init(i2c_iface channel) {
     9b4:	e92d4070 	push	{r4, r5, r6, lr}
     9b8:	e1a04000 	mov	r4, r0
/home/kwilson/Projects/psaseclipse/olimex2378/liblpc23xx/lpc23xx-i2c/lpc23xx-i2c.c:80

	uart0_putstring("In i2c_init\n");
     9bc:	e59f02fc 	ldr	r0, [pc, #764]	; cc0 <i2c_init+0x30c>
     9c0:	eb00028e 	bl	1400 <uart0_putstring>
/home/kwilson/Projects/psaseclipse/olimex2378/liblpc23xx/lpc23xx-i2c/lpc23xx-i2c.c:81
    switch(channel) {
     9c4:	e3540001 	cmp	r4, #1
     9c8:	0a000082 	beq	bd8 <i2c_init+0x224>
     9cc:	2a000041 	bcs	ad8 <i2c_init+0x124>
/home/kwilson/Projects/psaseclipse/olimex2378/liblpc23xx/lpc23xx-i2c/lpc23xx-i2c.c:83
        case I2C0: 
            init_binsem( &i2c0_binsem_g );
     9d0:	e59f52ec 	ldr	r5, [pc, #748]	; cc4 <i2c_init+0x310>
     9d4:	e285009c 	add	r0, r5, #156	; 0x9c
     9d8:	eb00032c 	bl	1690 <init_binsem>
i2c_init_state():
/home/kwilson/Projects/psaseclipse/olimex2378/liblpc23xx/lpc23xx-i2c/lpc23xx-i2c.c:57
 * i2c_init_state
 */
void i2c_init_state( i2c_master_xact_t* s) {
    int i = 0;

    s->state             = I2C_IDLE;
     9dc:	e3a02000 	mov	r2, #0
     9e0:	e5852008 	str	r2, [r5, #8]
/home/kwilson/Projects/psaseclipse/olimex2378/liblpc23xx/lpc23xx-i2c/lpc23xx-i2c.c:58
    for(i=0; i<I2C_MAX_BUFFER; i++) {
     9e4:	e1a03002 	mov	r3, r2
/home/kwilson/Projects/psaseclipse/olimex2378/liblpc23xx/lpc23xx-i2c/lpc23xx-i2c.c:59
        s->i2c_tx_buffer[i] = 0;
     9e8:	e1a01002 	mov	r1, r2
     9ec:	e0852003 	add	r2, r5, r3
/home/kwilson/Projects/psaseclipse/olimex2378/liblpc23xx/lpc23xx-i2c/lpc23xx-i2c.c:58
 */
void i2c_init_state( i2c_master_xact_t* s) {
    int i = 0;

    s->state             = I2C_IDLE;
    for(i=0; i<I2C_MAX_BUFFER; i++) {
     9f0:	e2833001 	add	r3, r3, #1
     9f4:	e3530040 	cmp	r3, #64	; 0x40
/home/kwilson/Projects/psaseclipse/olimex2378/liblpc23xx/lpc23xx-i2c/lpc23xx-i2c.c:59
        s->i2c_tx_buffer[i] = 0;
     9f8:	e5c2100c 	strb	r1, [r2, #12]
     9fc:	e59f02c0 	ldr	r0, [pc, #704]	; cc4 <i2c_init+0x310>
     a00:	e3a04000 	mov	r4, #0
/home/kwilson/Projects/psaseclipse/olimex2378/liblpc23xx/lpc23xx-i2c/lpc23xx-i2c.c:60
        s->i2c_rd_buffer[i] = 0;
     a04:	e5c2104c 	strb	r1, [r2, #76]	; 0x4c
/home/kwilson/Projects/psaseclipse/olimex2378/liblpc23xx/lpc23xx-i2c/lpc23xx-i2c.c:58
 */
void i2c_init_state( i2c_master_xact_t* s) {
    int i = 0;

    s->state             = I2C_IDLE;
    for(i=0; i<I2C_MAX_BUFFER; i++) {
     a08:	1afffff7 	bne	9ec <i2c_init+0x38>
/home/kwilson/Projects/psaseclipse/olimex2378/liblpc23xx/lpc23xx-i2c/lpc23xx-i2c.c:62
        s->i2c_tx_buffer[i] = 0;
        s->i2c_rd_buffer[i] = 0;
    }
    s->i2c_ext_slave_address = 0x0;
     a0c:	e5c0408c 	strb	r4, [r0, #140]	; 0x8c
i2c_init():
/home/kwilson/Projects/psaseclipse/olimex2378/liblpc23xx/lpc23xx-i2c/lpc23xx-i2c.c:87
        case I2C0: 
            init_binsem( &i2c0_binsem_g );

            i2c_init_state( &i2c0_s_g );

            POWER_I2C0_ON;
     a10:	e3a0320e 	mov	r3, #-536870912	; 0xe0000000
i2c_init_state():
/home/kwilson/Projects/psaseclipse/olimex2378/liblpc23xx/lpc23xx-i2c/lpc23xx-i2c.c:63
    for(i=0; i<I2C_MAX_BUFFER; i++) {
        s->i2c_tx_buffer[i] = 0;
        s->i2c_rd_buffer[i] = 0;
    }
    s->i2c_ext_slave_address = 0x0;
    s->write_length          = 0x0;
     a14:	e5c0408d 	strb	r4, [r0, #141]	; 0x8d
/home/kwilson/Projects/psaseclipse/olimex2378/liblpc23xx/lpc23xx-i2c/lpc23xx-i2c.c:64
    s->read_length           = 0x0;
     a18:	e5c0408e 	strb	r4, [r0, #142]	; 0x8e
/home/kwilson/Projects/psaseclipse/olimex2378/liblpc23xx/lpc23xx-i2c/lpc23xx-i2c.c:65
    s->xact_active           = 0x0;
     a1c:	e5c0408f 	strb	r4, [r0, #143]	; 0x8f
/home/kwilson/Projects/psaseclipse/olimex2378/liblpc23xx/lpc23xx-i2c/lpc23xx-i2c.c:66
    s->xact_success          = 0x0;
     a20:	e5c04090 	strb	r4, [r0, #144]	; 0x90
i2c_init():
/home/kwilson/Projects/psaseclipse/olimex2378/liblpc23xx/lpc23xx-i2c/lpc23xx-i2c.c:87
        case I2C0: 
            init_binsem( &i2c0_binsem_g );

            i2c_init_state( &i2c0_s_g );

            POWER_I2C0_ON;
     a24:	e283397f 	add	r3, r3, #2080768	; 0x1fc000
     a28:	e59320c4 	ldr	r2, [r3, #196]	; 0xc4
/home/kwilson/Projects/psaseclipse/olimex2378/liblpc23xx/lpc23xx-i2c/lpc23xx-i2c.c:89

            I2C0CONCLR = 0x7C;
     a2c:	e3a0520e 	mov	r5, #-536870912	; 0xe0000000
/home/kwilson/Projects/psaseclipse/olimex2378/liblpc23xx/lpc23xx-i2c/lpc23xx-i2c.c:87
        case I2C0: 
            init_binsem( &i2c0_binsem_g );

            i2c_init_state( &i2c0_s_g );

            POWER_I2C0_ON;
     a30:	e3822080 	orr	r2, r2, #128	; 0x80
     a34:	e58320c4 	str	r2, [r3, #196]	; 0xc4
/home/kwilson/Projects/psaseclipse/olimex2378/liblpc23xx/lpc23xx-i2c/lpc23xx-i2c.c:89

            I2C0CONCLR = 0x7C;
     a38:	e2855907 	add	r5, r5, #114688	; 0x1c000
     a3c:	e3a0207c 	mov	r2, #124	; 0x7c
     a40:	e5c52018 	strb	r2, [r5, #24]
/home/kwilson/Projects/psaseclipse/olimex2378/liblpc23xx/lpc23xx-i2c/lpc23xx-i2c.c:90
            I2C0CONSET = (I2C_I2EN | I2C_AA); // master mode
     a44:	e3a02044 	mov	r2, #68	; 0x44
     a48:	e5c52000 	strb	r2, [r5]
/home/kwilson/Projects/psaseclipse/olimex2378/liblpc23xx/lpc23xx-i2c/lpc23xx-i2c.c:93

            // I2C clock
            I2C0_IS_CCLK_DIV1;
     a4c:	e59321a8 	ldr	r2, [r3, #424]	; 0x1a8
     a50:	e3c2290b 	bic	r2, r2, #180224	; 0x2c000
/home/kwilson/Projects/psaseclipse/olimex2378/liblpc23xx/lpc23xx-i2c/lpc23xx-i2c.c:94
            I2C0SCLL   = I2SCLLOW;
     a54:	e3a00e19 	mov	r0, #400	; 0x190
/home/kwilson/Projects/psaseclipse/olimex2378/liblpc23xx/lpc23xx-i2c/lpc23xx-i2c.c:93

            I2C0CONCLR = 0x7C;
            I2C0CONSET = (I2C_I2EN | I2C_AA); // master mode

            // I2C clock
            I2C0_IS_CCLK_DIV1;
     a58:	e3822901 	orr	r2, r2, #16384	; 0x4000
     a5c:	e58321a8 	str	r2, [r3, #424]	; 0x1a8
/home/kwilson/Projects/psaseclipse/olimex2378/liblpc23xx/lpc23xx-i2c/lpc23xx-i2c.c:94
            I2C0SCLL   = I2SCLLOW;
     a60:	e1c501b4 	strh	r0, [r5, #20]
/home/kwilson/Projects/psaseclipse/olimex2378/liblpc23xx/lpc23xx-i2c/lpc23xx-i2c.c:97
            I2C0SCLH   = I2SCLHIGH;

            I2C0_ENABLE_SDA0_PIN;
     a64:	e3a0320e 	mov	r3, #-536870912	; 0xe0000000
/home/kwilson/Projects/psaseclipse/olimex2378/liblpc23xx/lpc23xx-i2c/lpc23xx-i2c.c:95
            I2C0CONSET = (I2C_I2EN | I2C_AA); // master mode

            // I2C clock
            I2C0_IS_CCLK_DIV1;
            I2C0SCLL   = I2SCLLOW;
            I2C0SCLH   = I2SCLHIGH;
     a68:	e1c501b0 	strh	r0, [r5, #16]
/home/kwilson/Projects/psaseclipse/olimex2378/liblpc23xx/lpc23xx-i2c/lpc23xx-i2c.c:97

            I2C0_ENABLE_SDA0_PIN;
     a6c:	e283390b 	add	r3, r3, #180224	; 0x2c000
     a70:	e5932004 	ldr	r2, [r3, #4]
     a74:	e3c22503 	bic	r2, r2, #12582912	; 0xc00000
     a78:	e3822501 	orr	r2, r2, #4194304	; 0x400000
     a7c:	e5832004 	str	r2, [r3, #4]
/home/kwilson/Projects/psaseclipse/olimex2378/liblpc23xx/lpc23xx-i2c/lpc23xx-i2c.c:98
            I2C0_ENABLE_SCL0_PIN;
     a80:	e5932004 	ldr	r2, [r3, #4]
     a84:	e3c22403 	bic	r2, r2, #50331648	; 0x3000000
     a88:	e3822401 	orr	r2, r2, #16777216	; 0x1000000
     a8c:	e5832004 	str	r2, [r3, #4]
/home/kwilson/Projects/psaseclipse/olimex2378/liblpc23xx/lpc23xx-i2c/lpc23xx-i2c.c:105
            // pinmode:   I2C0 pins permanent open drain (pullup)
            // reference: lpc23xx usermanual p158 table 107 footnote 2

            // vic/
            // set up VIC p93 table 86 lpc23xx user manual
            ENABLE_I2C0_INT;
     a90:	e3e06000 	mvn	r6, #0
     a94:	e5163fef 	ldr	r3, [r6, #-4079]	; 0xfef
     a98:	e3833c02 	orr	r3, r3, #512	; 0x200
     a9c:	e5063fef 	str	r3, [r6, #-4079]	; 0xfef
/home/kwilson/Projects/psaseclipse/olimex2378/liblpc23xx/lpc23xx-i2c/lpc23xx-i2c.c:107

            uart0_putstring("VICIntEnable is: 0b");
     aa0:	e59f0220 	ldr	r0, [pc, #544]	; cc8 <i2c_init+0x314>
     aa4:	eb000255 	bl	1400 <uart0_putstring>
/home/kwilson/Projects/psaseclipse/olimex2378/liblpc23xx/lpc23xx-i2c/lpc23xx-i2c.c:108
               uart0_putstring(util_uitoa(VICIntEnable,2));
     aa8:	e3a01002 	mov	r1, #2
     aac:	e5160fef 	ldr	r0, [r6, #-4079]	; 0xfef
     ab0:	eb0002cb 	bl	15e4 <util_uitoa>
     ab4:	eb000251 	bl	1400 <uart0_putstring>
/home/kwilson/Projects/psaseclipse/olimex2378/liblpc23xx/lpc23xx-i2c/lpc23xx-i2c.c:109
               uart0_putstring("\n");
     ab8:	e59f020c 	ldr	r0, [pc, #524]	; ccc <i2c_init+0x318>
     abc:	eb00024f 	bl	1400 <uart0_putstring>
/home/kwilson/Projects/psaseclipse/olimex2378/liblpc23xx/lpc23xx-i2c/lpc23xx-i2c.c:111

            VICVectAddr9 = (unsigned int) i2c0_isr;
     ac0:	e59f3208 	ldr	r3, [pc, #520]	; cd0 <i2c_init+0x31c>
     ac4:	e5063edb 	str	r3, [r6, #-3803]	; 0xedb
/home/kwilson/Projects/psaseclipse/olimex2378/liblpc23xx/lpc23xx-i2c/lpc23xx-i2c.c:114
            VICAddress = 0x0;      // clear VIC address

            I2C0CONCLR   = I2C_SIC;
     ac8:	e3a03008 	mov	r3, #8
/home/kwilson/Projects/psaseclipse/olimex2378/liblpc23xx/lpc23xx-i2c/lpc23xx-i2c.c:112
            uart0_putstring("VICIntEnable is: 0b");
               uart0_putstring(util_uitoa(VICIntEnable,2));
               uart0_putstring("\n");

            VICVectAddr9 = (unsigned int) i2c0_isr;
            VICAddress = 0x0;      // clear VIC address
     acc:	e50640ff 	str	r4, [r6, #-255]	; 0xff
/home/kwilson/Projects/psaseclipse/olimex2378/liblpc23xx/lpc23xx-i2c/lpc23xx-i2c.c:114

            I2C0CONCLR   = I2C_SIC;
     ad0:	e5c53018 	strb	r3, [r5, #24]
/home/kwilson/Projects/psaseclipse/olimex2378/liblpc23xx/lpc23xx-i2c/lpc23xx-i2c.c:115
            break;
     ad4:	e8bd8070 	pop	{r4, r5, r6, pc}
/home/kwilson/Projects/psaseclipse/olimex2378/liblpc23xx/lpc23xx-i2c/lpc23xx-i2c.c:81
 * 4. Configure interrupt in VIC
 */
void i2c_init(i2c_iface channel) {

	uart0_putstring("In i2c_init\n");
    switch(channel) {
     ad8:	e3540002 	cmp	r4, #2
     adc:	18bd8070 	popne	{r4, r5, r6, pc}
/home/kwilson/Projects/psaseclipse/olimex2378/liblpc23xx/lpc23xx-i2c/lpc23xx-i2c.c:147

            I2C1CONCLR    = I2C_SIC;
            break;

        case I2C2: 
            init_binsem(&i2c2_binsem_g);
     ae0:	e59f51dc 	ldr	r5, [pc, #476]	; cc4 <i2c_init+0x310>
     ae4:	e2850e13 	add	r0, r5, #304	; 0x130
     ae8:	eb0002e8 	bl	1690 <init_binsem>
i2c_init_state():
/home/kwilson/Projects/psaseclipse/olimex2378/liblpc23xx/lpc23xx-i2c/lpc23xx-i2c.c:57
 * i2c_init_state
 */
void i2c_init_state( i2c_master_xact_t* s) {
    int i = 0;

    s->state             = I2C_IDLE;
     aec:	e3a02000 	mov	r2, #0
     af0:	e5852134 	str	r2, [r5, #308]	; 0x134
/home/kwilson/Projects/psaseclipse/olimex2378/liblpc23xx/lpc23xx-i2c/lpc23xx-i2c.c:58
    for(i=0; i<I2C_MAX_BUFFER; i++) {
     af4:	e1a03002 	mov	r3, r2
/home/kwilson/Projects/psaseclipse/olimex2378/liblpc23xx/lpc23xx-i2c/lpc23xx-i2c.c:59
        s->i2c_tx_buffer[i] = 0;
     af8:	e1a01002 	mov	r1, r2
     afc:	e0852003 	add	r2, r5, r3
/home/kwilson/Projects/psaseclipse/olimex2378/liblpc23xx/lpc23xx-i2c/lpc23xx-i2c.c:58
 */
void i2c_init_state( i2c_master_xact_t* s) {
    int i = 0;

    s->state             = I2C_IDLE;
    for(i=0; i<I2C_MAX_BUFFER; i++) {
     b00:	e2833001 	add	r3, r3, #1
     b04:	e3530040 	cmp	r3, #64	; 0x40
/home/kwilson/Projects/psaseclipse/olimex2378/liblpc23xx/lpc23xx-i2c/lpc23xx-i2c.c:59
        s->i2c_tx_buffer[i] = 0;
     b08:	e5c21138 	strb	r1, [r2, #312]	; 0x138
     b0c:	e59f01b0 	ldr	r0, [pc, #432]	; cc4 <i2c_init+0x310>
     b10:	e3a0c000 	mov	ip, #0
/home/kwilson/Projects/psaseclipse/olimex2378/liblpc23xx/lpc23xx-i2c/lpc23xx-i2c.c:60
        s->i2c_rd_buffer[i] = 0;
     b14:	e5c21178 	strb	r1, [r2, #376]	; 0x178
/home/kwilson/Projects/psaseclipse/olimex2378/liblpc23xx/lpc23xx-i2c/lpc23xx-i2c.c:58
 */
void i2c_init_state( i2c_master_xact_t* s) {
    int i = 0;

    s->state             = I2C_IDLE;
    for(i=0; i<I2C_MAX_BUFFER; i++) {
     b18:	1afffff7 	bne	afc <i2c_init+0x148>
/home/kwilson/Projects/psaseclipse/olimex2378/liblpc23xx/lpc23xx-i2c/lpc23xx-i2c.c:62
        s->i2c_tx_buffer[i] = 0;
        s->i2c_rd_buffer[i] = 0;
    }
    s->i2c_ext_slave_address = 0x0;
     b1c:	e5c0c1b8 	strb	ip, [r0, #440]	; 0x1b8
i2c_init():
/home/kwilson/Projects/psaseclipse/olimex2378/liblpc23xx/lpc23xx-i2c/lpc23xx-i2c.c:151
        case I2C2: 
            init_binsem(&i2c2_binsem_g);

            i2c_init_state( &i2c2_s_g );

            POWER_I2C2_ON;
     b20:	e3a0320e 	mov	r3, #-536870912	; 0xe0000000
i2c_init_state():
/home/kwilson/Projects/psaseclipse/olimex2378/liblpc23xx/lpc23xx-i2c/lpc23xx-i2c.c:63
    for(i=0; i<I2C_MAX_BUFFER; i++) {
        s->i2c_tx_buffer[i] = 0;
        s->i2c_rd_buffer[i] = 0;
    }
    s->i2c_ext_slave_address = 0x0;
    s->write_length          = 0x0;
     b24:	e5c0c1b9 	strb	ip, [r0, #441]	; 0x1b9
/home/kwilson/Projects/psaseclipse/olimex2378/liblpc23xx/lpc23xx-i2c/lpc23xx-i2c.c:64
    s->read_length           = 0x0;
     b28:	e5c0c1ba 	strb	ip, [r0, #442]	; 0x1ba
/home/kwilson/Projects/psaseclipse/olimex2378/liblpc23xx/lpc23xx-i2c/lpc23xx-i2c.c:65
    s->xact_active           = 0x0;
     b2c:	e5c0c1bb 	strb	ip, [r0, #443]	; 0x1bb
/home/kwilson/Projects/psaseclipse/olimex2378/liblpc23xx/lpc23xx-i2c/lpc23xx-i2c.c:66
    s->xact_success          = 0x0;
     b30:	e5c0c1bc 	strb	ip, [r0, #444]	; 0x1bc
i2c_init():
/home/kwilson/Projects/psaseclipse/olimex2378/liblpc23xx/lpc23xx-i2c/lpc23xx-i2c.c:151
        case I2C2: 
            init_binsem(&i2c2_binsem_g);

            i2c_init_state( &i2c2_s_g );

            POWER_I2C2_ON;
     b34:	e283397f 	add	r3, r3, #2080768	; 0x1fc000
     b38:	e59310c4 	ldr	r1, [r3, #196]	; 0xc4
/home/kwilson/Projects/psaseclipse/olimex2378/liblpc23xx/lpc23xx-i2c/lpc23xx-i2c.c:153

            I2C2CONCLR = 0x7C;
     b3c:	e3a0220e 	mov	r2, #-536870912	; 0xe0000000
/home/kwilson/Projects/psaseclipse/olimex2378/liblpc23xx/lpc23xx-i2c/lpc23xx-i2c.c:151
        case I2C2: 
            init_binsem(&i2c2_binsem_g);

            i2c_init_state( &i2c2_s_g );

            POWER_I2C2_ON;
     b40:	e3811301 	orr	r1, r1, #67108864	; 0x4000000
     b44:	e58310c4 	str	r1, [r3, #196]	; 0xc4
/home/kwilson/Projects/psaseclipse/olimex2378/liblpc23xx/lpc23xx-i2c/lpc23xx-i2c.c:153

            I2C2CONCLR = 0x7C;
     b48:	e2822702 	add	r2, r2, #524288	; 0x80000
     b4c:	e3a0107c 	mov	r1, #124	; 0x7c
     b50:	e5c21018 	strb	r1, [r2, #24]
/home/kwilson/Projects/psaseclipse/olimex2378/liblpc23xx/lpc23xx-i2c/lpc23xx-i2c.c:154
            I2C2CONSET = (I2C_I2EN | I2C_AA); // master mode
     b54:	e3a01044 	mov	r1, #68	; 0x44
     b58:	e5c21000 	strb	r1, [r2]
/home/kwilson/Projects/psaseclipse/olimex2378/liblpc23xx/lpc23xx-i2c/lpc23xx-i2c.c:157

            // I2C clock
            I2C2_IS_CCLK_DIV1;
     b5c:	e59301ac 	ldr	r0, [r3, #428]	; 0x1ac
     b60:	e3c0060b 	bic	r0, r0, #11534336	; 0xb00000
     b64:	e3800601 	orr	r0, r0, #1048576	; 0x100000
/home/kwilson/Projects/psaseclipse/olimex2378/liblpc23xx/lpc23xx-i2c/lpc23xx-i2c.c:158
            I2C1SCLL   = I2SCLLOW;
     b68:	e3a0120e 	mov	r1, #-536870912	; 0xe0000000
/home/kwilson/Projects/psaseclipse/olimex2378/liblpc23xx/lpc23xx-i2c/lpc23xx-i2c.c:157

            I2C2CONCLR = 0x7C;
            I2C2CONSET = (I2C_I2EN | I2C_AA); // master mode

            // I2C clock
            I2C2_IS_CCLK_DIV1;
     b6c:	e58301ac 	str	r0, [r3, #428]	; 0x1ac
/home/kwilson/Projects/psaseclipse/olimex2378/liblpc23xx/lpc23xx-i2c/lpc23xx-i2c.c:158
            I2C1SCLL   = I2SCLLOW;
     b70:	e2811917 	add	r1, r1, #376832	; 0x5c000
     b74:	e3a00e19 	mov	r0, #400	; 0x190
     b78:	e1c101b4 	strh	r0, [r1, #20]
/home/kwilson/Projects/psaseclipse/olimex2378/liblpc23xx/lpc23xx-i2c/lpc23xx-i2c.c:161
            I2C1SCLH   = I2SCLHIGH;

            I2C2_ENABLE_SDA2_PIN;
     b7c:	e3a0320e 	mov	r3, #-536870912	; 0xe0000000
/home/kwilson/Projects/psaseclipse/olimex2378/liblpc23xx/lpc23xx-i2c/lpc23xx-i2c.c:159
            I2C2CONSET = (I2C_I2EN | I2C_AA); // master mode

            // I2C clock
            I2C2_IS_CCLK_DIV1;
            I2C1SCLL   = I2SCLLOW;
            I2C1SCLH   = I2SCLHIGH;
     b80:	e1c101b0 	strh	r0, [r1, #16]
/home/kwilson/Projects/psaseclipse/olimex2378/liblpc23xx/lpc23xx-i2c/lpc23xx-i2c.c:161

            I2C2_ENABLE_SDA2_PIN;
     b84:	e283390b 	add	r3, r3, #180224	; 0x2c000
     b88:	e5931000 	ldr	r1, [r3]
     b8c:	e3c11603 	bic	r1, r1, #3145728	; 0x300000
     b90:	e3811602 	orr	r1, r1, #2097152	; 0x200000
     b94:	e5831000 	str	r1, [r3]
/home/kwilson/Projects/psaseclipse/olimex2378/liblpc23xx/lpc23xx-i2c/lpc23xx-i2c.c:162
            I2C2_ENABLE_SCL2_PIN;
     b98:	e5931000 	ldr	r1, [r3]
     b9c:	e3c11503 	bic	r1, r1, #12582912	; 0xc00000
     ba0:	e3811502 	orr	r1, r1, #8388608	; 0x800000
     ba4:	e5831000 	str	r1, [r3]
/home/kwilson/Projects/psaseclipse/olimex2378/liblpc23xx/lpc23xx-i2c/lpc23xx-i2c.c:165

            // reference: lpc23xx usermanual p158 table 107 footnote 2
            I2C2_SDA2_PULLUP;
     ba8:	e5931040 	ldr	r1, [r3, #64]	; 0x40
     bac:	e3c11603 	bic	r1, r1, #3145728	; 0x300000
     bb0:	e5831040 	str	r1, [r3, #64]	; 0x40
/home/kwilson/Projects/psaseclipse/olimex2378/liblpc23xx/lpc23xx-i2c/lpc23xx-i2c.c:169

            // vic
            // set up VIC p93 table 86 lpc23xx user manual
            ENABLE_I2C2_INT;
     bb4:	e3e03000 	mvn	r3, #0
     bb8:	e5131fef 	ldr	r1, [r3, #-4079]	; 0xfef
     bbc:	e3811c02 	orr	r1, r1, #512	; 0x200
     bc0:	e5031fef 	str	r1, [r3, #-4079]	; 0xfef
/home/kwilson/Projects/psaseclipse/olimex2378/liblpc23xx/lpc23xx-i2c/lpc23xx-i2c.c:170
            VICVectAddr30 = (unsigned int) i2c2_isr;
     bc4:	e59f1108 	ldr	r1, [pc, #264]	; cd4 <i2c_init+0x320>
     bc8:	e5031e87 	str	r1, [r3, #-3719]	; 0xe87
/home/kwilson/Projects/psaseclipse/olimex2378/liblpc23xx/lpc23xx-i2c/lpc23xx-i2c.c:172

            I2C2CONCLR    = I2C_SIC;
     bcc:	e3a03008 	mov	r3, #8
     bd0:	e5c23018 	strb	r3, [r2, #24]
     bd4:	e8bd8070 	pop	{r4, r5, r6, pc}
/home/kwilson/Projects/psaseclipse/olimex2378/liblpc23xx/lpc23xx-i2c/lpc23xx-i2c.c:119
            I2C0CONCLR   = I2C_SIC;
            break;

        case I2C1: 

            init_binsem(&i2c1_binsem_g);
     bd8:	e59f50e4 	ldr	r5, [pc, #228]	; cc4 <i2c_init+0x310>
     bdc:	e28500a0 	add	r0, r5, #160	; 0xa0
     be0:	eb0002aa 	bl	1690 <init_binsem>
i2c_init_state():
/home/kwilson/Projects/psaseclipse/olimex2378/liblpc23xx/lpc23xx-i2c/lpc23xx-i2c.c:57
 * i2c_init_state
 */
void i2c_init_state( i2c_master_xact_t* s) {
    int i = 0;

    s->state             = I2C_IDLE;
     be4:	e3a02000 	mov	r2, #0
     be8:	e58520a4 	str	r2, [r5, #164]	; 0xa4
/home/kwilson/Projects/psaseclipse/olimex2378/liblpc23xx/lpc23xx-i2c/lpc23xx-i2c.c:58
    for(i=0; i<I2C_MAX_BUFFER; i++) {
     bec:	e1a03002 	mov	r3, r2
/home/kwilson/Projects/psaseclipse/olimex2378/liblpc23xx/lpc23xx-i2c/lpc23xx-i2c.c:59
        s->i2c_tx_buffer[i] = 0;
     bf0:	e1a01002 	mov	r1, r2
     bf4:	e0852003 	add	r2, r5, r3
/home/kwilson/Projects/psaseclipse/olimex2378/liblpc23xx/lpc23xx-i2c/lpc23xx-i2c.c:58
 */
void i2c_init_state( i2c_master_xact_t* s) {
    int i = 0;

    s->state             = I2C_IDLE;
    for(i=0; i<I2C_MAX_BUFFER; i++) {
     bf8:	e2833001 	add	r3, r3, #1
     bfc:	e3530040 	cmp	r3, #64	; 0x40
/home/kwilson/Projects/psaseclipse/olimex2378/liblpc23xx/lpc23xx-i2c/lpc23xx-i2c.c:59
        s->i2c_tx_buffer[i] = 0;
     c00:	e5c210a8 	strb	r1, [r2, #168]	; 0xa8
     c04:	e59f00b8 	ldr	r0, [pc, #184]	; cc4 <i2c_init+0x310>
     c08:	e3a0c000 	mov	ip, #0
/home/kwilson/Projects/psaseclipse/olimex2378/liblpc23xx/lpc23xx-i2c/lpc23xx-i2c.c:60
        s->i2c_rd_buffer[i] = 0;
     c0c:	e5c210e8 	strb	r1, [r2, #232]	; 0xe8
/home/kwilson/Projects/psaseclipse/olimex2378/liblpc23xx/lpc23xx-i2c/lpc23xx-i2c.c:58
 */
void i2c_init_state( i2c_master_xact_t* s) {
    int i = 0;

    s->state             = I2C_IDLE;
    for(i=0; i<I2C_MAX_BUFFER; i++) {
     c10:	1afffff7 	bne	bf4 <i2c_init+0x240>
/home/kwilson/Projects/psaseclipse/olimex2378/liblpc23xx/lpc23xx-i2c/lpc23xx-i2c.c:62
        s->i2c_tx_buffer[i] = 0;
        s->i2c_rd_buffer[i] = 0;
    }
    s->i2c_ext_slave_address = 0x0;
     c14:	e5c0c128 	strb	ip, [r0, #296]	; 0x128
i2c_init():
/home/kwilson/Projects/psaseclipse/olimex2378/liblpc23xx/lpc23xx-i2c/lpc23xx-i2c.c:123

            init_binsem(&i2c1_binsem_g);

            i2c_init_state( &i2c1_s_g );

            POWER_I2C1_ON;
     c18:	e3a0320e 	mov	r3, #-536870912	; 0xe0000000
i2c_init_state():
/home/kwilson/Projects/psaseclipse/olimex2378/liblpc23xx/lpc23xx-i2c/lpc23xx-i2c.c:63
    for(i=0; i<I2C_MAX_BUFFER; i++) {
        s->i2c_tx_buffer[i] = 0;
        s->i2c_rd_buffer[i] = 0;
    }
    s->i2c_ext_slave_address = 0x0;
    s->write_length          = 0x0;
     c1c:	e5c0c129 	strb	ip, [r0, #297]	; 0x129
/home/kwilson/Projects/psaseclipse/olimex2378/liblpc23xx/lpc23xx-i2c/lpc23xx-i2c.c:64
    s->read_length           = 0x0;
     c20:	e5c0c12a 	strb	ip, [r0, #298]	; 0x12a
/home/kwilson/Projects/psaseclipse/olimex2378/liblpc23xx/lpc23xx-i2c/lpc23xx-i2c.c:65
    s->xact_active           = 0x0;
     c24:	e5c0c12b 	strb	ip, [r0, #299]	; 0x12b
/home/kwilson/Projects/psaseclipse/olimex2378/liblpc23xx/lpc23xx-i2c/lpc23xx-i2c.c:66
    s->xact_success          = 0x0;
     c28:	e5c0c12c 	strb	ip, [r0, #300]	; 0x12c
i2c_init():
/home/kwilson/Projects/psaseclipse/olimex2378/liblpc23xx/lpc23xx-i2c/lpc23xx-i2c.c:123

            init_binsem(&i2c1_binsem_g);

            i2c_init_state( &i2c1_s_g );

            POWER_I2C1_ON;
     c2c:	e283397f 	add	r3, r3, #2080768	; 0x1fc000
     c30:	e59310c4 	ldr	r1, [r3, #196]	; 0xc4
/home/kwilson/Projects/psaseclipse/olimex2378/liblpc23xx/lpc23xx-i2c/lpc23xx-i2c.c:125

            I2C1CONCLR = 0x7C;
     c34:	e3a0220e 	mov	r2, #-536870912	; 0xe0000000
/home/kwilson/Projects/psaseclipse/olimex2378/liblpc23xx/lpc23xx-i2c/lpc23xx-i2c.c:123

            init_binsem(&i2c1_binsem_g);

            i2c_init_state( &i2c1_s_g );

            POWER_I2C1_ON;
     c38:	e3811702 	orr	r1, r1, #524288	; 0x80000
     c3c:	e58310c4 	str	r1, [r3, #196]	; 0xc4
/home/kwilson/Projects/psaseclipse/olimex2378/liblpc23xx/lpc23xx-i2c/lpc23xx-i2c.c:125

            I2C1CONCLR = 0x7C;
     c40:	e2822917 	add	r2, r2, #376832	; 0x5c000
     c44:	e3a0107c 	mov	r1, #124	; 0x7c
     c48:	e5c21018 	strb	r1, [r2, #24]
/home/kwilson/Projects/psaseclipse/olimex2378/liblpc23xx/lpc23xx-i2c/lpc23xx-i2c.c:126
            I2C1CONSET = (I2C_I2EN | I2C_AA); // master mode
     c4c:	e3a01044 	mov	r1, #68	; 0x44
     c50:	e5c21000 	strb	r1, [r2]
/home/kwilson/Projects/psaseclipse/olimex2378/liblpc23xx/lpc23xx-i2c/lpc23xx-i2c.c:128

            I2C2_IS_CCLK_DIV1;
     c54:	e59311ac 	ldr	r1, [r3, #428]	; 0x1ac
     c58:	e3c1160b 	bic	r1, r1, #11534336	; 0xb00000
     c5c:	e3811601 	orr	r1, r1, #1048576	; 0x100000
     c60:	e58311ac 	str	r1, [r3, #428]	; 0x1ac
/home/kwilson/Projects/psaseclipse/olimex2378/liblpc23xx/lpc23xx-i2c/lpc23xx-i2c.c:129
            I2C1SCLL   = I2SCLLOW;
     c64:	e3a01e19 	mov	r1, #400	; 0x190
     c68:	e1c211b4 	strh	r1, [r2, #20]
/home/kwilson/Projects/psaseclipse/olimex2378/liblpc23xx/lpc23xx-i2c/lpc23xx-i2c.c:132
            I2C1SCLH   = I2SCLHIGH;

            I2C1_ENABLE_SDA1_PIN;
     c6c:	e3a0320e 	mov	r3, #-536870912	; 0xe0000000
/home/kwilson/Projects/psaseclipse/olimex2378/liblpc23xx/lpc23xx-i2c/lpc23xx-i2c.c:130
            I2C1CONCLR = 0x7C;
            I2C1CONSET = (I2C_I2EN | I2C_AA); // master mode

            I2C2_IS_CCLK_DIV1;
            I2C1SCLL   = I2SCLLOW;
            I2C1SCLH   = I2SCLHIGH;
     c70:	e1c211b0 	strh	r1, [r2, #16]
/home/kwilson/Projects/psaseclipse/olimex2378/liblpc23xx/lpc23xx-i2c/lpc23xx-i2c.c:132

            I2C1_ENABLE_SDA1_PIN;
     c74:	e283390b 	add	r3, r3, #180224	; 0x2c000
     c78:	e5931004 	ldr	r1, [r3, #4]
     c7c:	e38110c0 	orr	r1, r1, #192	; 0xc0
     c80:	e5831004 	str	r1, [r3, #4]
/home/kwilson/Projects/psaseclipse/olimex2378/liblpc23xx/lpc23xx-i2c/lpc23xx-i2c.c:133
            I2C1_ENABLE_SCL1_PIN;
     c84:	e5931004 	ldr	r1, [r3, #4]
     c88:	e3811c03 	orr	r1, r1, #768	; 0x300
     c8c:	e5831004 	str	r1, [r3, #4]
/home/kwilson/Projects/psaseclipse/olimex2378/liblpc23xx/lpc23xx-i2c/lpc23xx-i2c.c:136

            // reference: lpc23xx usermanual p158 table 107 footnote 2
            I2C1_SDA1_PULLUP;
     c90:	e5931044 	ldr	r1, [r3, #68]	; 0x44
     c94:	e3c110c0 	bic	r1, r1, #192	; 0xc0
     c98:	e5831044 	str	r1, [r3, #68]	; 0x44
/home/kwilson/Projects/psaseclipse/olimex2378/liblpc23xx/lpc23xx-i2c/lpc23xx-i2c.c:140

            // vic
            // set up VIC p93 table 86 lpc23xx user manual
            ENABLE_I2C1_INT;
     c9c:	e3e03000 	mvn	r3, #0
     ca0:	e5131fef 	ldr	r1, [r3, #-4079]	; 0xfef
     ca4:	e3811c02 	orr	r1, r1, #512	; 0x200
     ca8:	e5031fef 	str	r1, [r3, #-4079]	; 0xfef
/home/kwilson/Projects/psaseclipse/olimex2378/liblpc23xx/lpc23xx-i2c/lpc23xx-i2c.c:141
            VICVectAddr19 = (unsigned int) i2c1_isr;
     cac:	e59f1024 	ldr	r1, [pc, #36]	; cd8 <i2c_init+0x324>
     cb0:	e5031eb3 	str	r1, [r3, #-3763]	; 0xeb3
/home/kwilson/Projects/psaseclipse/olimex2378/liblpc23xx/lpc23xx-i2c/lpc23xx-i2c.c:143

            I2C1CONCLR    = I2C_SIC;
     cb4:	e3a03008 	mov	r3, #8
     cb8:	e5c23018 	strb	r3, [r2, #24]
/home/kwilson/Projects/psaseclipse/olimex2378/liblpc23xx/lpc23xx-i2c/lpc23xx-i2c.c:144
            break;
     cbc:	e8bd8070 	pop	{r4, r5, r6, pc}
     cc0:	00001c9c 	.word	0x00001c9c
     cc4:	4000008c 	.word	0x4000008c
     cc8:	00001cac 	.word	0x00001cac
     ccc:	00001d1c 	.word	0x00001d1c
     cd0:	00000454 	.word	0x00000454
     cd4:	00000450 	.word	0x00000450
     cd8:	0000044c 	.word	0x0000044c

00000cdc <start_i2c0_master_xact>:
start_i2c0_master_xact():
/home/kwilson/Projects/psaseclipse/olimex2378/liblpc23xx/lpc23xx-i2c/lpc23xx-i2c.c:424

/*
 * I2C_master_xact
 * Input: Pointer to i2c_master_t structure with xaction data
 */
void start_i2c0_master_xact(i2c_master_xact_t* s, XACT_FnCallback* xact_fn) {
     cdc:	e92d4030 	push	{r4, r5, lr}
/home/kwilson/Projects/psaseclipse/olimex2378/liblpc23xx/lpc23xx-i2c/lpc23xx-i2c.c:428


    uint16_t i;
    if(s!=NULL) {
     ce0:	e2504000 	subs	r4, r0, #0
/home/kwilson/Projects/psaseclipse/olimex2378/liblpc23xx/lpc23xx-i2c/lpc23xx-i2c.c:424

/*
 * I2C_master_xact
 * Input: Pointer to i2c_master_t structure with xaction data
 */
void start_i2c0_master_xact(i2c_master_xact_t* s, XACT_FnCallback* xact_fn) {
     ce4:	e1a05001 	mov	r5, r1
/home/kwilson/Projects/psaseclipse/olimex2378/liblpc23xx/lpc23xx-i2c/lpc23xx-i2c.c:428


    uint16_t i;
    if(s!=NULL) {
     ce8:	0a00002c 	beq	da0 <start_i2c0_master_xact+0xc4>
/home/kwilson/Projects/psaseclipse/olimex2378/liblpc23xx/lpc23xx-i2c/lpc23xx-i2c.c:431
        // See if we can obtain the semaphore. If the semaphore is not available 
        // wait I2C_BINSEM_WAIT msecs to see if it becomes free. 
        if( get_binsem( &i2c0_binsem_g, I2C_BINSEM_WAITTICKS ) == 1 ) {  // binsem for channel 0
     cec:	e3a01ebb 	mov	r1, #2992	; 0xbb0
     cf0:	e59f00b4 	ldr	r0, [pc, #180]	; dac <start_i2c0_master_xact+0xd0>
     cf4:	e2811008 	add	r1, r1, #8
     cf8:	eb00027c 	bl	16f0 <get_binsem>
     cfc:	e3500001 	cmp	r0, #1
     d00:	1a000023 	bne	d94 <start_i2c0_master_xact+0xb8>
     d04:	e59fc0a4 	ldr	ip, [pc, #164]	; db0 <start_i2c0_master_xact+0xd4>
     d08:	e3a03000 	mov	r3, #0
/home/kwilson/Projects/psaseclipse/olimex2378/liblpc23xx/lpc23xx-i2c/lpc23xx-i2c.c:433
            for(i=0; i<I2C_MAX_BUFFER; ++i) {
                i2c0_s_g.i2c_tx_buffer[i] = s->i2c_tx_buffer[i];
     d0c:	e0841003 	add	r1, r4, r3
     d10:	e5d10004 	ldrb	r0, [r1, #4]
     d14:	e08c2003 	add	r2, ip, r3
     d18:	e20000ff 	and	r0, r0, #255	; 0xff
     d1c:	e5c2000c 	strb	r0, [r2, #12]
/home/kwilson/Projects/psaseclipse/olimex2378/liblpc23xx/lpc23xx-i2c/lpc23xx-i2c.c:434
                i2c0_s_g.i2c_rd_buffer[i] = s->i2c_rd_buffer[i];
     d20:	e5d11044 	ldrb	r1, [r1, #68]	; 0x44
     d24:	e2833001 	add	r3, r3, #1
     d28:	e20110ff 	and	r1, r1, #255	; 0xff
/home/kwilson/Projects/psaseclipse/olimex2378/liblpc23xx/lpc23xx-i2c/lpc23xx-i2c.c:432
    uint16_t i;
    if(s!=NULL) {
        // See if we can obtain the semaphore. If the semaphore is not available 
        // wait I2C_BINSEM_WAIT msecs to see if it becomes free. 
        if( get_binsem( &i2c0_binsem_g, I2C_BINSEM_WAITTICKS ) == 1 ) {  // binsem for channel 0
            for(i=0; i<I2C_MAX_BUFFER; ++i) {
     d2c:	e3530040 	cmp	r3, #64	; 0x40
/home/kwilson/Projects/psaseclipse/olimex2378/liblpc23xx/lpc23xx-i2c/lpc23xx-i2c.c:433
                i2c0_s_g.i2c_tx_buffer[i] = s->i2c_tx_buffer[i];
     d30:	e59f0078 	ldr	r0, [pc, #120]	; db0 <start_i2c0_master_xact+0xd4>
/home/kwilson/Projects/psaseclipse/olimex2378/liblpc23xx/lpc23xx-i2c/lpc23xx-i2c.c:434
                i2c0_s_g.i2c_rd_buffer[i] = s->i2c_rd_buffer[i];
     d34:	e5c2104c 	strb	r1, [r2, #76]	; 0x4c
/home/kwilson/Projects/psaseclipse/olimex2378/liblpc23xx/lpc23xx-i2c/lpc23xx-i2c.c:432
    uint16_t i;
    if(s!=NULL) {
        // See if we can obtain the semaphore. If the semaphore is not available 
        // wait I2C_BINSEM_WAIT msecs to see if it becomes free. 
        if( get_binsem( &i2c0_binsem_g, I2C_BINSEM_WAITTICKS ) == 1 ) {  // binsem for channel 0
            for(i=0; i<I2C_MAX_BUFFER; ++i) {
     d38:	1afffff3 	bne	d0c <start_i2c0_master_xact+0x30>
/home/kwilson/Projects/psaseclipse/olimex2378/liblpc23xx/lpc23xx-i2c/lpc23xx-i2c.c:436
                i2c0_s_g.i2c_tx_buffer[i] = s->i2c_tx_buffer[i];
                i2c0_s_g.i2c_rd_buffer[i] = s->i2c_rd_buffer[i];
            }
            i2c0_s_g.i2c_ext_slave_address = s->i2c_ext_slave_address;
     d3c:	e5d43084 	ldrb	r3, [r4, #132]	; 0x84
     d40:	e20330ff 	and	r3, r3, #255	; 0xff
     d44:	e5c0308c 	strb	r3, [r0, #140]	; 0x8c
/home/kwilson/Projects/psaseclipse/olimex2378/liblpc23xx/lpc23xx-i2c/lpc23xx-i2c.c:437
            i2c0_s_g.write_length         = s->write_length;
     d48:	e5d43085 	ldrb	r3, [r4, #133]	; 0x85
     d4c:	e20330ff 	and	r3, r3, #255	; 0xff
     d50:	e5c0308d 	strb	r3, [r0, #141]	; 0x8d
/home/kwilson/Projects/psaseclipse/olimex2378/liblpc23xx/lpc23xx-i2c/lpc23xx-i2c.c:438
            i2c0_s_g.read_length          = s->read_length;
     d54:	e5d4c086 	ldrb	ip, [r4, #134]	; 0x86
/home/kwilson/Projects/psaseclipse/olimex2378/liblpc23xx/lpc23xx-i2c/lpc23xx-i2c.c:440
            i2c0_s_g.xact_active          = 1;
            i2c0_s_g.xact_success         = 0;
     d58:	e3a02000 	mov	r2, #0
/home/kwilson/Projects/psaseclipse/olimex2378/liblpc23xx/lpc23xx-i2c/lpc23xx-i2c.c:439
                i2c0_s_g.i2c_rd_buffer[i] = s->i2c_rd_buffer[i];
            }
            i2c0_s_g.i2c_ext_slave_address = s->i2c_ext_slave_address;
            i2c0_s_g.write_length         = s->write_length;
            i2c0_s_g.read_length          = s->read_length;
            i2c0_s_g.xact_active          = 1;
     d5c:	e3a01001 	mov	r1, #1
/home/kwilson/Projects/psaseclipse/olimex2378/liblpc23xx/lpc23xx-i2c/lpc23xx-i2c.c:447
            s->xact_success               = 0;
            i2c0_s_caller_g               = s;
            _i2c0_FnCallback_g            = xact_fn;

            //write 0x20 to I2CONSET to set the STA bit
            I2C0CONSET                    = I2C_STA;
     d60:	e3a0320e 	mov	r3, #-536870912	; 0xe0000000
/home/kwilson/Projects/psaseclipse/olimex2378/liblpc23xx/lpc23xx-i2c/lpc23xx-i2c.c:438
                i2c0_s_g.i2c_tx_buffer[i] = s->i2c_tx_buffer[i];
                i2c0_s_g.i2c_rd_buffer[i] = s->i2c_rd_buffer[i];
            }
            i2c0_s_g.i2c_ext_slave_address = s->i2c_ext_slave_address;
            i2c0_s_g.write_length         = s->write_length;
            i2c0_s_g.read_length          = s->read_length;
     d64:	e20cc0ff 	and	ip, ip, #255	; 0xff
     d68:	e5c0c08e 	strb	ip, [r0, #142]	; 0x8e
/home/kwilson/Projects/psaseclipse/olimex2378/liblpc23xx/lpc23xx-i2c/lpc23xx-i2c.c:447
            s->xact_success               = 0;
            i2c0_s_caller_g               = s;
            _i2c0_FnCallback_g            = xact_fn;

            //write 0x20 to I2CONSET to set the STA bit
            I2C0CONSET                    = I2C_STA;
     d6c:	e2833907 	add	r3, r3, #114688	; 0x1c000
/home/kwilson/Projects/psaseclipse/olimex2378/liblpc23xx/lpc23xx-i2c/lpc23xx-i2c.c:439
                i2c0_s_g.i2c_rd_buffer[i] = s->i2c_rd_buffer[i];
            }
            i2c0_s_g.i2c_ext_slave_address = s->i2c_ext_slave_address;
            i2c0_s_g.write_length         = s->write_length;
            i2c0_s_g.read_length          = s->read_length;
            i2c0_s_g.xact_active          = 1;
     d70:	e5c0108f 	strb	r1, [r0, #143]	; 0x8f
/home/kwilson/Projects/psaseclipse/olimex2378/liblpc23xx/lpc23xx-i2c/lpc23xx-i2c.c:440
            i2c0_s_g.xact_success         = 0;
     d74:	e5c02090 	strb	r2, [r0, #144]	; 0x90
/home/kwilson/Projects/psaseclipse/olimex2378/liblpc23xx/lpc23xx-i2c/lpc23xx-i2c.c:441
            s->xact_active                = 1;
     d78:	e5c41087 	strb	r1, [r4, #135]	; 0x87
/home/kwilson/Projects/psaseclipse/olimex2378/liblpc23xx/lpc23xx-i2c/lpc23xx-i2c.c:442
            s->xact_success               = 0;
     d7c:	e5c42088 	strb	r2, [r4, #136]	; 0x88
/home/kwilson/Projects/psaseclipse/olimex2378/liblpc23xx/lpc23xx-i2c/lpc23xx-i2c.c:447
            i2c0_s_caller_g               = s;
            _i2c0_FnCallback_g            = xact_fn;

            //write 0x20 to I2CONSET to set the STA bit
            I2C0CONSET                    = I2C_STA;
     d80:	e3a02020 	mov	r2, #32
/home/kwilson/Projects/psaseclipse/olimex2378/liblpc23xx/lpc23xx-i2c/lpc23xx-i2c.c:443
            i2c0_s_g.read_length          = s->read_length;
            i2c0_s_g.xact_active          = 1;
            i2c0_s_g.xact_success         = 0;
            s->xact_active                = 1;
            s->xact_success               = 0;
            i2c0_s_caller_g               = s;
     d84:	e5804098 	str	r4, [r0, #152]	; 0x98
/home/kwilson/Projects/psaseclipse/olimex2378/liblpc23xx/lpc23xx-i2c/lpc23xx-i2c.c:444
            _i2c0_FnCallback_g            = xact_fn;
     d88:	e5805094 	str	r5, [r0, #148]	; 0x94
/home/kwilson/Projects/psaseclipse/olimex2378/liblpc23xx/lpc23xx-i2c/lpc23xx-i2c.c:447

            //write 0x20 to I2CONSET to set the STA bit
            I2C0CONSET                    = I2C_STA;
     d8c:	e5c32000 	strb	r2, [r3]
/home/kwilson/Projects/psaseclipse/olimex2378/liblpc23xx/lpc23xx-i2c/lpc23xx-i2c.c:454
            uart0_putstring("*** I2C0-ERROR ***: I2C0_master_xact, Timed out waiting for i2c0_binsem_g. Skipping Request.\n");
        } 
    } else {
        uart0_putstring("*** I2C0-ERROR ***: I2C0_master_xact, structure pointer is NULL. Skipping.\n");
    }
}
     d90:	e8bd8030 	pop	{r4, r5, pc}
/home/kwilson/Projects/psaseclipse/olimex2378/liblpc23xx/lpc23xx-i2c/lpc23xx-i2c.c:449
            _i2c0_FnCallback_g            = xact_fn;

            //write 0x20 to I2CONSET to set the STA bit
            I2C0CONSET                    = I2C_STA;
        } else { 
            uart0_putstring("*** I2C0-ERROR ***: I2C0_master_xact, Timed out waiting for i2c0_binsem_g. Skipping Request.\n");
     d94:	e59f0018 	ldr	r0, [pc, #24]	; db4 <start_i2c0_master_xact+0xd8>
/home/kwilson/Projects/psaseclipse/olimex2378/liblpc23xx/lpc23xx-i2c/lpc23xx-i2c.c:454
        } 
    } else {
        uart0_putstring("*** I2C0-ERROR ***: I2C0_master_xact, structure pointer is NULL. Skipping.\n");
    }
}
     d98:	e8bd4030 	pop	{r4, r5, lr}
/home/kwilson/Projects/psaseclipse/olimex2378/liblpc23xx/lpc23xx-i2c/lpc23xx-i2c.c:449
            _i2c0_FnCallback_g            = xact_fn;

            //write 0x20 to I2CONSET to set the STA bit
            I2C0CONSET                    = I2C_STA;
        } else { 
            uart0_putstring("*** I2C0-ERROR ***: I2C0_master_xact, Timed out waiting for i2c0_binsem_g. Skipping Request.\n");
     d9c:	ea000197 	b	1400 <uart0_putstring>
/home/kwilson/Projects/psaseclipse/olimex2378/liblpc23xx/lpc23xx-i2c/lpc23xx-i2c.c:452
        } 
    } else {
        uart0_putstring("*** I2C0-ERROR ***: I2C0_master_xact, structure pointer is NULL. Skipping.\n");
     da0:	e59f0010 	ldr	r0, [pc, #16]	; db8 <start_i2c0_master_xact+0xdc>
/home/kwilson/Projects/psaseclipse/olimex2378/liblpc23xx/lpc23xx-i2c/lpc23xx-i2c.c:454
    }
}
     da4:	e8bd4030 	pop	{r4, r5, lr}
/home/kwilson/Projects/psaseclipse/olimex2378/liblpc23xx/lpc23xx-i2c/lpc23xx-i2c.c:452
            I2C0CONSET                    = I2C_STA;
        } else { 
            uart0_putstring("*** I2C0-ERROR ***: I2C0_master_xact, Timed out waiting for i2c0_binsem_g. Skipping Request.\n");
        } 
    } else {
        uart0_putstring("*** I2C0-ERROR ***: I2C0_master_xact, structure pointer is NULL. Skipping.\n");
     da8:	ea000194 	b	1400 <uart0_putstring>
     dac:	40000128 	.word	0x40000128
     db0:	4000008c 	.word	0x4000008c
     db4:	00001cc0 	.word	0x00001cc0
     db8:	00001d20 	.word	0x00001d20

00000dbc <pllquery_cclk_mhz>:
pllquery_cclk_mhz():
/home/kwilson/Projects/psaseclipse/olimex2378/liblpc23xx/lpc23xx-pll/lpc23xx-pll.c:18

/*
 * pllquery_clk_mhz
 */
Freq    pllquery_cclk_mhz(void) {
    return(pllstat.cclk_mhz);
     dbc:	e59f3004 	ldr	r3, [pc, #4]	; dc8 <pllquery_cclk_mhz+0xc>
/home/kwilson/Projects/psaseclipse/olimex2378/liblpc23xx/lpc23xx-pll/lpc23xx-pll.c:19
}
     dc0:	e5930000 	ldr	r0, [r3]
     dc4:	e12fff1e 	bx	lr
     dc8:	4000025c 	.word	0x4000025c

00000dcc <pllfeed>:
pllfeed():
/home/kwilson/Projects/psaseclipse/olimex2378/liblpc23xx/lpc23xx-pll/lpc23xx-pll.c:31
 */
void pllfeed(void) {
    uint32_t        savedInterrupts;

    /* disable interrupts */
    savedInterrupts = VICIntEnable;
     dcc:	e3e03000 	mvn	r3, #0
/home/kwilson/Projects/psaseclipse/olimex2378/liblpc23xx/lpc23xx-pll/lpc23xx-pll.c:34
    VICIntEnClr     = (unsigned) 0xFFFFFFFF;

    PLLFEED         = FEEDBYTE_A;
     dd0:	e3a0220e 	mov	r2, #-536870912	; 0xe0000000
/home/kwilson/Projects/psaseclipse/olimex2378/liblpc23xx/lpc23xx-pll/lpc23xx-pll.c:31
 */
void pllfeed(void) {
    uint32_t        savedInterrupts;

    /* disable interrupts */
    savedInterrupts = VICIntEnable;
     dd4:	e5131fef 	ldr	r1, [r3, #-4079]	; 0xfef
/home/kwilson/Projects/psaseclipse/olimex2378/liblpc23xx/lpc23xx-pll/lpc23xx-pll.c:34
    VICIntEnClr     = (unsigned) 0xFFFFFFFF;

    PLLFEED         = FEEDBYTE_A;
     dd8:	e282297f 	add	r2, r2, #2080768	; 0x1fc000
     ddc:	e3e00055 	mvn	r0, #85	; 0x55
/home/kwilson/Projects/psaseclipse/olimex2378/liblpc23xx/lpc23xx-pll/lpc23xx-pll.c:32
void pllfeed(void) {
    uint32_t        savedInterrupts;

    /* disable interrupts */
    savedInterrupts = VICIntEnable;
    VICIntEnClr     = (unsigned) 0xFFFFFFFF;
     de0:	e5033feb 	str	r3, [r3, #-4075]	; 0xfeb
/home/kwilson/Projects/psaseclipse/olimex2378/liblpc23xx/lpc23xx-pll/lpc23xx-pll.c:34

    PLLFEED         = FEEDBYTE_A;
     de4:	e5c2008c 	strb	r0, [r2, #140]	; 0x8c
/home/kwilson/Projects/psaseclipse/olimex2378/liblpc23xx/lpc23xx-pll/lpc23xx-pll.c:35
    PLLFEED         = FEEDBYTE_B;
     de8:	e3a00055 	mov	r0, #85	; 0x55
     dec:	e5c2008c 	strb	r0, [r2, #140]	; 0x8c
/home/kwilson/Projects/psaseclipse/olimex2378/liblpc23xx/lpc23xx-pll/lpc23xx-pll.c:38

    /* restore interrupts */
    VICIntEnable    = savedInterrupts;
     df0:	e5031fef 	str	r1, [r3, #-4079]	; 0xfef
/home/kwilson/Projects/psaseclipse/olimex2378/liblpc23xx/lpc23xx-pll/lpc23xx-pll.c:39
}
     df4:	e12fff1e 	bx	lr

00000df8 <pllstop>:
pllstop():
/home/kwilson/Projects/psaseclipse/olimex2378/liblpc23xx/lpc23xx-pll/lpc23xx-pll.c:48
 */
void pllstop(void) {

    uint32_t status;

    status          = PLLSTAT;
     df8:	e3a0320e 	mov	r3, #-536870912	; 0xe0000000
     dfc:	e283397f 	add	r3, r3, #2080768	; 0x1fc000
     e00:	e5932088 	ldr	r2, [r3, #136]	; 0x88
/home/kwilson/Projects/psaseclipse/olimex2378/liblpc23xx/lpc23xx-pll/lpc23xx-pll.c:50

    if(PLLC != 0) {
     e04:	e5932088 	ldr	r2, [r3, #136]	; 0x88
     e08:	e3120402 	tst	r2, #33554432	; 0x2000000
     e0c:	012fff1e 	bxeq	lr
/home/kwilson/Projects/psaseclipse/olimex2378/liblpc23xx/lpc23xx-pll/lpc23xx-pll.c:51
        CLEAR_PLLC; 
     e10:	e5d32080 	ldrb	r2, [r3, #128]	; 0x80
     e14:	e20220fd 	and	r2, r2, #253	; 0xfd
     e18:	e5c32080 	strb	r2, [r3, #128]	; 0x80
pllfeed():
/home/kwilson/Projects/psaseclipse/olimex2378/liblpc23xx/lpc23xx-pll/lpc23xx-pll.c:31
 */
void pllfeed(void) {
    uint32_t        savedInterrupts;

    /* disable interrupts */
    savedInterrupts = VICIntEnable;
     e1c:	e3e02000 	mvn	r2, #0
     e20:	e512cfef 	ldr	ip, [r2, #-4079]	; 0xfef
/home/kwilson/Projects/psaseclipse/olimex2378/liblpc23xx/lpc23xx-pll/lpc23xx-pll.c:34
    VICIntEnClr     = (unsigned) 0xFFFFFFFF;

    PLLFEED         = FEEDBYTE_A;
     e24:	e3e00055 	mvn	r0, #85	; 0x55
/home/kwilson/Projects/psaseclipse/olimex2378/liblpc23xx/lpc23xx-pll/lpc23xx-pll.c:35
    PLLFEED         = FEEDBYTE_B;
     e28:	e3a01055 	mov	r1, #85	; 0x55
/home/kwilson/Projects/psaseclipse/olimex2378/liblpc23xx/lpc23xx-pll/lpc23xx-pll.c:32
void pllfeed(void) {
    uint32_t        savedInterrupts;

    /* disable interrupts */
    savedInterrupts = VICIntEnable;
    VICIntEnClr     = (unsigned) 0xFFFFFFFF;
     e2c:	e5022feb 	str	r2, [r2, #-4075]	; 0xfeb
/home/kwilson/Projects/psaseclipse/olimex2378/liblpc23xx/lpc23xx-pll/lpc23xx-pll.c:34

    PLLFEED         = FEEDBYTE_A;
     e30:	e5c3008c 	strb	r0, [r3, #140]	; 0x8c
/home/kwilson/Projects/psaseclipse/olimex2378/liblpc23xx/lpc23xx-pll/lpc23xx-pll.c:35
    PLLFEED         = FEEDBYTE_B;
     e34:	e5c3108c 	strb	r1, [r3, #140]	; 0x8c
/home/kwilson/Projects/psaseclipse/olimex2378/liblpc23xx/lpc23xx-pll/lpc23xx-pll.c:38

    /* restore interrupts */
    VICIntEnable    = savedInterrupts;
     e38:	e502cfef 	str	ip, [r2, #-4079]	; 0xfef
pllstop():
/home/kwilson/Projects/psaseclipse/olimex2378/liblpc23xx/lpc23xx-pll/lpc23xx-pll.c:53
    status          = PLLSTAT;

    if(PLLC != 0) {
        CLEAR_PLLC; 
        pllfeed();
        CLEAR_PLLE; 
     e3c:	e5d3c080 	ldrb	ip, [r3, #128]	; 0x80
     e40:	e20cc0fe 	and	ip, ip, #254	; 0xfe
     e44:	e5c3c080 	strb	ip, [r3, #128]	; 0x80
pllfeed():
/home/kwilson/Projects/psaseclipse/olimex2378/liblpc23xx/lpc23xx-pll/lpc23xx-pll.c:31
 */
void pllfeed(void) {
    uint32_t        savedInterrupts;

    /* disable interrupts */
    savedInterrupts = VICIntEnable;
     e48:	e512cfef 	ldr	ip, [r2, #-4079]	; 0xfef
/home/kwilson/Projects/psaseclipse/olimex2378/liblpc23xx/lpc23xx-pll/lpc23xx-pll.c:32
    VICIntEnClr     = (unsigned) 0xFFFFFFFF;
     e4c:	e5022feb 	str	r2, [r2, #-4075]	; 0xfeb
/home/kwilson/Projects/psaseclipse/olimex2378/liblpc23xx/lpc23xx-pll/lpc23xx-pll.c:34

    PLLFEED         = FEEDBYTE_A;
     e50:	e5c3008c 	strb	r0, [r3, #140]	; 0x8c
/home/kwilson/Projects/psaseclipse/olimex2378/liblpc23xx/lpc23xx-pll/lpc23xx-pll.c:35
    PLLFEED         = FEEDBYTE_B;
     e54:	e5c3108c 	strb	r1, [r3, #140]	; 0x8c
/home/kwilson/Projects/psaseclipse/olimex2378/liblpc23xx/lpc23xx-pll/lpc23xx-pll.c:38

    /* restore interrupts */
    VICIntEnable    = savedInterrupts;
     e58:	e502cfef 	str	ip, [r2, #-4079]	; 0xfef
     e5c:	e12fff1e 	bx	lr

00000e60 <pllstart_seventytwomhz>:
pllstart_seventytwomhz():
/home/kwilson/Projects/psaseclipse/olimex2378/liblpc23xx/lpc23xx-pll/lpc23xx-pll.c:63
/*
 * pllstart_seventytwomhz
 * lpc23xx rev03 p60
 * Fcco = 288Mhz, M=12, N=1, Fin = 12Mhz 
 */
void pllstart_seventytwomhz(void) { 
     e60:	e92d4010 	push	{r4, lr}
/home/kwilson/Projects/psaseclipse/olimex2378/liblpc23xx/lpc23xx-pll/lpc23xx-pll.c:64
    pllstat.cclk_mhz = ZERO;
     e64:	e59f40e4 	ldr	r4, [pc, #228]	; f50 <pllstart_seventytwomhz+0xf0>
     e68:	e3a03000 	mov	r3, #0
     e6c:	e5843000 	str	r3, [r4]
/home/kwilson/Projects/psaseclipse/olimex2378/liblpc23xx/lpc23xx-pll/lpc23xx-pll.c:66

    pllstop();
     e70:	ebffffe0 	bl	df8 <pllstop>
/home/kwilson/Projects/psaseclipse/olimex2378/liblpc23xx/lpc23xx-pll/lpc23xx-pll.c:68

    mainOSC_ENABLE;
     e74:	e3a0120e 	mov	r1, #-536870912	; 0xe0000000
     e78:	e281197f 	add	r1, r1, #2080768	; 0x1fc000
     e7c:	e59131a0 	ldr	r3, [r1, #416]	; 0x1a0
     e80:	e3833020 	orr	r3, r3, #32
     e84:	e58131a0 	str	r3, [r1, #416]	; 0x1a0
/home/kwilson/Projects/psaseclipse/olimex2378/liblpc23xx/lpc23xx-pll/lpc23xx-pll.c:69
    while (!mainOSC_READY);
     e88:	e59121a0 	ldr	r2, [r1, #416]	; 0x1a0
     e8c:	e3a0320e 	mov	r3, #-536870912	; 0xe0000000
     e90:	e3120040 	tst	r2, #64	; 0x40
     e94:	e283397f 	add	r3, r3, #2080768	; 0x1fc000
     e98:	0afffffa 	beq	e88 <pllstart_seventytwomhz+0x28>
/home/kwilson/Projects/psaseclipse/olimex2378/liblpc23xx/lpc23xx-pll/lpc23xx-pll.c:71

    mainOSC_SELECT;
     e9c:	e3a02001 	mov	r2, #1
     ea0:	e583210c 	str	r2, [r3, #268]	; 0x10c
/home/kwilson/Projects/psaseclipse/olimex2378/liblpc23xx/lpc23xx-pll/lpc23xx-pll.c:73

    FCCO_TWO_EIGHTY_EIGHT_MHZ;
     ea4:	e3a0200b 	mov	r2, #11
     ea8:	e5832084 	str	r2, [r3, #132]	; 0x84
pllfeed():
/home/kwilson/Projects/psaseclipse/olimex2378/liblpc23xx/lpc23xx-pll/lpc23xx-pll.c:31
 */
void pllfeed(void) {
    uint32_t        savedInterrupts;

    /* disable interrupts */
    savedInterrupts = VICIntEnable;
     eac:	e3e02000 	mvn	r2, #0
     eb0:	e512cfef 	ldr	ip, [r2, #-4079]	; 0xfef
/home/kwilson/Projects/psaseclipse/olimex2378/liblpc23xx/lpc23xx-pll/lpc23xx-pll.c:34
    VICIntEnClr     = (unsigned) 0xFFFFFFFF;

    PLLFEED         = FEEDBYTE_A;
     eb4:	e3e00055 	mvn	r0, #85	; 0x55
/home/kwilson/Projects/psaseclipse/olimex2378/liblpc23xx/lpc23xx-pll/lpc23xx-pll.c:35
    PLLFEED         = FEEDBYTE_B;
     eb8:	e3a01055 	mov	r1, #85	; 0x55
/home/kwilson/Projects/psaseclipse/olimex2378/liblpc23xx/lpc23xx-pll/lpc23xx-pll.c:32
void pllfeed(void) {
    uint32_t        savedInterrupts;

    /* disable interrupts */
    savedInterrupts = VICIntEnable;
    VICIntEnClr     = (unsigned) 0xFFFFFFFF;
     ebc:	e5022feb 	str	r2, [r2, #-4075]	; 0xfeb
/home/kwilson/Projects/psaseclipse/olimex2378/liblpc23xx/lpc23xx-pll/lpc23xx-pll.c:34

    PLLFEED         = FEEDBYTE_A;
     ec0:	e5c3008c 	strb	r0, [r3, #140]	; 0x8c
/home/kwilson/Projects/psaseclipse/olimex2378/liblpc23xx/lpc23xx-pll/lpc23xx-pll.c:35
    PLLFEED         = FEEDBYTE_B;
     ec4:	e5c3108c 	strb	r1, [r3, #140]	; 0x8c
/home/kwilson/Projects/psaseclipse/olimex2378/liblpc23xx/lpc23xx-pll/lpc23xx-pll.c:38

    /* restore interrupts */
    VICIntEnable    = savedInterrupts;
     ec8:	e502cfef 	str	ip, [r2, #-4079]	; 0xfef
pllstart_seventytwomhz():
/home/kwilson/Projects/psaseclipse/olimex2378/liblpc23xx/lpc23xx-pll/lpc23xx-pll.c:76
    mainOSC_SELECT;

    FCCO_TWO_EIGHTY_EIGHT_MHZ;
    pllfeed();

    SET_PLLE;
     ecc:	e5d3c080 	ldrb	ip, [r3, #128]	; 0x80
     ed0:	e38cc001 	orr	ip, ip, #1
     ed4:	e5c3c080 	strb	ip, [r3, #128]	; 0x80
pllfeed():
/home/kwilson/Projects/psaseclipse/olimex2378/liblpc23xx/lpc23xx-pll/lpc23xx-pll.c:31
 */
void pllfeed(void) {
    uint32_t        savedInterrupts;

    /* disable interrupts */
    savedInterrupts = VICIntEnable;
     ed8:	e512cfef 	ldr	ip, [r2, #-4079]	; 0xfef
/home/kwilson/Projects/psaseclipse/olimex2378/liblpc23xx/lpc23xx-pll/lpc23xx-pll.c:32
    VICIntEnClr     = (unsigned) 0xFFFFFFFF;
     edc:	e5022feb 	str	r2, [r2, #-4075]	; 0xfeb
/home/kwilson/Projects/psaseclipse/olimex2378/liblpc23xx/lpc23xx-pll/lpc23xx-pll.c:34

    PLLFEED         = FEEDBYTE_A;
     ee0:	e5c3008c 	strb	r0, [r3, #140]	; 0x8c
/home/kwilson/Projects/psaseclipse/olimex2378/liblpc23xx/lpc23xx-pll/lpc23xx-pll.c:35
    PLLFEED         = FEEDBYTE_B;
     ee4:	e5c3108c 	strb	r1, [r3, #140]	; 0x8c
/home/kwilson/Projects/psaseclipse/olimex2378/liblpc23xx/lpc23xx-pll/lpc23xx-pll.c:38

    /* restore interrupts */
    VICIntEnable    = savedInterrupts;
     ee8:	e502cfef 	str	ip, [r2, #-4079]	; 0xfef
pllstart_seventytwomhz():
/home/kwilson/Projects/psaseclipse/olimex2378/liblpc23xx/lpc23xx-pll/lpc23xx-pll.c:79
    pllfeed();

    SET_PLLE;
    pllfeed();

    CCLK_IS_FCCODIV4;
     eec:	e3a02003 	mov	r2, #3
     ef0:	e5832104 	str	r2, [r3, #260]	; 0x104
/home/kwilson/Projects/psaseclipse/olimex2378/liblpc23xx/lpc23xx-pll/lpc23xx-pll.c:80
    USB_IS_FCCODIV6;
     ef4:	e3a02005 	mov	r2, #5
     ef8:	e5832108 	str	r2, [r3, #264]	; 0x108
/home/kwilson/Projects/psaseclipse/olimex2378/liblpc23xx/lpc23xx-pll/lpc23xx-pll.c:82

    while(!PLOCK);
     efc:	e5931088 	ldr	r1, [r3, #136]	; 0x88
     f00:	e3a0220e 	mov	r2, #-536870912	; 0xe0000000
     f04:	e3110301 	tst	r1, #67108864	; 0x4000000
     f08:	e282297f 	add	r2, r2, #2080768	; 0x1fc000
     f0c:	0afffffa 	beq	efc <pllstart_seventytwomhz+0x9c>
/home/kwilson/Projects/psaseclipse/olimex2378/liblpc23xx/lpc23xx-pll/lpc23xx-pll.c:84

    SET_PLLC;
     f10:	e5d23080 	ldrb	r3, [r2, #128]	; 0x80
     f14:	e3833002 	orr	r3, r3, #2
     f18:	e5c23080 	strb	r3, [r2, #128]	; 0x80
pllfeed():
/home/kwilson/Projects/psaseclipse/olimex2378/liblpc23xx/lpc23xx-pll/lpc23xx-pll.c:31
 */
void pllfeed(void) {
    uint32_t        savedInterrupts;

    /* disable interrupts */
    savedInterrupts = VICIntEnable;
     f1c:	e3e01000 	mvn	r1, #0
pllstart_seventytwomhz():
/home/kwilson/Projects/psaseclipse/olimex2378/liblpc23xx/lpc23xx-pll/lpc23xx-pll.c:86

    while(!PLOCK);

    SET_PLLC;
    pllfeed();
    pllstat.cclk_mhz = SEVENTY_TWO_MHZ;
     f20:	e3a03511 	mov	r3, #71303168	; 0x4400000
pllfeed():
/home/kwilson/Projects/psaseclipse/olimex2378/liblpc23xx/lpc23xx-pll/lpc23xx-pll.c:31
 */
void pllfeed(void) {
    uint32_t        savedInterrupts;

    /* disable interrupts */
    savedInterrupts = VICIntEnable;
     f24:	e5110fef 	ldr	r0, [r1, #-4079]	; 0xfef
/home/kwilson/Projects/psaseclipse/olimex2378/liblpc23xx/lpc23xx-pll/lpc23xx-pll.c:34
    VICIntEnClr     = (unsigned) 0xFFFFFFFF;

    PLLFEED         = FEEDBYTE_A;
     f28:	e3e0c055 	mvn	ip, #85	; 0x55
pllstart_seventytwomhz():
/home/kwilson/Projects/psaseclipse/olimex2378/liblpc23xx/lpc23xx-pll/lpc23xx-pll.c:86

    while(!PLOCK);

    SET_PLLC;
    pllfeed();
    pllstat.cclk_mhz = SEVENTY_TWO_MHZ;
     f2c:	e2833aaa 	add	r3, r3, #696320	; 0xaa000
pllfeed():
/home/kwilson/Projects/psaseclipse/olimex2378/liblpc23xx/lpc23xx-pll/lpc23xx-pll.c:32
void pllfeed(void) {
    uint32_t        savedInterrupts;

    /* disable interrupts */
    savedInterrupts = VICIntEnable;
    VICIntEnClr     = (unsigned) 0xFFFFFFFF;
     f30:	e5011feb 	str	r1, [r1, #-4075]	; 0xfeb
pllstart_seventytwomhz():
/home/kwilson/Projects/psaseclipse/olimex2378/liblpc23xx/lpc23xx-pll/lpc23xx-pll.c:86

    while(!PLOCK);

    SET_PLLC;
    pllfeed();
    pllstat.cclk_mhz = SEVENTY_TWO_MHZ;
     f34:	e2833c02 	add	r3, r3, #512	; 0x200
pllfeed():
/home/kwilson/Projects/psaseclipse/olimex2378/liblpc23xx/lpc23xx-pll/lpc23xx-pll.c:34

    /* disable interrupts */
    savedInterrupts = VICIntEnable;
    VICIntEnClr     = (unsigned) 0xFFFFFFFF;

    PLLFEED         = FEEDBYTE_A;
     f38:	e5c2c08c 	strb	ip, [r2, #140]	; 0x8c
/home/kwilson/Projects/psaseclipse/olimex2378/liblpc23xx/lpc23xx-pll/lpc23xx-pll.c:35
    PLLFEED         = FEEDBYTE_B;
     f3c:	e3a0c055 	mov	ip, #85	; 0x55
     f40:	e5c2c08c 	strb	ip, [r2, #140]	; 0x8c
/home/kwilson/Projects/psaseclipse/olimex2378/liblpc23xx/lpc23xx-pll/lpc23xx-pll.c:38

    /* restore interrupts */
    VICIntEnable    = savedInterrupts;
     f44:	e5010fef 	str	r0, [r1, #-4079]	; 0xfef
pllstart_seventytwomhz():
/home/kwilson/Projects/psaseclipse/olimex2378/liblpc23xx/lpc23xx-pll/lpc23xx-pll.c:86

    while(!PLOCK);

    SET_PLLC;
    pllfeed();
    pllstat.cclk_mhz = SEVENTY_TWO_MHZ;
     f48:	e5843000 	str	r3, [r4]
/home/kwilson/Projects/psaseclipse/olimex2378/liblpc23xx/lpc23xx-pll/lpc23xx-pll.c:87
}
     f4c:	e8bd8010 	pop	{r4, pc}
     f50:	4000025c 	.word	0x4000025c

00000f54 <pllstart_sixtymhz>:
pllstart_sixtymhz():
/home/kwilson/Projects/psaseclipse/olimex2378/liblpc23xx/lpc23xx-pll/lpc23xx-pll.c:95
/*
 * pllstart_sixtymhz
 * lpc23xx rev03 p60
 * Fcco = 480Mhz, M=20, N=1, Fin = 12Mhz 
 */
void pllstart_sixtymhz(void) { 
     f54:	e92d4010 	push	{r4, lr}
/home/kwilson/Projects/psaseclipse/olimex2378/liblpc23xx/lpc23xx-pll/lpc23xx-pll.c:96
    pllstat.cclk_mhz = ZERO;
     f58:	e59f40e0 	ldr	r4, [pc, #224]	; 1040 <pllstart_sixtymhz+0xec>
     f5c:	e3a03000 	mov	r3, #0
     f60:	e5843000 	str	r3, [r4]
/home/kwilson/Projects/psaseclipse/olimex2378/liblpc23xx/lpc23xx-pll/lpc23xx-pll.c:98

    pllstop();
     f64:	ebffffa3 	bl	df8 <pllstop>
/home/kwilson/Projects/psaseclipse/olimex2378/liblpc23xx/lpc23xx-pll/lpc23xx-pll.c:100

    mainOSC_ENABLE;
     f68:	e3a0120e 	mov	r1, #-536870912	; 0xe0000000
     f6c:	e281197f 	add	r1, r1, #2080768	; 0x1fc000
     f70:	e59131a0 	ldr	r3, [r1, #416]	; 0x1a0
     f74:	e3833020 	orr	r3, r3, #32
     f78:	e58131a0 	str	r3, [r1, #416]	; 0x1a0
/home/kwilson/Projects/psaseclipse/olimex2378/liblpc23xx/lpc23xx-pll/lpc23xx-pll.c:101
    while (!mainOSC_READY);
     f7c:	e59121a0 	ldr	r2, [r1, #416]	; 0x1a0
     f80:	e3a0320e 	mov	r3, #-536870912	; 0xe0000000
     f84:	e3120040 	tst	r2, #64	; 0x40
     f88:	e283397f 	add	r3, r3, #2080768	; 0x1fc000
     f8c:	0afffffa 	beq	f7c <pllstart_sixtymhz+0x28>
/home/kwilson/Projects/psaseclipse/olimex2378/liblpc23xx/lpc23xx-pll/lpc23xx-pll.c:103

    mainOSC_SELECT;
     f90:	e3a02001 	mov	r2, #1
     f94:	e583210c 	str	r2, [r3, #268]	; 0x10c
/home/kwilson/Projects/psaseclipse/olimex2378/liblpc23xx/lpc23xx-pll/lpc23xx-pll.c:105

    FCCO_FOUR_EIGHTY_MHZ;
     f98:	e3a02013 	mov	r2, #19
     f9c:	e5832084 	str	r2, [r3, #132]	; 0x84
pllfeed():
/home/kwilson/Projects/psaseclipse/olimex2378/liblpc23xx/lpc23xx-pll/lpc23xx-pll.c:31
 */
void pllfeed(void) {
    uint32_t        savedInterrupts;

    /* disable interrupts */
    savedInterrupts = VICIntEnable;
     fa0:	e3e02000 	mvn	r2, #0
     fa4:	e512cfef 	ldr	ip, [r2, #-4079]	; 0xfef
/home/kwilson/Projects/psaseclipse/olimex2378/liblpc23xx/lpc23xx-pll/lpc23xx-pll.c:34
    VICIntEnClr     = (unsigned) 0xFFFFFFFF;

    PLLFEED         = FEEDBYTE_A;
     fa8:	e3e00055 	mvn	r0, #85	; 0x55
/home/kwilson/Projects/psaseclipse/olimex2378/liblpc23xx/lpc23xx-pll/lpc23xx-pll.c:35
    PLLFEED         = FEEDBYTE_B;
     fac:	e3a01055 	mov	r1, #85	; 0x55
/home/kwilson/Projects/psaseclipse/olimex2378/liblpc23xx/lpc23xx-pll/lpc23xx-pll.c:32
void pllfeed(void) {
    uint32_t        savedInterrupts;

    /* disable interrupts */
    savedInterrupts = VICIntEnable;
    VICIntEnClr     = (unsigned) 0xFFFFFFFF;
     fb0:	e5022feb 	str	r2, [r2, #-4075]	; 0xfeb
/home/kwilson/Projects/psaseclipse/olimex2378/liblpc23xx/lpc23xx-pll/lpc23xx-pll.c:34

    PLLFEED         = FEEDBYTE_A;
     fb4:	e5c3008c 	strb	r0, [r3, #140]	; 0x8c
/home/kwilson/Projects/psaseclipse/olimex2378/liblpc23xx/lpc23xx-pll/lpc23xx-pll.c:35
    PLLFEED         = FEEDBYTE_B;
     fb8:	e5c3108c 	strb	r1, [r3, #140]	; 0x8c
/home/kwilson/Projects/psaseclipse/olimex2378/liblpc23xx/lpc23xx-pll/lpc23xx-pll.c:38

    /* restore interrupts */
    VICIntEnable    = savedInterrupts;
     fbc:	e502cfef 	str	ip, [r2, #-4079]	; 0xfef
pllstart_sixtymhz():
/home/kwilson/Projects/psaseclipse/olimex2378/liblpc23xx/lpc23xx-pll/lpc23xx-pll.c:108
    mainOSC_SELECT;

    FCCO_FOUR_EIGHTY_MHZ;
    pllfeed();

    SET_PLLE;
     fc0:	e5d3c080 	ldrb	ip, [r3, #128]	; 0x80
     fc4:	e38cc001 	orr	ip, ip, #1
     fc8:	e5c3c080 	strb	ip, [r3, #128]	; 0x80
pllfeed():
/home/kwilson/Projects/psaseclipse/olimex2378/liblpc23xx/lpc23xx-pll/lpc23xx-pll.c:31
 */
void pllfeed(void) {
    uint32_t        savedInterrupts;

    /* disable interrupts */
    savedInterrupts = VICIntEnable;
     fcc:	e512cfef 	ldr	ip, [r2, #-4079]	; 0xfef
/home/kwilson/Projects/psaseclipse/olimex2378/liblpc23xx/lpc23xx-pll/lpc23xx-pll.c:32
    VICIntEnClr     = (unsigned) 0xFFFFFFFF;
     fd0:	e5022feb 	str	r2, [r2, #-4075]	; 0xfeb
/home/kwilson/Projects/psaseclipse/olimex2378/liblpc23xx/lpc23xx-pll/lpc23xx-pll.c:34

    PLLFEED         = FEEDBYTE_A;
     fd4:	e5c3008c 	strb	r0, [r3, #140]	; 0x8c
/home/kwilson/Projects/psaseclipse/olimex2378/liblpc23xx/lpc23xx-pll/lpc23xx-pll.c:35
    PLLFEED         = FEEDBYTE_B;
     fd8:	e5c3108c 	strb	r1, [r3, #140]	; 0x8c
/home/kwilson/Projects/psaseclipse/olimex2378/liblpc23xx/lpc23xx-pll/lpc23xx-pll.c:38

    /* restore interrupts */
    VICIntEnable    = savedInterrupts;
     fdc:	e502cfef 	str	ip, [r2, #-4079]	; 0xfef
pllstart_sixtymhz():
/home/kwilson/Projects/psaseclipse/olimex2378/liblpc23xx/lpc23xx-pll/lpc23xx-pll.c:111
    pllfeed();

    SET_PLLE;
    pllfeed();

    CCLK_IS_FCCODIV8;
     fe0:	e3a02007 	mov	r2, #7
     fe4:	e5832104 	str	r2, [r3, #260]	; 0x104
/home/kwilson/Projects/psaseclipse/olimex2378/liblpc23xx/lpc23xx-pll/lpc23xx-pll.c:112
    USB_IS_FCCODIV10;
     fe8:	e3a02009 	mov	r2, #9
     fec:	e5832108 	str	r2, [r3, #264]	; 0x108
/home/kwilson/Projects/psaseclipse/olimex2378/liblpc23xx/lpc23xx-pll/lpc23xx-pll.c:114

    while(!PLOCK);
     ff0:	e5931088 	ldr	r1, [r3, #136]	; 0x88
     ff4:	e3a0220e 	mov	r2, #-536870912	; 0xe0000000
     ff8:	e3110301 	tst	r1, #67108864	; 0x4000000
     ffc:	e282297f 	add	r2, r2, #2080768	; 0x1fc000
    1000:	0afffffa 	beq	ff0 <pllstart_sixtymhz+0x9c>
/home/kwilson/Projects/psaseclipse/olimex2378/liblpc23xx/lpc23xx-pll/lpc23xx-pll.c:116

    SET_PLLC;
    1004:	e5d23080 	ldrb	r3, [r2, #128]	; 0x80
    1008:	e3833002 	orr	r3, r3, #2
    100c:	e5c23080 	strb	r3, [r2, #128]	; 0x80
pllfeed():
/home/kwilson/Projects/psaseclipse/olimex2378/liblpc23xx/lpc23xx-pll/lpc23xx-pll.c:31
 */
void pllfeed(void) {
    uint32_t        savedInterrupts;

    /* disable interrupts */
    savedInterrupts = VICIntEnable;
    1010:	e3e03000 	mvn	r3, #0
    1014:	e5130fef 	ldr	r0, [r3, #-4079]	; 0xfef
/home/kwilson/Projects/psaseclipse/olimex2378/liblpc23xx/lpc23xx-pll/lpc23xx-pll.c:34
    VICIntEnClr     = (unsigned) 0xFFFFFFFF;

    PLLFEED         = FEEDBYTE_A;
    1018:	e3e0c055 	mvn	ip, #85	; 0x55
pllstart_sixtymhz():
/home/kwilson/Projects/psaseclipse/olimex2378/liblpc23xx/lpc23xx-pll/lpc23xx-pll.c:118

    while(!PLOCK);

    SET_PLLC;
    pllfeed();
    pllstat.cclk_mhz = SIXTY_MHZ;
    101c:	e3a017e5 	mov	r1, #60030976	; 0x3940000
pllfeed():
/home/kwilson/Projects/psaseclipse/olimex2378/liblpc23xx/lpc23xx-pll/lpc23xx-pll.c:32
void pllfeed(void) {
    uint32_t        savedInterrupts;

    /* disable interrupts */
    savedInterrupts = VICIntEnable;
    VICIntEnClr     = (unsigned) 0xFFFFFFFF;
    1020:	e5033feb 	str	r3, [r3, #-4075]	; 0xfeb
pllstart_sixtymhz():
/home/kwilson/Projects/psaseclipse/olimex2378/liblpc23xx/lpc23xx-pll/lpc23xx-pll.c:118

    while(!PLOCK);

    SET_PLLC;
    pllfeed();
    pllstat.cclk_mhz = SIXTY_MHZ;
    1024:	e2411c79 	sub	r1, r1, #30976	; 0x7900
pllfeed():
/home/kwilson/Projects/psaseclipse/olimex2378/liblpc23xx/lpc23xx-pll/lpc23xx-pll.c:34

    /* disable interrupts */
    savedInterrupts = VICIntEnable;
    VICIntEnClr     = (unsigned) 0xFFFFFFFF;

    PLLFEED         = FEEDBYTE_A;
    1028:	e5c2c08c 	strb	ip, [r2, #140]	; 0x8c
/home/kwilson/Projects/psaseclipse/olimex2378/liblpc23xx/lpc23xx-pll/lpc23xx-pll.c:35
    PLLFEED         = FEEDBYTE_B;
    102c:	e3a0c055 	mov	ip, #85	; 0x55
    1030:	e5c2c08c 	strb	ip, [r2, #140]	; 0x8c
/home/kwilson/Projects/psaseclipse/olimex2378/liblpc23xx/lpc23xx-pll/lpc23xx-pll.c:38

    /* restore interrupts */
    VICIntEnable    = savedInterrupts;
    1034:	e5030fef 	str	r0, [r3, #-4079]	; 0xfef
pllstart_sixtymhz():
/home/kwilson/Projects/psaseclipse/olimex2378/liblpc23xx/lpc23xx-pll/lpc23xx-pll.c:118

    while(!PLOCK);

    SET_PLLC;
    pllfeed();
    pllstat.cclk_mhz = SIXTY_MHZ;
    1038:	e5841000 	str	r1, [r4]
/home/kwilson/Projects/psaseclipse/olimex2378/liblpc23xx/lpc23xx-pll/lpc23xx-pll.c:119
}
    103c:	e8bd8010 	pop	{r4, pc}
    1040:	4000025c 	.word	0x4000025c

00001044 <pllstart_fourtyeightmhz>:
pllstart_fourtyeightmhz():
/home/kwilson/Projects/psaseclipse/olimex2378/liblpc23xx/lpc23xx-pll/lpc23xx-pll.c:126
/*
 * pllstart_fourtyeightmhz
 * lpc23xx rev03 p60
 * Fcco = 480Mhz, M=20, N=1, Fin = 12Mhz
 */
void pllstart_fourtyeightmhz(void) {
    1044:	e92d4030 	push	{r4, r5, lr}
/home/kwilson/Projects/psaseclipse/olimex2378/liblpc23xx/lpc23xx-pll/lpc23xx-pll.c:127
    pllstat.cclk_mhz = ZERO;
    1048:	e59f40dc 	ldr	r4, [pc, #220]	; 112c <pllstart_fourtyeightmhz+0xe8>
    104c:	e3a03000 	mov	r3, #0
    1050:	e5843000 	str	r3, [r4]
/home/kwilson/Projects/psaseclipse/olimex2378/liblpc23xx/lpc23xx-pll/lpc23xx-pll.c:129

    pllstop();
    1054:	ebffff67 	bl	df8 <pllstop>
/home/kwilson/Projects/psaseclipse/olimex2378/liblpc23xx/lpc23xx-pll/lpc23xx-pll.c:131

    mainOSC_ENABLE;
    1058:	e3a0120e 	mov	r1, #-536870912	; 0xe0000000
    105c:	e281197f 	add	r1, r1, #2080768	; 0x1fc000
    1060:	e59131a0 	ldr	r3, [r1, #416]	; 0x1a0
    1064:	e3833020 	orr	r3, r3, #32
    1068:	e58131a0 	str	r3, [r1, #416]	; 0x1a0
/home/kwilson/Projects/psaseclipse/olimex2378/liblpc23xx/lpc23xx-pll/lpc23xx-pll.c:132
    while (!mainOSC_READY);
    106c:	e59121a0 	ldr	r2, [r1, #416]	; 0x1a0
    1070:	e3a0320e 	mov	r3, #-536870912	; 0xe0000000
    1074:	e3120040 	tst	r2, #64	; 0x40
    1078:	e283397f 	add	r3, r3, #2080768	; 0x1fc000
    107c:	0afffffa 	beq	106c <pllstart_fourtyeightmhz+0x28>
/home/kwilson/Projects/psaseclipse/olimex2378/liblpc23xx/lpc23xx-pll/lpc23xx-pll.c:134

    mainOSC_SELECT;
    1080:	e3a02001 	mov	r2, #1
    1084:	e583210c 	str	r2, [r3, #268]	; 0x10c
/home/kwilson/Projects/psaseclipse/olimex2378/liblpc23xx/lpc23xx-pll/lpc23xx-pll.c:136

    FCCO_FOUR_EIGHTY_MHZ;
    1088:	e3a02013 	mov	r2, #19
    108c:	e5832084 	str	r2, [r3, #132]	; 0x84
pllfeed():
/home/kwilson/Projects/psaseclipse/olimex2378/liblpc23xx/lpc23xx-pll/lpc23xx-pll.c:31
 */
void pllfeed(void) {
    uint32_t        savedInterrupts;

    /* disable interrupts */
    savedInterrupts = VICIntEnable;
    1090:	e3e02000 	mvn	r2, #0
    1094:	e5121fef 	ldr	r1, [r2, #-4079]	; 0xfef
/home/kwilson/Projects/psaseclipse/olimex2378/liblpc23xx/lpc23xx-pll/lpc23xx-pll.c:34
    VICIntEnClr     = (unsigned) 0xFFFFFFFF;

    PLLFEED         = FEEDBYTE_A;
    1098:	e3e0c055 	mvn	ip, #85	; 0x55
/home/kwilson/Projects/psaseclipse/olimex2378/liblpc23xx/lpc23xx-pll/lpc23xx-pll.c:35
    PLLFEED         = FEEDBYTE_B;
    109c:	e3a00055 	mov	r0, #85	; 0x55
/home/kwilson/Projects/psaseclipse/olimex2378/liblpc23xx/lpc23xx-pll/lpc23xx-pll.c:32
void pllfeed(void) {
    uint32_t        savedInterrupts;

    /* disable interrupts */
    savedInterrupts = VICIntEnable;
    VICIntEnClr     = (unsigned) 0xFFFFFFFF;
    10a0:	e5022feb 	str	r2, [r2, #-4075]	; 0xfeb
/home/kwilson/Projects/psaseclipse/olimex2378/liblpc23xx/lpc23xx-pll/lpc23xx-pll.c:34

    PLLFEED         = FEEDBYTE_A;
    10a4:	e5c3c08c 	strb	ip, [r3, #140]	; 0x8c
/home/kwilson/Projects/psaseclipse/olimex2378/liblpc23xx/lpc23xx-pll/lpc23xx-pll.c:35
    PLLFEED         = FEEDBYTE_B;
    10a8:	e5c3008c 	strb	r0, [r3, #140]	; 0x8c
/home/kwilson/Projects/psaseclipse/olimex2378/liblpc23xx/lpc23xx-pll/lpc23xx-pll.c:38

    /* restore interrupts */
    VICIntEnable    = savedInterrupts;
    10ac:	e5021fef 	str	r1, [r2, #-4079]	; 0xfef
pllstart_fourtyeightmhz():
/home/kwilson/Projects/psaseclipse/olimex2378/liblpc23xx/lpc23xx-pll/lpc23xx-pll.c:139
    mainOSC_SELECT;

    FCCO_FOUR_EIGHTY_MHZ;
    pllfeed();

    SET_PLLE;
    10b0:	e5d31080 	ldrb	r1, [r3, #128]	; 0x80
    10b4:	e3811001 	orr	r1, r1, #1
    10b8:	e5c31080 	strb	r1, [r3, #128]	; 0x80
pllfeed():
/home/kwilson/Projects/psaseclipse/olimex2378/liblpc23xx/lpc23xx-pll/lpc23xx-pll.c:31
 */
void pllfeed(void) {
    uint32_t        savedInterrupts;

    /* disable interrupts */
    savedInterrupts = VICIntEnable;
    10bc:	e5125fef 	ldr	r5, [r2, #-4079]	; 0xfef
pllstart_fourtyeightmhz():
/home/kwilson/Projects/psaseclipse/olimex2378/liblpc23xx/lpc23xx-pll/lpc23xx-pll.c:142
    pllfeed();

    SET_PLLE;
    pllfeed();

    CCLK_IS_FCCODIV10;
    10c0:	e3a01009 	mov	r1, #9
pllfeed():
/home/kwilson/Projects/psaseclipse/olimex2378/liblpc23xx/lpc23xx-pll/lpc23xx-pll.c:32
void pllfeed(void) {
    uint32_t        savedInterrupts;

    /* disable interrupts */
    savedInterrupts = VICIntEnable;
    VICIntEnClr     = (unsigned) 0xFFFFFFFF;
    10c4:	e5022feb 	str	r2, [r2, #-4075]	; 0xfeb
/home/kwilson/Projects/psaseclipse/olimex2378/liblpc23xx/lpc23xx-pll/lpc23xx-pll.c:34

    PLLFEED         = FEEDBYTE_A;
    10c8:	e5c3c08c 	strb	ip, [r3, #140]	; 0x8c
/home/kwilson/Projects/psaseclipse/olimex2378/liblpc23xx/lpc23xx-pll/lpc23xx-pll.c:35
    PLLFEED         = FEEDBYTE_B;
    10cc:	e5c3008c 	strb	r0, [r3, #140]	; 0x8c
/home/kwilson/Projects/psaseclipse/olimex2378/liblpc23xx/lpc23xx-pll/lpc23xx-pll.c:38

    /* restore interrupts */
    VICIntEnable    = savedInterrupts;
    10d0:	e5025fef 	str	r5, [r2, #-4079]	; 0xfef
pllstart_fourtyeightmhz():
/home/kwilson/Projects/psaseclipse/olimex2378/liblpc23xx/lpc23xx-pll/lpc23xx-pll.c:142
    pllfeed();

    SET_PLLE;
    pllfeed();

    CCLK_IS_FCCODIV10;
    10d4:	e5831104 	str	r1, [r3, #260]	; 0x104
/home/kwilson/Projects/psaseclipse/olimex2378/liblpc23xx/lpc23xx-pll/lpc23xx-pll.c:143
    USB_IS_FCCODIV10;
    10d8:	e5831108 	str	r1, [r3, #264]	; 0x108
/home/kwilson/Projects/psaseclipse/olimex2378/liblpc23xx/lpc23xx-pll/lpc23xx-pll.c:145

    while(!PLOCK);
    10dc:	e5931088 	ldr	r1, [r3, #136]	; 0x88
    10e0:	e3a0220e 	mov	r2, #-536870912	; 0xe0000000
    10e4:	e3110301 	tst	r1, #67108864	; 0x4000000
    10e8:	e282297f 	add	r2, r2, #2080768	; 0x1fc000
    10ec:	0afffffa 	beq	10dc <pllstart_fourtyeightmhz+0x98>
/home/kwilson/Projects/psaseclipse/olimex2378/liblpc23xx/lpc23xx-pll/lpc23xx-pll.c:147

    SET_PLLC;
    10f0:	e5d23080 	ldrb	r3, [r2, #128]	; 0x80
    10f4:	e3833002 	orr	r3, r3, #2
    10f8:	e5c23080 	strb	r3, [r2, #128]	; 0x80
pllfeed():
/home/kwilson/Projects/psaseclipse/olimex2378/liblpc23xx/lpc23xx-pll/lpc23xx-pll.c:31
 */
void pllfeed(void) {
    uint32_t        savedInterrupts;

    /* disable interrupts */
    savedInterrupts = VICIntEnable;
    10fc:	e3e03000 	mvn	r3, #0
    1100:	e5130fef 	ldr	r0, [r3, #-4079]	; 0xfef
/home/kwilson/Projects/psaseclipse/olimex2378/liblpc23xx/lpc23xx-pll/lpc23xx-pll.c:34
    VICIntEnClr     = (unsigned) 0xFFFFFFFF;

    PLLFEED         = FEEDBYTE_A;
    1104:	e3e0c055 	mvn	ip, #85	; 0x55
pllstart_fourtyeightmhz():
/home/kwilson/Projects/psaseclipse/olimex2378/liblpc23xx/lpc23xx-pll/lpc23xx-pll.c:149

    while(!PLOCK);

    SET_PLLC;
    pllfeed();
    pllstat.cclk_mhz = FOURTY_EIGHT_MHZ;
    1108:	e3a017b7 	mov	r1, #47972352	; 0x2dc0000
pllfeed():
/home/kwilson/Projects/psaseclipse/olimex2378/liblpc23xx/lpc23xx-pll/lpc23xx-pll.c:32
void pllfeed(void) {
    uint32_t        savedInterrupts;

    /* disable interrupts */
    savedInterrupts = VICIntEnable;
    VICIntEnClr     = (unsigned) 0xFFFFFFFF;
    110c:	e5033feb 	str	r3, [r3, #-4075]	; 0xfeb
pllstart_fourtyeightmhz():
/home/kwilson/Projects/psaseclipse/olimex2378/liblpc23xx/lpc23xx-pll/lpc23xx-pll.c:149

    while(!PLOCK);

    SET_PLLC;
    pllfeed();
    pllstat.cclk_mhz = FOURTY_EIGHT_MHZ;
    1110:	e2811b1b 	add	r1, r1, #27648	; 0x6c00
pllfeed():
/home/kwilson/Projects/psaseclipse/olimex2378/liblpc23xx/lpc23xx-pll/lpc23xx-pll.c:34

    /* disable interrupts */
    savedInterrupts = VICIntEnable;
    VICIntEnClr     = (unsigned) 0xFFFFFFFF;

    PLLFEED         = FEEDBYTE_A;
    1114:	e5c2c08c 	strb	ip, [r2, #140]	; 0x8c
/home/kwilson/Projects/psaseclipse/olimex2378/liblpc23xx/lpc23xx-pll/lpc23xx-pll.c:35
    PLLFEED         = FEEDBYTE_B;
    1118:	e3a0c055 	mov	ip, #85	; 0x55
    111c:	e5c2c08c 	strb	ip, [r2, #140]	; 0x8c
/home/kwilson/Projects/psaseclipse/olimex2378/liblpc23xx/lpc23xx-pll/lpc23xx-pll.c:38

    /* restore interrupts */
    VICIntEnable    = savedInterrupts;
    1120:	e5030fef 	str	r0, [r3, #-4079]	; 0xfef
pllstart_fourtyeightmhz():
/home/kwilson/Projects/psaseclipse/olimex2378/liblpc23xx/lpc23xx-pll/lpc23xx-pll.c:149

    while(!PLOCK);

    SET_PLLC;
    pllfeed();
    pllstat.cclk_mhz = FOURTY_EIGHT_MHZ;
    1124:	e5841000 	str	r1, [r4]
/home/kwilson/Projects/psaseclipse/olimex2378/liblpc23xx/lpc23xx-pll/lpc23xx-pll.c:150
}
    1128:	e8bd8030 	pop	{r4, r5, pc}
    112c:	4000025c 	.word	0x4000025c

00001130 <uart0_query_baud>:
uart0_query_baud():
/home/kwilson/Projects/psaseclipse/olimex2378/liblpc23xx/lpc23xx-uart/lpc23xx-uart.c:19

/*
 * uart0_query_baud
 */
Baud uart0_query_baud(void) {
    return(uart0stat.baudrate);
    1130:	e59f3004 	ldr	r3, [pc, #4]	; 113c <uart0_query_baud+0xc>
/home/kwilson/Projects/psaseclipse/olimex2378/liblpc23xx/lpc23xx-uart/lpc23xx-uart.c:20
}
    1134:	e5930000 	ldr	r0, [r3]
    1138:	e12fff1e 	bx	lr
    113c:	40000260 	.word	0x40000260

00001140 <uart0_query_charlength>:
uart0_query_charlength():
/home/kwilson/Projects/psaseclipse/olimex2378/liblpc23xx/lpc23xx-uart/lpc23xx-uart.c:26

/*
 * uart0_query_charlength
 */
uint8_t uart0_query_charlength(void) {
    return(uart0stat.charlength);
    1140:	e59f3004 	ldr	r3, [pc, #4]	; 114c <uart0_query_charlength+0xc>
/home/kwilson/Projects/psaseclipse/olimex2378/liblpc23xx/lpc23xx-uart/lpc23xx-uart.c:27
}
    1144:	e5d30004 	ldrb	r0, [r3, #4]
    1148:	e12fff1e 	bx	lr
    114c:	40000260 	.word	0x40000260

00001150 <uart0_query_stopbits>:
uart0_query_stopbits():
/home/kwilson/Projects/psaseclipse/olimex2378/liblpc23xx/lpc23xx-uart/lpc23xx-uart.c:33

/*
 * uart0_query_stopbits
 */
uint8_t uart0_query_stopbits(void) {
    return(uart0stat.stopbits);
    1150:	e59f3004 	ldr	r3, [pc, #4]	; 115c <uart0_query_stopbits+0xc>
/home/kwilson/Projects/psaseclipse/olimex2378/liblpc23xx/lpc23xx-uart/lpc23xx-uart.c:34
}
    1154:	e5d30005 	ldrb	r0, [r3, #5]
    1158:	e12fff1e 	bx	lr
    115c:	40000260 	.word	0x40000260

00001160 <uart0_init_9600>:
uart0_init_9600():
/home/kwilson/Projects/psaseclipse/olimex2378/liblpc23xx/lpc23xx-uart/lpc23xx-uart.c:47
    Freq     cclk;

    uart0stat.baudrate = ZERO_H_B;

    // Enable GPIO for TXD/RXD
    SET_RXD0_TXD0;
    1160:	e3a0220e 	mov	r2, #-536870912	; 0xe0000000
    1164:	e282290b 	add	r2, r2, #180224	; 0x2c000
    1168:	e5921000 	ldr	r1, [r2]
/home/kwilson/Projects/psaseclipse/olimex2378/liblpc23xx/lpc23xx-uart/lpc23xx-uart.c:40

/*
 * uart_0_init_9600
 * initialize uart0
 */
void uart0_init_9600(void) {
    116c:	e92d4070 	push	{r4, r5, r6, lr}
/home/kwilson/Projects/psaseclipse/olimex2378/liblpc23xx/lpc23xx-uart/lpc23xx-uart.c:47
    Freq     cclk;

    uart0stat.baudrate = ZERO_H_B;

    // Enable GPIO for TXD/RXD
    SET_RXD0_TXD0;
    1170:	e3c110f0 	bic	r1, r1, #240	; 0xf0
/home/kwilson/Projects/psaseclipse/olimex2378/liblpc23xx/lpc23xx-uart/lpc23xx-uart.c:44
 */
void uart0_init_9600(void) {

    Freq     cclk;

    uart0stat.baudrate = ZERO_H_B;
    1174:	e59f50f8 	ldr	r5, [pc, #248]	; 1274 <uart0_init_9600+0x114>
/home/kwilson/Projects/psaseclipse/olimex2378/liblpc23xx/lpc23xx-uart/lpc23xx-uart.c:47

    // Enable GPIO for TXD/RXD
    SET_RXD0_TXD0;
    1178:	e3811050 	orr	r1, r1, #80	; 0x50
/home/kwilson/Projects/psaseclipse/olimex2378/liblpc23xx/lpc23xx-uart/lpc23xx-uart.c:44
 */
void uart0_init_9600(void) {

    Freq     cclk;

    uart0stat.baudrate = ZERO_H_B;
    117c:	e3a06000 	mov	r6, #0
    1180:	e5856000 	str	r6, [r5]
/home/kwilson/Projects/psaseclipse/olimex2378/liblpc23xx/lpc23xx-uart/lpc23xx-uart.c:50

    // Enable GPIO for TXD/RXD
    SET_RXD0_TXD0;

    // turn on power.
    POWER_ON_UART0;
    1184:	e3a0320e 	mov	r3, #-536870912	; 0xe0000000
/home/kwilson/Projects/psaseclipse/olimex2378/liblpc23xx/lpc23xx-uart/lpc23xx-uart.c:47
    Freq     cclk;

    uart0stat.baudrate = ZERO_H_B;

    // Enable GPIO for TXD/RXD
    SET_RXD0_TXD0;
    1188:	e5821000 	str	r1, [r2]
/home/kwilson/Projects/psaseclipse/olimex2378/liblpc23xx/lpc23xx-uart/lpc23xx-uart.c:50

    // turn on power.
    POWER_ON_UART0;
    118c:	e283397f 	add	r3, r3, #2080768	; 0x1fc000
    1190:	e59320c4 	ldr	r2, [r3, #196]	; 0xc4
    1194:	e3822008 	orr	r2, r2, #8
    1198:	e58320c4 	str	r2, [r3, #196]	; 0xc4
/home/kwilson/Projects/psaseclipse/olimex2378/liblpc23xx/lpc23xx-uart/lpc23xx-uart.c:53

    // divide cclk by one
    PCLKSEL0_UART0_DIV1;
    119c:	e59321a8 	ldr	r2, [r3, #424]	; 0x1a8
    11a0:	e3c22d11 	bic	r2, r2, #1088	; 0x440
    11a4:	e3822040 	orr	r2, r2, #64	; 0x40
    11a8:	e58321a8 	str	r2, [r3, #424]	; 0x1a8
/home/kwilson/Projects/psaseclipse/olimex2378/liblpc23xx/lpc23xx-uart/lpc23xx-uart.c:56

    // enable divisor latch access
    SET_DLAB0;
    11ac:	e3a0420e 	mov	r4, #-536870912	; 0xe0000000
    11b0:	e2844903 	add	r4, r4, #49152	; 0xc000
    11b4:	e5d4300c 	ldrb	r3, [r4, #12]
    11b8:	e3833080 	orr	r3, r3, #128	; 0x80
    11bc:	e5c4300c 	strb	r3, [r4, #12]
/home/kwilson/Projects/psaseclipse/olimex2378/liblpc23xx/lpc23xx-uart/lpc23xx-uart.c:58

    cclk = pllquery_cclk_mhz();
    11c0:	ebfffefd 	bl	dbc <pllquery_cclk_mhz>
/home/kwilson/Projects/psaseclipse/olimex2378/liblpc23xx/lpc23xx-uart/lpc23xx-uart.c:60

    switch(cclk) {
    11c4:	e3a037e5 	mov	r3, #60030976	; 0x3940000
    11c8:	e2433c79 	sub	r3, r3, #30976	; 0x7900
    11cc:	e1500003 	cmp	r0, r3
    11d0:	0a000025 	beq	126c <uart0_init_9600+0x10c>
    11d4:	e3a03511 	mov	r3, #71303168	; 0x4400000
    11d8:	e2833aaa 	add	r3, r3, #696320	; 0xaa000
    11dc:	e2833c02 	add	r3, r3, #512	; 0x200
    11e0:	e1500003 	cmp	r0, r3
    11e4:	0a000019 	beq	1250 <uart0_init_9600+0xf0>
    11e8:	e3a037b7 	mov	r3, #47972352	; 0x2dc0000
    11ec:	e2833b1b 	add	r3, r3, #27648	; 0x6c00
    11f0:	e1500003 	cmp	r0, r3
    11f4:	0a000000 	beq	11fc <uart0_init_9600+0x9c>
    11f8:	eafffffe 	b	11f8 <uart0_init_9600+0x98>
/home/kwilson/Projects/psaseclipse/olimex2378/liblpc23xx/lpc23xx-uart/lpc23xx-uart.c:62
        case FOURTY_EIGHT_MHZ:
            U0DLL = 208;
    11fc:	e3e0302f 	mvn	r3, #47	; 0x2f
    1200:	e5c43000 	strb	r3, [r4]
/home/kwilson/Projects/psaseclipse/olimex2378/liblpc23xx/lpc23xx-uart/lpc23xx-uart.c:64
            U0DLM = 0;
            U0FDR = (2<<4) | 1; // MULVAL = 2, DIVADD = 1;
    1204:	e2833051 	add	r3, r3, #81	; 0x51
/home/kwilson/Projects/psaseclipse/olimex2378/liblpc23xx/lpc23xx-uart/lpc23xx-uart.c:63
    cclk = pllquery_cclk_mhz();

    switch(cclk) {
        case FOURTY_EIGHT_MHZ:
            U0DLL = 208;
            U0DLM = 0;
    1208:	e5c46004 	strb	r6, [r4, #4]
/home/kwilson/Projects/psaseclipse/olimex2378/liblpc23xx/lpc23xx-uart/lpc23xx-uart.c:64
            U0FDR = (2<<4) | 1; // MULVAL = 2, DIVADD = 1;
    120c:	e5c43028 	strb	r3, [r4, #40]	; 0x28
/home/kwilson/Projects/psaseclipse/olimex2378/liblpc23xx/lpc23xx-uart/lpc23xx-uart.c:81
        default:
            while(1);
            break;
    }
    // enable interrupt
    UART0_FCR_ONE_CHAR_EN;
    1210:	e3a0320e 	mov	r3, #-536870912	; 0xe0000000
    1214:	e2833903 	add	r3, r3, #49152	; 0xc000
    1218:	e3a02007 	mov	r2, #7
    121c:	e5c32008 	strb	r2, [r3, #8]
/home/kwilson/Projects/psaseclipse/olimex2378/liblpc23xx/lpc23xx-uart/lpc23xx-uart.c:84

    // set parameters
    UART0_8N1;
    1220:	e3a02003 	mov	r2, #3
    1224:	e5c3200c 	strb	r2, [r3, #12]
/home/kwilson/Projects/psaseclipse/olimex2378/liblpc23xx/lpc23xx-uart/lpc23xx-uart.c:86

    uart0stat.charlength = 8;
    1228:	e2822005 	add	r2, r2, #5
    122c:	e5c52004 	strb	r2, [r5, #4]
/home/kwilson/Projects/psaseclipse/olimex2378/liblpc23xx/lpc23xx-uart/lpc23xx-uart.c:87
    uart0stat.stopbits   = 1;
    1230:	e3a02001 	mov	r2, #1
    1234:	e5c52005 	strb	r2, [r5, #5]
/home/kwilson/Projects/psaseclipse/olimex2378/liblpc23xx/lpc23xx-uart/lpc23xx-uart.c:89

    CLEAR_DLAB0;
    1238:	e5d3200c 	ldrb	r2, [r3, #12]
    123c:	e202207f 	and	r2, r2, #127	; 0x7f
    1240:	e5c3200c 	strb	r2, [r3, #12]
/home/kwilson/Projects/psaseclipse/olimex2378/liblpc23xx/lpc23xx-uart/lpc23xx-uart.c:91

    uart0stat.baudrate = NINETY_SIX_H_B;
    1244:	e3a03d96 	mov	r3, #9600	; 0x2580
    1248:	e5853000 	str	r3, [r5]
/home/kwilson/Projects/psaseclipse/olimex2378/liblpc23xx/lpc23xx-uart/lpc23xx-uart.c:93

}
    124c:	e8bd8070 	pop	{r4, r5, r6, pc}
/home/kwilson/Projects/psaseclipse/olimex2378/liblpc23xx/lpc23xx-uart/lpc23xx-uart.c:72
            U0DLL = 4;
            U0DLM = 1;
            U0FDR = (2<<4) | 1; // MULVAL = 2, DIVADD = 1;
            break;
        case SEVENTY_TWO_MHZ:
            U0DLL = 56;
    1250:	e3a03038 	mov	r3, #56	; 0x38
    1254:	e5c43000 	strb	r3, [r4]
/home/kwilson/Projects/psaseclipse/olimex2378/liblpc23xx/lpc23xx-uart/lpc23xx-uart.c:73
            U0DLM = 1;
    1258:	e3a03001 	mov	r3, #1
    125c:	e5c43004 	strb	r3, [r4, #4]
/home/kwilson/Projects/psaseclipse/olimex2378/liblpc23xx/lpc23xx-uart/lpc23xx-uart.c:74
            U0FDR = (2<<4) | 1; // MULVAL = 2, DIVADD = 1;
    1260:	e2833020 	add	r3, r3, #32
    1264:	e5c43028 	strb	r3, [r4, #40]	; 0x28
/home/kwilson/Projects/psaseclipse/olimex2378/liblpc23xx/lpc23xx-uart/lpc23xx-uart.c:75
            break;
    1268:	eaffffe8 	b	1210 <uart0_init_9600+0xb0>
/home/kwilson/Projects/psaseclipse/olimex2378/liblpc23xx/lpc23xx-uart/lpc23xx-uart.c:67
            U0DLL = 208;
            U0DLM = 0;
            U0FDR = (2<<4) | 1; // MULVAL = 2, DIVADD = 1;
            break;
        case SIXTY_MHZ:
            U0DLL = 4;
    126c:	e3a03004 	mov	r3, #4
    1270:	eafffff7 	b	1254 <uart0_init_9600+0xf4>
    1274:	40000260 	.word	0x40000260

00001278 <uart0_init_115200>:
uart0_init_115200():
/home/kwilson/Projects/psaseclipse/olimex2378/liblpc23xx/lpc23xx-uart/lpc23xx-uart.c:107
    Freq     cclk;

    uart0stat.baudrate = ZERO_H_B;

    // Enable GPIO for TXD/RXD
    SET_RXD0_TXD0;
    1278:	e3a0220e 	mov	r2, #-536870912	; 0xe0000000
    127c:	e282290b 	add	r2, r2, #180224	; 0x2c000
    1280:	e5921000 	ldr	r1, [r2]
/home/kwilson/Projects/psaseclipse/olimex2378/liblpc23xx/lpc23xx-uart/lpc23xx-uart.c:100

/*
 * uart_0_init_115200
 * initialize uart0
 */
void uart0_init_115200(void) {
    1284:	e92d4070 	push	{r4, r5, r6, lr}
/home/kwilson/Projects/psaseclipse/olimex2378/liblpc23xx/lpc23xx-uart/lpc23xx-uart.c:107
    Freq     cclk;

    uart0stat.baudrate = ZERO_H_B;

    // Enable GPIO for TXD/RXD
    SET_RXD0_TXD0;
    1288:	e3c110f0 	bic	r1, r1, #240	; 0xf0
/home/kwilson/Projects/psaseclipse/olimex2378/liblpc23xx/lpc23xx-uart/lpc23xx-uart.c:104
 */
void uart0_init_115200(void) {

    Freq     cclk;

    uart0stat.baudrate = ZERO_H_B;
    128c:	e59f5108 	ldr	r5, [pc, #264]	; 139c <uart0_init_115200+0x124>
/home/kwilson/Projects/psaseclipse/olimex2378/liblpc23xx/lpc23xx-uart/lpc23xx-uart.c:107

    // Enable GPIO for TXD/RXD
    SET_RXD0_TXD0;
    1290:	e3811050 	orr	r1, r1, #80	; 0x50
/home/kwilson/Projects/psaseclipse/olimex2378/liblpc23xx/lpc23xx-uart/lpc23xx-uart.c:104
 */
void uart0_init_115200(void) {

    Freq     cclk;

    uart0stat.baudrate = ZERO_H_B;
    1294:	e3a06000 	mov	r6, #0
    1298:	e5856000 	str	r6, [r5]
/home/kwilson/Projects/psaseclipse/olimex2378/liblpc23xx/lpc23xx-uart/lpc23xx-uart.c:110

    // Enable GPIO for TXD/RXD
    SET_RXD0_TXD0;

    // turn on power.
    POWER_ON_UART0;
    129c:	e3a0320e 	mov	r3, #-536870912	; 0xe0000000
/home/kwilson/Projects/psaseclipse/olimex2378/liblpc23xx/lpc23xx-uart/lpc23xx-uart.c:107
    Freq     cclk;

    uart0stat.baudrate = ZERO_H_B;

    // Enable GPIO for TXD/RXD
    SET_RXD0_TXD0;
    12a0:	e5821000 	str	r1, [r2]
/home/kwilson/Projects/psaseclipse/olimex2378/liblpc23xx/lpc23xx-uart/lpc23xx-uart.c:110

    // turn on power.
    POWER_ON_UART0;
    12a4:	e283397f 	add	r3, r3, #2080768	; 0x1fc000
    12a8:	e59320c4 	ldr	r2, [r3, #196]	; 0xc4
    12ac:	e3822008 	orr	r2, r2, #8
    12b0:	e58320c4 	str	r2, [r3, #196]	; 0xc4
/home/kwilson/Projects/psaseclipse/olimex2378/liblpc23xx/lpc23xx-uart/lpc23xx-uart.c:113

    // divide cclk by one
    PCLKSEL0_UART0_DIV1;
    12b4:	e59321a8 	ldr	r2, [r3, #424]	; 0x1a8
    12b8:	e3c22d11 	bic	r2, r2, #1088	; 0x440
    12bc:	e3822040 	orr	r2, r2, #64	; 0x40
    12c0:	e58321a8 	str	r2, [r3, #424]	; 0x1a8
/home/kwilson/Projects/psaseclipse/olimex2378/liblpc23xx/lpc23xx-uart/lpc23xx-uart.c:116

    // enable divisor latch access
    SET_DLAB0;
    12c4:	e3a0420e 	mov	r4, #-536870912	; 0xe0000000
    12c8:	e2844903 	add	r4, r4, #49152	; 0xc000
    12cc:	e5d4300c 	ldrb	r3, [r4, #12]
    12d0:	e3833080 	orr	r3, r3, #128	; 0x80
    12d4:	e5c4300c 	strb	r3, [r4, #12]
/home/kwilson/Projects/psaseclipse/olimex2378/liblpc23xx/lpc23xx-uart/lpc23xx-uart.c:118

    cclk = pllquery_cclk_mhz();
    12d8:	ebfffeb7 	bl	dbc <pllquery_cclk_mhz>
/home/kwilson/Projects/psaseclipse/olimex2378/liblpc23xx/lpc23xx-uart/lpc23xx-uart.c:120

    switch(cclk) {
    12dc:	e3a037e5 	mov	r3, #60030976	; 0x3940000
    12e0:	e2433c79 	sub	r3, r3, #30976	; 0x7900
    12e4:	e1500003 	cmp	r0, r3
    12e8:	0a000025 	beq	1384 <uart0_init_115200+0x10c>
    12ec:	e3a03511 	mov	r3, #71303168	; 0x4400000
    12f0:	e2833aaa 	add	r3, r3, #696320	; 0xaa000
    12f4:	e2833c02 	add	r3, r3, #512	; 0x200
    12f8:	e1500003 	cmp	r0, r3
    12fc:	0a00001a 	beq	136c <uart0_init_115200+0xf4>
    1300:	e3a037b7 	mov	r3, #47972352	; 0x2dc0000
    1304:	e2833b1b 	add	r3, r3, #27648	; 0x6c00
    1308:	e1500003 	cmp	r0, r3
    130c:	0a000000 	beq	1314 <uart0_init_115200+0x9c>
    1310:	eafffffe 	b	1310 <uart0_init_115200+0x98>
/home/kwilson/Projects/psaseclipse/olimex2378/liblpc23xx/lpc23xx-uart/lpc23xx-uart.c:122
        case FOURTY_EIGHT_MHZ:
            U0DLL = 17;
    1314:	e3a03011 	mov	r3, #17
    1318:	e5c43000 	strb	r3, [r4]
/home/kwilson/Projects/psaseclipse/olimex2378/liblpc23xx/lpc23xx-uart/lpc23xx-uart.c:124
            U0DLM = 0;
            U0FDR = (15<<4) | 8; // MULVAL = 15, DIVADD = 8;
    131c:	e3e03007 	mvn	r3, #7
/home/kwilson/Projects/psaseclipse/olimex2378/liblpc23xx/lpc23xx-uart/lpc23xx-uart.c:123
    cclk = pllquery_cclk_mhz();

    switch(cclk) {
        case FOURTY_EIGHT_MHZ:
            U0DLL = 17;
            U0DLM = 0;
    1320:	e5c46004 	strb	r6, [r4, #4]
/home/kwilson/Projects/psaseclipse/olimex2378/liblpc23xx/lpc23xx-uart/lpc23xx-uart.c:124
            U0FDR = (15<<4) | 8; // MULVAL = 15, DIVADD = 8;
    1324:	e5c43028 	strb	r3, [r4, #40]	; 0x28
/home/kwilson/Projects/psaseclipse/olimex2378/liblpc23xx/lpc23xx-uart/lpc23xx-uart.c:141
        default:
            while(1);
            break;
    }
    // enable interrupt
    UART0_FCR_ONE_CHAR_EN;
    1328:	e3a0320e 	mov	r3, #-536870912	; 0xe0000000
    132c:	e2833903 	add	r3, r3, #49152	; 0xc000
    1330:	e3a02007 	mov	r2, #7
    1334:	e5c32008 	strb	r2, [r3, #8]
/home/kwilson/Projects/psaseclipse/olimex2378/liblpc23xx/lpc23xx-uart/lpc23xx-uart.c:144

    // set parameters
    UART0_8N1;
    1338:	e3a02003 	mov	r2, #3
    133c:	e5c3200c 	strb	r2, [r3, #12]
/home/kwilson/Projects/psaseclipse/olimex2378/liblpc23xx/lpc23xx-uart/lpc23xx-uart.c:146

    uart0stat.charlength = 8;
    1340:	e2822005 	add	r2, r2, #5
    1344:	e5c52004 	strb	r2, [r5, #4]
/home/kwilson/Projects/psaseclipse/olimex2378/liblpc23xx/lpc23xx-uart/lpc23xx-uart.c:147
    uart0stat.stopbits   = 1;
    1348:	e3a02001 	mov	r2, #1
    134c:	e5c52005 	strb	r2, [r5, #5]
/home/kwilson/Projects/psaseclipse/olimex2378/liblpc23xx/lpc23xx-uart/lpc23xx-uart.c:149

    CLEAR_DLAB0;
    1350:	e5d3100c 	ldrb	r1, [r3, #12]
/home/kwilson/Projects/psaseclipse/olimex2378/liblpc23xx/lpc23xx-uart/lpc23xx-uart.c:152


    uart0stat.baudrate = ONE_FIFTEEN_TWO_H_B;
    1354:	e3a02907 	mov	r2, #114688	; 0x1c000
/home/kwilson/Projects/psaseclipse/olimex2378/liblpc23xx/lpc23xx-uart/lpc23xx-uart.c:149
    UART0_8N1;

    uart0stat.charlength = 8;
    uart0stat.stopbits   = 1;

    CLEAR_DLAB0;
    1358:	e201107f 	and	r1, r1, #127	; 0x7f
/home/kwilson/Projects/psaseclipse/olimex2378/liblpc23xx/lpc23xx-uart/lpc23xx-uart.c:152


    uart0stat.baudrate = ONE_FIFTEEN_TWO_H_B;
    135c:	e2822c02 	add	r2, r2, #512	; 0x200
/home/kwilson/Projects/psaseclipse/olimex2378/liblpc23xx/lpc23xx-uart/lpc23xx-uart.c:149
    UART0_8N1;

    uart0stat.charlength = 8;
    uart0stat.stopbits   = 1;

    CLEAR_DLAB0;
    1360:	e5c3100c 	strb	r1, [r3, #12]
/home/kwilson/Projects/psaseclipse/olimex2378/liblpc23xx/lpc23xx-uart/lpc23xx-uart.c:152


    uart0stat.baudrate = ONE_FIFTEEN_TWO_H_B;
    1364:	e5852000 	str	r2, [r5]
/home/kwilson/Projects/psaseclipse/olimex2378/liblpc23xx/lpc23xx-uart/lpc23xx-uart.c:154

}
    1368:	e8bd8070 	pop	{r4, r5, r6, pc}
/home/kwilson/Projects/psaseclipse/olimex2378/liblpc23xx/lpc23xx-uart/lpc23xx-uart.c:132
            U0DLL = 21;
            U0DLM = 0;
            U0FDR = (11<<4) | 6; // MULVAL = 11, DIVADD = 6;
            break;
        case SEVENTY_TWO_MHZ:
            U0DLL = 26;
    136c:	e3a0301a 	mov	r3, #26
    1370:	e5c43000 	strb	r3, [r4]
/home/kwilson/Projects/psaseclipse/olimex2378/liblpc23xx/lpc23xx-uart/lpc23xx-uart.c:134
            U0DLM = 0;
            U0FDR = (2<<4) | 1; // MULVAL = 11, DIVADD = 6;
    1374:	e2833007 	add	r3, r3, #7
/home/kwilson/Projects/psaseclipse/olimex2378/liblpc23xx/lpc23xx-uart/lpc23xx-uart.c:133
            U0DLM = 0;
            U0FDR = (11<<4) | 6; // MULVAL = 11, DIVADD = 6;
            break;
        case SEVENTY_TWO_MHZ:
            U0DLL = 26;
            U0DLM = 0;
    1378:	e5c46004 	strb	r6, [r4, #4]
/home/kwilson/Projects/psaseclipse/olimex2378/liblpc23xx/lpc23xx-uart/lpc23xx-uart.c:134
            U0FDR = (2<<4) | 1; // MULVAL = 11, DIVADD = 6;
    137c:	e5c43028 	strb	r3, [r4, #40]	; 0x28
/home/kwilson/Projects/psaseclipse/olimex2378/liblpc23xx/lpc23xx-uart/lpc23xx-uart.c:135
            break;
    1380:	eaffffe8 	b	1328 <uart0_init_115200+0xb0>
/home/kwilson/Projects/psaseclipse/olimex2378/liblpc23xx/lpc23xx-uart/lpc23xx-uart.c:127
            U0DLL = 17;
            U0DLM = 0;
            U0FDR = (15<<4) | 8; // MULVAL = 15, DIVADD = 8;
            break;
        case SIXTY_MHZ:
            U0DLL = 21;
    1384:	e3a03015 	mov	r3, #21
    1388:	e5c43000 	strb	r3, [r4]
/home/kwilson/Projects/psaseclipse/olimex2378/liblpc23xx/lpc23xx-uart/lpc23xx-uart.c:129
            U0DLM = 0;
            U0FDR = (11<<4) | 6; // MULVAL = 11, DIVADD = 6;
    138c:	e3e03049 	mvn	r3, #73	; 0x49
/home/kwilson/Projects/psaseclipse/olimex2378/liblpc23xx/lpc23xx-uart/lpc23xx-uart.c:128
            U0DLM = 0;
            U0FDR = (15<<4) | 8; // MULVAL = 15, DIVADD = 8;
            break;
        case SIXTY_MHZ:
            U0DLL = 21;
            U0DLM = 0;
    1390:	e5c46004 	strb	r6, [r4, #4]
/home/kwilson/Projects/psaseclipse/olimex2378/liblpc23xx/lpc23xx-uart/lpc23xx-uart.c:129
            U0FDR = (11<<4) | 6; // MULVAL = 11, DIVADD = 6;
    1394:	e5c43028 	strb	r3, [r4, #40]	; 0x28
/home/kwilson/Projects/psaseclipse/olimex2378/liblpc23xx/lpc23xx-uart/lpc23xx-uart.c:130
            break;
    1398:	eaffffe2 	b	1328 <uart0_init_115200+0xb0>
    139c:	40000260 	.word	0x40000260

000013a0 <uart0_putchar>:
uart0_putchar():
/home/kwilson/Projects/psaseclipse/olimex2378/liblpc23xx/lpc23xx-uart/lpc23xx-uart.c:159
}

/*
 * uart0_putchar
 */
void uart0_putchar(int8_t ch) {
    13a0:	e1a00c00 	lsl	r0, r0, #24
    13a4:	e1a00c40 	asr	r0, r0, #24
/home/kwilson/Projects/psaseclipse/olimex2378/liblpc23xx/lpc23xx-uart/lpc23xx-uart.c:160
    if (ch == '\n') {
    13a8:	e350000a 	cmp	r0, #10
    13ac:	0a000009 	beq	13d8 <uart0_putchar+0x38>
/home/kwilson/Projects/psaseclipse/olimex2378/liblpc23xx/lpc23xx-uart/lpc23xx-uart.c:164
        while (!(U0THR_EMPTY));
        U0THR = '\r';
    }
    while (!(U0THR_EMPTY));
    13b0:	e3a0120e 	mov	r1, #-536870912	; 0xe0000000
    13b4:	e2811903 	add	r1, r1, #49152	; 0xc000
    13b8:	e5d12014 	ldrb	r2, [r1, #20]
    13bc:	e3a0320e 	mov	r3, #-536870912	; 0xe0000000
    13c0:	e3120020 	tst	r2, #32
    13c4:	e2833903 	add	r3, r3, #49152	; 0xc000
    13c8:	0afffffa 	beq	13b8 <uart0_putchar+0x18>
/home/kwilson/Projects/psaseclipse/olimex2378/liblpc23xx/lpc23xx-uart/lpc23xx-uart.c:165
    U0THR = ch;
    13cc:	e20000ff 	and	r0, r0, #255	; 0xff
    13d0:	e5c30000 	strb	r0, [r3]
/home/kwilson/Projects/psaseclipse/olimex2378/liblpc23xx/lpc23xx-uart/lpc23xx-uart.c:166
}
    13d4:	e12fff1e 	bx	lr
/home/kwilson/Projects/psaseclipse/olimex2378/liblpc23xx/lpc23xx-uart/lpc23xx-uart.c:161
/*
 * uart0_putchar
 */
void uart0_putchar(int8_t ch) {
    if (ch == '\n') {
        while (!(U0THR_EMPTY));
    13d8:	e3a0120e 	mov	r1, #-536870912	; 0xe0000000
    13dc:	e2811903 	add	r1, r1, #49152	; 0xc000
    13e0:	e5d12014 	ldrb	r2, [r1, #20]
    13e4:	e3a0320e 	mov	r3, #-536870912	; 0xe0000000
    13e8:	e3120020 	tst	r2, #32
    13ec:	e2833903 	add	r3, r3, #49152	; 0xc000
    13f0:	0afffffa 	beq	13e0 <uart0_putchar+0x40>
/home/kwilson/Projects/psaseclipse/olimex2378/liblpc23xx/lpc23xx-uart/lpc23xx-uart.c:162
        U0THR = '\r';
    13f4:	e3a0200d 	mov	r2, #13
    13f8:	e5c32000 	strb	r2, [r3]
    13fc:	eaffffeb 	b	13b0 <uart0_putchar+0x10>

00001400 <uart0_putstring>:
uart0_putstring():
/home/kwilson/Projects/psaseclipse/olimex2378/liblpc23xx/lpc23xx-uart/lpc23xx-uart.c:176
 * -------------------------------------
 * put a string to the serial port
 *
 * Assumes null termination of string.
 */
void uart0_putstring(const char *s) {
    1400:	e92d4010 	push	{r4, lr}
/home/kwilson/Projects/psaseclipse/olimex2378/liblpc23xx/lpc23xx-uart/lpc23xx-uart.c:178

    while(*s ) {
    1404:	e5d03000 	ldrb	r3, [r0]
    1408:	e3530000 	cmp	r3, #0
    140c:	08bd8010 	popeq	{r4, pc}
    1410:	e1a04000 	mov	r4, r0
/home/kwilson/Projects/psaseclipse/olimex2378/liblpc23xx/lpc23xx-uart/lpc23xx-uart.c:179
        uart0_putchar(*s++); // put the char
    1414:	e1a03c03 	lsl	r3, r3, #24
    1418:	e1a00c43 	asr	r0, r3, #24
    141c:	ebffffdf 	bl	13a0 <uart0_putchar>
/home/kwilson/Projects/psaseclipse/olimex2378/liblpc23xx/lpc23xx-uart/lpc23xx-uart.c:178
 *
 * Assumes null termination of string.
 */
void uart0_putstring(const char *s) {

    while(*s ) {
    1420:	e5f43001 	ldrb	r3, [r4, #1]!
    1424:	e3530000 	cmp	r3, #0
    1428:	1afffff9 	bne	1414 <uart0_putstring+0x14>
    142c:	e8bd8010 	pop	{r4, pc}

00001430 <uart0_getchar>:
uart0_getchar():
/home/kwilson/Projects/psaseclipse/olimex2378/liblpc23xx/lpc23xx-uart/lpc23xx-uart.c:189
/*
 * uart0_getchar
 */
int8_t uart0_getchar (void)  {

    while (!U0RDR_READY);
    1430:	e3a0120e 	mov	r1, #-536870912	; 0xe0000000
    1434:	e2811903 	add	r1, r1, #49152	; 0xc000
    1438:	e5d12014 	ldrb	r2, [r1, #20]
    143c:	e3a0320e 	mov	r3, #-536870912	; 0xe0000000
    1440:	e3120001 	tst	r2, #1
    1444:	e2833903 	add	r3, r3, #49152	; 0xc000
    1448:	0afffffa 	beq	1438 <uart0_getchar+0x8>
/home/kwilson/Projects/psaseclipse/olimex2378/liblpc23xx/lpc23xx-uart/lpc23xx-uart.c:191

    return (U0RBR);
    144c:	e5d30000 	ldrb	r0, [r3]
    1450:	e1a00c00 	lsl	r0, r0, #24
/home/kwilson/Projects/psaseclipse/olimex2378/liblpc23xx/lpc23xx-uart/lpc23xx-uart.c:192
}
    1454:	e1a00c40 	asr	r0, r0, #24
    1458:	e12fff1e 	bx	lr

0000145c <uart0_getstring>:
/home/kwilson/Projects/psaseclipse/olimex2378/liblpc23xx/lpc23xx-uart/lpc23xx-uart.c:189
/*
 * uart0_getchar
 */
int8_t uart0_getchar (void)  {

    while (!U0RDR_READY);
    145c:	e3a0220e 	mov	r2, #-536870912	; 0xe0000000
    1460:	e59f004c 	ldr	r0, [pc, #76]	; 14b4 <uart0_getstring+0x58>
uart0_getstring():
/home/kwilson/Projects/psaseclipse/olimex2378/liblpc23xx/lpc23xx-uart/lpc23xx-uart.c:207
char* uart0_getstring (void) {

    static char uart0_linebuffer[UART_MAXBUFFER] ;

    uint8_t    current = ' ';
    uint32_t   index   = 0;
    1464:	e3a01000 	mov	r1, #0
uart0_getchar():
/home/kwilson/Projects/psaseclipse/olimex2378/liblpc23xx/lpc23xx-uart/lpc23xx-uart.c:189
/*
 * uart0_getchar
 */
int8_t uart0_getchar (void)  {

    while (!U0RDR_READY);
    1468:	e2822903 	add	r2, r2, #49152	; 0xc000
    146c:	e5d23014 	ldrb	r3, [r2, #20]
    1470:	e3130001 	tst	r3, #1
    1474:	0afffffc 	beq	146c <uart0_getstring+0x10>
/home/kwilson/Projects/psaseclipse/olimex2378/liblpc23xx/lpc23xx-uart/lpc23xx-uart.c:191

    return (U0RBR);
    1478:	e5d23000 	ldrb	r3, [r2]
    147c:	e20330ff 	and	r3, r3, #255	; 0xff
uart0_getstring():
/home/kwilson/Projects/psaseclipse/olimex2378/liblpc23xx/lpc23xx-uart/lpc23xx-uart.c:209
    static char uart0_linebuffer[UART_MAXBUFFER] ;

    uint8_t    current = ' ';
    uint32_t   index   = 0;

    while((current != '\n' && current != '\r') && index < UART_MAXBUFFER-1) {
    1480:	e353000d 	cmp	r3, #13
    1484:	1353000a 	cmpne	r3, #10
/home/kwilson/Projects/psaseclipse/olimex2378/liblpc23xx/lpc23xx-uart/lpc23xx-uart.c:211
        current                 = uart0_getchar();
        uart0_linebuffer[index] = current;
    1488:	e7c03001 	strb	r3, [r0, r1]
/home/kwilson/Projects/psaseclipse/olimex2378/liblpc23xx/lpc23xx-uart/lpc23xx-uart.c:212
        ++index;
    148c:	e2811001 	add	r1, r1, #1
/home/kwilson/Projects/psaseclipse/olimex2378/liblpc23xx/lpc23xx-uart/lpc23xx-uart.c:209
    static char uart0_linebuffer[UART_MAXBUFFER] ;

    uint8_t    current = ' ';
    uint32_t   index   = 0;

    while((current != '\n' && current != '\r') && index < UART_MAXBUFFER-1) {
    1490:	0a000001 	beq	149c <uart0_getstring+0x40>
    1494:	e3510078 	cmp	r1, #120	; 0x78
    1498:	1afffff3 	bne	146c <uart0_getstring+0x10>
/home/kwilson/Projects/psaseclipse/olimex2378/liblpc23xx/lpc23xx-uart/lpc23xx-uart.c:214
        current                 = uart0_getchar();
        uart0_linebuffer[index] = current;
        ++index;
    }
    uart0_linebuffer[index]     = '\0';
    149c:	e59f0014 	ldr	r0, [pc, #20]	; 14b8 <uart0_getstring+0x5c>
    14a0:	e3a03000 	mov	r3, #0
    14a4:	e0801001 	add	r1, r0, r1
    14a8:	e5c13008 	strb	r3, [r1, #8]
/home/kwilson/Projects/psaseclipse/olimex2378/liblpc23xx/lpc23xx-uart/lpc23xx-uart.c:217

    return(uart0_linebuffer);
}
    14ac:	e2800008 	add	r0, r0, #8
    14b0:	e12fff1e 	bx	lr
    14b4:	40000268 	.word	0x40000268
    14b8:	40000260 	.word	0x40000260

000014bc <microsecondsToCPUTicks>:
microsecondsToCPUTicks():
/home/kwilson/Projects/psaseclipse/olimex2378/liblpc23xx/lpc23xx-util/lpc23xx-util.c:17
#include "lpc23xx-util.h"

/*
 * microsecondsToCPUTicks
 */
uint32_t microsecondsToCPUTicks(const uint32_t microseconds) {
    14bc:	e92d4010 	push	{r4, lr}
    14c0:	e1a04000 	mov	r4, r0
/home/kwilson/Projects/psaseclipse/olimex2378/liblpc23xx/lpc23xx-util/lpc23xx-util.c:18
    uint32_t ret = ( pllquery_cclk_mhz() / 1000000) * microseconds;
    14c4:	ebfffe3c 	bl	dbc <pllquery_cclk_mhz>
    14c8:	e59f300c 	ldr	r3, [pc, #12]	; 14dc <microsecondsToCPUTicks+0x20>
    14cc:	e0802093 	umull	r2, r0, r3, r0
    14d0:	e1a00920 	lsr	r0, r0, #18
/home/kwilson/Projects/psaseclipse/olimex2378/liblpc23xx/lpc23xx-util/lpc23xx-util.c:20
    return(ret);
}
    14d4:	e0000094 	mul	r0, r4, r0
    14d8:	e8bd8010 	pop	{r4, pc}
    14dc:	431bde83 	.word	0x431bde83

000014e0 <millisecondsToCPUTicks>:
millisecondsToCPUTicks():
/home/kwilson/Projects/psaseclipse/olimex2378/liblpc23xx/lpc23xx-util/lpc23xx-util.c:25

/*
 * millisecondsToCPUTicks
 */
uint32_t millisecondsToCPUTicks(const uint32_t milliseconds) {
    14e0:	e92d4010 	push	{r4, lr}
    14e4:	e1a04000 	mov	r4, r0
/home/kwilson/Projects/psaseclipse/olimex2378/liblpc23xx/lpc23xx-util/lpc23xx-util.c:26
    uint32_t ret = (pllquery_cclk_mhz() / 1000) * milliseconds;
    14e8:	ebfffe33 	bl	dbc <pllquery_cclk_mhz>
    14ec:	e59f300c 	ldr	r3, [pc, #12]	; 1500 <millisecondsToCPUTicks+0x20>
    14f0:	e0802093 	umull	r2, r0, r3, r0
    14f4:	e1a00320 	lsr	r0, r0, #6
/home/kwilson/Projects/psaseclipse/olimex2378/liblpc23xx/lpc23xx-util/lpc23xx-util.c:28
    return(ret);
}
    14f8:	e0000094 	mul	r0, r4, r0
    14fc:	e8bd8010 	pop	{r4, pc}
    1500:	10624dd3 	.word	0x10624dd3

00001504 <util_itoa>:
util_itoa():
/home/kwilson/Projects/psaseclipse/olimex2378/liblpc23xx/lpc23xx-util/lpc23xx-util.c:34

/*
 * util_itoa
 * convert a signed int to a string...
 */
char* util_itoa(int32_t val, uint32_t base) {
    1504:	e92d45f0 	push	{r4, r5, r6, r7, r8, sl, lr}
/home/kwilson/Projects/psaseclipse/olimex2378/liblpc23xx/lpc23xx-util/lpc23xx-util.c:41
    static char ibuf[MAX_I2ASTRING];

    int         i     = MAX_I2ASTRING-2;
    int         minus = 0;

    memset(ibuf,'\0',MAX_I2ASTRING);
    1508:	e59f70cc 	ldr	r7, [pc, #204]	; 15dc <util_itoa+0xd8>
    150c:	e3a02000 	mov	r2, #0
    1510:	e2873008 	add	r3, r7, #8
    1514:	e5832000 	str	r2, [r3]
    1518:	e287300c 	add	r3, r7, #12
    151c:	e5832000 	str	r2, [r3]
    1520:	e2873010 	add	r3, r7, #16
    1524:	e5832000 	str	r2, [r3]
    1528:	e2873014 	add	r3, r7, #20
    152c:	e5832000 	str	r2, [r3]
    1530:	e2873018 	add	r3, r7, #24
    1534:	e5832000 	str	r2, [r3]
    1538:	e287301c 	add	r3, r7, #28
    153c:	e5832000 	str	r2, [r3]
/home/kwilson/Projects/psaseclipse/olimex2378/liblpc23xx/lpc23xx-util/lpc23xx-util.c:43

    if(val < 0) {
    1540:	e2504000 	subs	r4, r0, #0
/home/kwilson/Projects/psaseclipse/olimex2378/liblpc23xx/lpc23xx-util/lpc23xx-util.c:41
    static char ibuf[MAX_I2ASTRING];

    int         i     = MAX_I2ASTRING-2;
    int         minus = 0;

    memset(ibuf,'\0',MAX_I2ASTRING);
    1544:	e2873020 	add	r3, r7, #32
/home/kwilson/Projects/psaseclipse/olimex2378/liblpc23xx/lpc23xx-util/lpc23xx-util.c:34

/*
 * util_itoa
 * convert a signed int to a string...
 */
char* util_itoa(int32_t val, uint32_t base) {
    1548:	e1a06001 	mov	r6, r1
/home/kwilson/Projects/psaseclipse/olimex2378/liblpc23xx/lpc23xx-util/lpc23xx-util.c:41
    static char ibuf[MAX_I2ASTRING];

    int         i     = MAX_I2ASTRING-2;
    int         minus = 0;

    memset(ibuf,'\0',MAX_I2ASTRING);
    154c:	e5872000 	str	r2, [r7]
    1550:	e5872004 	str	r2, [r7, #4]
    1554:	e5c32000 	strb	r2, [r3]
/home/kwilson/Projects/psaseclipse/olimex2378/liblpc23xx/lpc23xx-util/lpc23xx-util.c:43

    if(val < 0) {
    1558:	ba00001a 	blt	15c8 <util_itoa+0xc4>
/home/kwilson/Projects/psaseclipse/olimex2378/liblpc23xx/lpc23xx-util/lpc23xx-util.c:49
        val   = -val;
        minus = 1;
    }

    if(val == 0) {
        ibuf[0] = '0';
    155c:	03a03030 	moveq	r3, #48	; 0x30
    1560:	05c73000 	strbeq	r3, [r7]
/home/kwilson/Projects/psaseclipse/olimex2378/liblpc23xx/lpc23xx-util/lpc23xx-util.c:50
        return &ibuf[0];
    1564:	01a00007 	moveq	r0, r7
/home/kwilson/Projects/psaseclipse/olimex2378/liblpc23xx/lpc23xx-util/lpc23xx-util.c:48
    if(val < 0) {
        val   = -val;
        minus = 1;
    }

    if(val == 0) {
    1568:	08bd85f0 	popeq	{r4, r5, r6, r7, r8, sl, pc}
    156c:	e1a0a002 	mov	sl, r2
    1570:	e59f8068 	ldr	r8, [pc, #104]	; 15e0 <util_itoa+0xdc>
    1574:	e3a0501f 	mov	r5, #31
/home/kwilson/Projects/psaseclipse/olimex2378/liblpc23xx/lpc23xx-util/lpc23xx-util.c:53
        ibuf[0] = '0';
        return &ibuf[0];
    } else {
        for(; val && i ; --i, val /= base) {
            ibuf[i] = "0123456789abcdef"[val % base];
    1578:	e1a00004 	mov	r0, r4
    157c:	e1a01006 	mov	r1, r6
    1580:	eb00013f 	bl	1a84 <__umodsi3>
    1584:	e7d83000 	ldrb	r3, [r8, r0]
/home/kwilson/Projects/psaseclipse/olimex2378/liblpc23xx/lpc23xx-util/lpc23xx-util.c:52

    if(val == 0) {
        ibuf[0] = '0';
        return &ibuf[0];
    } else {
        for(; val && i ; --i, val /= base) {
    1588:	e1a01006 	mov	r1, r6
    158c:	e1a00004 	mov	r0, r4
/home/kwilson/Projects/psaseclipse/olimex2378/liblpc23xx/lpc23xx-util/lpc23xx-util.c:53
            ibuf[i] = "0123456789abcdef"[val % base];
    1590:	e7c73005 	strb	r3, [r7, r5]
/home/kwilson/Projects/psaseclipse/olimex2378/liblpc23xx/lpc23xx-util/lpc23xx-util.c:52

    if(val == 0) {
        ibuf[0] = '0';
        return &ibuf[0];
    } else {
        for(; val && i ; --i, val /= base) {
    1594:	eb0000f4 	bl	196c <__aeabi_uidiv>
    1598:	e2455001 	sub	r5, r5, #1
    159c:	e3500000 	cmp	r0, #0
    15a0:	13550000 	cmpne	r5, #0
    15a4:	e1a04000 	mov	r4, r0
/home/kwilson/Projects/psaseclipse/olimex2378/liblpc23xx/lpc23xx-util/lpc23xx-util.c:53
            ibuf[i] = "0123456789abcdef"[val % base];
    15a8:	e59f002c 	ldr	r0, [pc, #44]	; 15dc <util_itoa+0xd8>
/home/kwilson/Projects/psaseclipse/olimex2378/liblpc23xx/lpc23xx-util/lpc23xx-util.c:52

    if(val == 0) {
        ibuf[0] = '0';
        return &ibuf[0];
    } else {
        for(; val && i ; --i, val /= base) {
    15ac:	1afffff1 	bne	1578 <util_itoa+0x74>
/home/kwilson/Projects/psaseclipse/olimex2378/liblpc23xx/lpc23xx-util/lpc23xx-util.c:56
            ibuf[i] = "0123456789abcdef"[val % base];
        }

        if(minus == 1 && base == 10) {
    15b0:	e35a0000 	cmp	sl, #0
/home/kwilson/Projects/psaseclipse/olimex2378/liblpc23xx/lpc23xx-util/lpc23xx-util.c:57
            ibuf[i] = '-';
    15b4:	13a0302d 	movne	r3, #45	; 0x2d
/home/kwilson/Projects/psaseclipse/olimex2378/liblpc23xx/lpc23xx-util/lpc23xx-util.c:60
            return &ibuf[i];
        } else {
            return &ibuf[i+1];
    15b8:	02855001 	addeq	r5, r5, #1
/home/kwilson/Projects/psaseclipse/olimex2378/liblpc23xx/lpc23xx-util/lpc23xx-util.c:57
        for(; val && i ; --i, val /= base) {
            ibuf[i] = "0123456789abcdef"[val % base];
        }

        if(minus == 1 && base == 10) {
            ibuf[i] = '-';
    15bc:	17e03005 	strbne	r3, [r0, r5]!
/home/kwilson/Projects/psaseclipse/olimex2378/liblpc23xx/lpc23xx-util/lpc23xx-util.c:60
            return &ibuf[i];
        } else {
            return &ibuf[i+1];
    15c0:	00800005 	addeq	r0, r0, r5
/home/kwilson/Projects/psaseclipse/olimex2378/liblpc23xx/lpc23xx-util/lpc23xx-util.c:63
        }
    }
}
    15c4:	e8bd85f0 	pop	{r4, r5, r6, r7, r8, sl, pc}
/home/kwilson/Projects/psaseclipse/olimex2378/liblpc23xx/lpc23xx-util/lpc23xx-util.c:44
    int         minus = 0;

    memset(ibuf,'\0',MAX_I2ASTRING);

    if(val < 0) {
        val   = -val;
    15c8:	e2644000 	rsb	r4, r4, #0
    15cc:	e351000a 	cmp	r1, #10
    15d0:	13a0a000 	movne	sl, #0
    15d4:	03a0a001 	moveq	sl, #1
    15d8:	eaffffe4 	b	1570 <util_itoa+0x6c>
    15dc:	400002e4 	.word	0x400002e4
    15e0:	00001d6c 	.word	0x00001d6c

000015e4 <util_uitoa>:
util_uitoa():
/home/kwilson/Projects/psaseclipse/olimex2378/liblpc23xx/lpc23xx-util/lpc23xx-util.c:75

    static char ibuf[MAX_I2ASTRING];

    int         i = MAX_I2ASTRING-2;

    memset(ibuf,'\0',MAX_I2ASTRING);
    15e4:	e59f3090 	ldr	r3, [pc, #144]	; 167c <util_uitoa+0x98>
/home/kwilson/Projects/psaseclipse/olimex2378/liblpc23xx/lpc23xx-util/lpc23xx-util.c:69

/*
 * util_uitoa
 * convert an unsigned int to a string...
 */
char* util_uitoa(uint32_t val, uint32_t base) {
    15e8:	e92d41f0 	push	{r4, r5, r6, r7, r8, lr}
/home/kwilson/Projects/psaseclipse/olimex2378/liblpc23xx/lpc23xx-util/lpc23xx-util.c:75

    static char ibuf[MAX_I2ASTRING];

    int         i = MAX_I2ASTRING-2;

    memset(ibuf,'\0',MAX_I2ASTRING);
    15ec:	e3a02000 	mov	r2, #0
/home/kwilson/Projects/psaseclipse/olimex2378/liblpc23xx/lpc23xx-util/lpc23xx-util.c:77

    if(val == 0) {
    15f0:	e2505000 	subs	r5, r0, #0
/home/kwilson/Projects/psaseclipse/olimex2378/liblpc23xx/lpc23xx-util/lpc23xx-util.c:75

    static char ibuf[MAX_I2ASTRING];

    int         i = MAX_I2ASTRING-2;

    memset(ibuf,'\0',MAX_I2ASTRING);
    15f4:	e5832024 	str	r2, [r3, #36]	; 0x24
    15f8:	e2837024 	add	r7, r3, #36	; 0x24
    15fc:	e5832028 	str	r2, [r3, #40]	; 0x28
    1600:	e583202c 	str	r2, [r3, #44]	; 0x2c
    1604:	e5832030 	str	r2, [r3, #48]	; 0x30
    1608:	e5832034 	str	r2, [r3, #52]	; 0x34
    160c:	e5832038 	str	r2, [r3, #56]	; 0x38
    1610:	e583203c 	str	r2, [r3, #60]	; 0x3c
    1614:	e5832040 	str	r2, [r3, #64]	; 0x40
    1618:	e5c32044 	strb	r2, [r3, #68]	; 0x44
/home/kwilson/Projects/psaseclipse/olimex2378/liblpc23xx/lpc23xx-util/lpc23xx-util.c:78

    if(val == 0) {
        ibuf[0] = '0';
    161c:	03a02030 	moveq	r2, #48	; 0x30
/home/kwilson/Projects/psaseclipse/olimex2378/liblpc23xx/lpc23xx-util/lpc23xx-util.c:69

/*
 * util_uitoa
 * convert an unsigned int to a string...
 */
char* util_uitoa(uint32_t val, uint32_t base) {
    1620:	e1a06001 	mov	r6, r1
/home/kwilson/Projects/psaseclipse/olimex2378/liblpc23xx/lpc23xx-util/lpc23xx-util.c:78
    int         i = MAX_I2ASTRING-2;

    memset(ibuf,'\0',MAX_I2ASTRING);

    if(val == 0) {
        ibuf[0] = '0';
    1624:	05c32024 	strbeq	r2, [r3, #36]	; 0x24
/home/kwilson/Projects/psaseclipse/olimex2378/liblpc23xx/lpc23xx-util/lpc23xx-util.c:79
        return &ibuf[0];
    1628:	01a00007 	moveq	r0, r7
/home/kwilson/Projects/psaseclipse/olimex2378/liblpc23xx/lpc23xx-util/lpc23xx-util.c:77

    int         i = MAX_I2ASTRING-2;

    memset(ibuf,'\0',MAX_I2ASTRING);

    if(val == 0) {
    162c:	08bd81f0 	popeq	{r4, r5, r6, r7, r8, pc}
    1630:	e59f8048 	ldr	r8, [pc, #72]	; 1680 <util_uitoa+0x9c>
    1634:	e3a0401f 	mov	r4, #31
/home/kwilson/Projects/psaseclipse/olimex2378/liblpc23xx/lpc23xx-util/lpc23xx-util.c:82
        ibuf[0] = '0';
        return &ibuf[0];
    } else {
        for(; val && i ; --i, val /= base) {
            ibuf[i] = "0123456789abcdef"[val % base];
    1638:	e1a00005 	mov	r0, r5
    163c:	e1a01006 	mov	r1, r6
    1640:	eb00010f 	bl	1a84 <__umodsi3>
    1644:	e7d83000 	ldrb	r3, [r8, r0]
/home/kwilson/Projects/psaseclipse/olimex2378/liblpc23xx/lpc23xx-util/lpc23xx-util.c:81

    if(val == 0) {
        ibuf[0] = '0';
        return &ibuf[0];
    } else {
        for(; val && i ; --i, val /= base) {
    1648:	e1a01006 	mov	r1, r6
    164c:	e1a00005 	mov	r0, r5
/home/kwilson/Projects/psaseclipse/olimex2378/liblpc23xx/lpc23xx-util/lpc23xx-util.c:82
            ibuf[i] = "0123456789abcdef"[val % base];
    1650:	e7c73004 	strb	r3, [r7, r4]
/home/kwilson/Projects/psaseclipse/olimex2378/liblpc23xx/lpc23xx-util/lpc23xx-util.c:81

    if(val == 0) {
        ibuf[0] = '0';
        return &ibuf[0];
    } else {
        for(; val && i ; --i, val /= base) {
    1654:	eb0000c4 	bl	196c <__aeabi_uidiv>
    1658:	e2444001 	sub	r4, r4, #1
    165c:	e3540000 	cmp	r4, #0
    1660:	13500000 	cmpne	r0, #0
    1664:	e1a05000 	mov	r5, r0
    1668:	1afffff2 	bne	1638 <util_uitoa+0x54>
/home/kwilson/Projects/psaseclipse/olimex2378/liblpc23xx/lpc23xx-util/lpc23xx-util.c:84
            ibuf[i] = "0123456789abcdef"[val % base];
        }
        return &ibuf[i+1];
    166c:	e59f0010 	ldr	r0, [pc, #16]	; 1684 <util_uitoa+0xa0>
    1670:	e2844001 	add	r4, r4, #1
    1674:	e0800004 	add	r0, r0, r4
/home/kwilson/Projects/psaseclipse/olimex2378/liblpc23xx/lpc23xx-util/lpc23xx-util.c:86
    }
}
    1678:	e8bd81f0 	pop	{r4, r5, r6, r7, r8, pc}
    167c:	400002e4 	.word	0x400002e4
    1680:	00001d6c 	.word	0x00001d6c
    1684:	40000308 	.word	0x40000308

00001688 <util_waitticks>:
util_waitticks():
/home/kwilson/Projects/psaseclipse/olimex2378/liblpc23xx/lpc23xx-util/lpc23xx-util.c:97
 */
void util_waitticks(uint32_t ticks) {
    uint32_t j;

    for(j=ticks; j>0; --j);
}
    1688:	e12fff1e 	bx	lr
    168c:	00000000 	andeq	r0, r0, r0

00001690 <init_binsem>:
init_binsem():
/home/kwilson/Projects/psaseclipse/olimex2378/liblpc23xx/lpc23xx-binsem/lpc23xx-binsem.s:49
 * In C define prototype: void init_binsem(uint32_t *binsem_addr);
 */
.global init_binsem
init_binsem:
    ### prolog ###
    stmdb sp!, {r4-r11}
    1690:	e92d0ff0 	push	{r4, r5, r6, r7, r8, r9, sl, fp}
/home/kwilson/Projects/psaseclipse/olimex2378/liblpc23xx/lpc23xx-binsem/lpc23xx-binsem.s:51

    mov r4, binsem_addr
    1694:	e1a04000 	mov	r4, r0
/home/kwilson/Projects/psaseclipse/olimex2378/liblpc23xx/lpc23xx-binsem/lpc23xx-binsem.s:53

    ldr r5, =UNLOCKED
    1698:	e3a05001 	mov	r5, #1
/home/kwilson/Projects/psaseclipse/olimex2378/liblpc23xx/lpc23xx-binsem/lpc23xx-binsem.s:54
    swp r5, r5, [r4]
    169c:	e1045095 	swp	r5, r5, [r4]
/home/kwilson/Projects/psaseclipse/olimex2378/liblpc23xx/lpc23xx-binsem/lpc23xx-binsem.s:57

    ### epilog ###
    ldmia sp!, {r4-r11}
    16a0:	e8bd0ff0 	pop	{r4, r5, r6, r7, r8, r9, sl, fp}
/home/kwilson/Projects/psaseclipse/olimex2378/liblpc23xx/lpc23xx-binsem/lpc23xx-binsem.s:59

    mov r0, #0
    16a4:	e3a00000 	mov	r0, #0
/home/kwilson/Projects/psaseclipse/olimex2378/liblpc23xx/lpc23xx-binsem/lpc23xx-binsem.s:60
    mov pc, lr
    16a8:	e1a0f00e 	mov	pc, lr

000016ac <is_binsem_locked>:
is_binsem_locked():
/home/kwilson/Projects/psaseclipse/olimex2378/liblpc23xx/lpc23xx-binsem/lpc23xx-binsem.s:74
 */
.global is_binsem_locked
is_binsem_locked:
    ### prolog ###
    # store multiple, decrement before. '!' says to write back new value to sp
    stmdb sp!, {r4-r11}
    16ac:	e92d0ff0 	push	{r4, r5, r6, r7, r8, r9, sl, fp}
/home/kwilson/Projects/psaseclipse/olimex2378/liblpc23xx/lpc23xx-binsem/lpc23xx-binsem.s:76

    mov r4, binsem_addr
    16b0:	e1a04000 	mov	r4, r0
/home/kwilson/Projects/psaseclipse/olimex2378/liblpc23xx/lpc23xx-binsem/lpc23xx-binsem.s:78

    ldr r5, [r4]
    16b4:	e5945000 	ldr	r5, [r4]
/home/kwilson/Projects/psaseclipse/olimex2378/liblpc23xx/lpc23xx-binsem/lpc23xx-binsem.s:79
    cmp r5, #LOCKED
    16b8:	e3550000 	cmp	r5, #0
/home/kwilson/Projects/psaseclipse/olimex2378/liblpc23xx/lpc23xx-binsem/lpc23xx-binsem.s:80
    beq is_locked
    16bc:	0a000004 	beq	16d4 <is_locked>
/home/kwilson/Projects/psaseclipse/olimex2378/liblpc23xx/lpc23xx-binsem/lpc23xx-binsem.s:81
    nop
    16c0:	e1a00000 	nop			; (mov r0, r0)
/home/kwilson/Projects/psaseclipse/olimex2378/liblpc23xx/lpc23xx-binsem/lpc23xx-binsem.s:82
    nop
    16c4:	e1a00000 	nop			; (mov r0, r0)
/home/kwilson/Projects/psaseclipse/olimex2378/liblpc23xx/lpc23xx-binsem/lpc23xx-binsem.s:83
    b   not_locked
    16c8:	ea000005 	b	16e4 <not_locked>
/home/kwilson/Projects/psaseclipse/olimex2378/liblpc23xx/lpc23xx-binsem/lpc23xx-binsem.s:84
    nop
    16cc:	e1a00000 	nop			; (mov r0, r0)
/home/kwilson/Projects/psaseclipse/olimex2378/liblpc23xx/lpc23xx-binsem/lpc23xx-binsem.s:85
    nop
    16d0:	e1a00000 	nop			; (mov r0, r0)

000016d4 <is_locked>:
is_locked():
/home/kwilson/Projects/psaseclipse/olimex2378/liblpc23xx/lpc23xx-binsem/lpc23xx-binsem.s:88

is_locked:
    mov r0, #1
    16d4:	e3a00001 	mov	r0, #1
/home/kwilson/Projects/psaseclipse/olimex2378/liblpc23xx/lpc23xx-binsem/lpc23xx-binsem.s:89
    b end_is_binsem_locked
    16d8:	ea000002 	b	16e8 <end_is_binsem_locked>
/home/kwilson/Projects/psaseclipse/olimex2378/liblpc23xx/lpc23xx-binsem/lpc23xx-binsem.s:90
    nop
    16dc:	e1a00000 	nop			; (mov r0, r0)
/home/kwilson/Projects/psaseclipse/olimex2378/liblpc23xx/lpc23xx-binsem/lpc23xx-binsem.s:91
    nop
    16e0:	e1a00000 	nop			; (mov r0, r0)

000016e4 <not_locked>:
not_locked():
/home/kwilson/Projects/psaseclipse/olimex2378/liblpc23xx/lpc23xx-binsem/lpc23xx-binsem.s:94

not_locked:
    mov r0, #0
    16e4:	e3a00000 	mov	r0, #0

000016e8 <end_is_binsem_locked>:
end_is_binsem_locked():
/home/kwilson/Projects/psaseclipse/olimex2378/liblpc23xx/lpc23xx-binsem/lpc23xx-binsem.s:100

end_is_binsem_locked:

    ### epilog ###
    # load multiple, increment after. '!' says to write back new value to sp
    ldmia sp!, {r4-r11}
    16e8:	e8bd0ff0 	pop	{r4, r5, r6, r7, r8, r9, sl, fp}
/home/kwilson/Projects/psaseclipse/olimex2378/liblpc23xx/lpc23xx-binsem/lpc23xx-binsem.s:103

    # lr contains address of next instruction after function
    mov pc, lr
    16ec:	e1a0f00e 	mov	pc, lr

000016f0 <get_binsem>:
get_binsem():
/home/kwilson/Projects/psaseclipse/olimex2378/liblpc23xx/lpc23xx-binsem/lpc23xx-binsem.s:118
 */ 
.global get_binsem
get_binsem:
    ### prolog ###
    # store multiple, decrement before. '!' says to write back new value to sp
    stmdb sp!, {r4-r11}
    16f0:	e92d0ff0 	push	{r4, r5, r6, r7, r8, r9, sl, fp}
/home/kwilson/Projects/psaseclipse/olimex2378/liblpc23xx/lpc23xx-binsem/lpc23xx-binsem.s:120

    mov r4, binsem_addr
    16f4:	e1a04000 	mov	r4, r0
/home/kwilson/Projects/psaseclipse/olimex2378/liblpc23xx/lpc23xx-binsem/lpc23xx-binsem.s:121
    mov r5, ticks
    16f8:	e1a05001 	mov	r5, r1
/home/kwilson/Projects/psaseclipse/olimex2378/liblpc23xx/lpc23xx-binsem/lpc23xx-binsem.s:123
    # minimum wait is one count.
    add r5, #0x1
    16fc:	e2855001 	add	r5, r5, #1
/home/kwilson/Projects/psaseclipse/olimex2378/liblpc23xx/lpc23xx-binsem/lpc23xx-binsem.s:125

    ldr r6, =LOCKED
    1700:	e3a06000 	mov	r6, #0

00001704 <spin_lock>:
spin_lock():
/home/kwilson/Projects/psaseclipse/olimex2378/liblpc23xx/lpc23xx-binsem/lpc23xx-binsem.s:129

spin_lock:
    # r1 is an indirect address (note '[' and ']')
    swp r6, r6, [r4]
    1704:	e1046096 	swp	r6, r6, [r4]
/home/kwilson/Projects/psaseclipse/olimex2378/liblpc23xx/lpc23xx-binsem/lpc23xx-binsem.s:131
    # use immediate value of LOCKED constant
    cmp r6, #LOCKED
    1708:	e3560000 	cmp	r6, #0
/home/kwilson/Projects/psaseclipse/olimex2378/liblpc23xx/lpc23xx-binsem/lpc23xx-binsem.s:132
    beq waitcount
    170c:	0a000004 	beq	1724 <waitcount>
/home/kwilson/Projects/psaseclipse/olimex2378/liblpc23xx/lpc23xx-binsem/lpc23xx-binsem.s:133
    nop
    1710:	e1a00000 	nop			; (mov r0, r0)
/home/kwilson/Projects/psaseclipse/olimex2378/liblpc23xx/lpc23xx-binsem/lpc23xx-binsem.s:134
    nop
    1714:	e1a00000 	nop			; (mov r0, r0)
/home/kwilson/Projects/psaseclipse/olimex2378/liblpc23xx/lpc23xx-binsem/lpc23xx-binsem.s:135
    b gotlock
    1718:	ea000009 	b	1744 <gotlock>
/home/kwilson/Projects/psaseclipse/olimex2378/liblpc23xx/lpc23xx-binsem/lpc23xx-binsem.s:136
    nop
    171c:	e1a00000 	nop			; (mov r0, r0)
/home/kwilson/Projects/psaseclipse/olimex2378/liblpc23xx/lpc23xx-binsem/lpc23xx-binsem.s:137
    nop
    1720:	e1a00000 	nop			; (mov r0, r0)

00001724 <waitcount>:
waitcount():
/home/kwilson/Projects/psaseclipse/olimex2378/liblpc23xx/lpc23xx-binsem/lpc23xx-binsem.s:140

waitcount:
    sub r5, #0x1
    1724:	e2455001 	sub	r5, r5, #1
/home/kwilson/Projects/psaseclipse/olimex2378/liblpc23xx/lpc23xx-binsem/lpc23xx-binsem.s:141
    cmp r5, #0x0
    1728:	e3550000 	cmp	r5, #0
/home/kwilson/Projects/psaseclipse/olimex2378/liblpc23xx/lpc23xx-binsem/lpc23xx-binsem.s:142
    beq timeout
    172c:	0a000008 	beq	1754 <timeout>
/home/kwilson/Projects/psaseclipse/olimex2378/liblpc23xx/lpc23xx-binsem/lpc23xx-binsem.s:143
    nop
    1730:	e1a00000 	nop			; (mov r0, r0)
/home/kwilson/Projects/psaseclipse/olimex2378/liblpc23xx/lpc23xx-binsem/lpc23xx-binsem.s:144
    nop
    1734:	e1a00000 	nop			; (mov r0, r0)
/home/kwilson/Projects/psaseclipse/olimex2378/liblpc23xx/lpc23xx-binsem/lpc23xx-binsem.s:145
    b spin_lock
    1738:	eafffff1 	b	1704 <spin_lock>
/home/kwilson/Projects/psaseclipse/olimex2378/liblpc23xx/lpc23xx-binsem/lpc23xx-binsem.s:146
    nop
    173c:	e1a00000 	nop			; (mov r0, r0)
/home/kwilson/Projects/psaseclipse/olimex2378/liblpc23xx/lpc23xx-binsem/lpc23xx-binsem.s:147
    nop
    1740:	e1a00000 	nop			; (mov r0, r0)

00001744 <gotlock>:
gotlock():
/home/kwilson/Projects/psaseclipse/olimex2378/liblpc23xx/lpc23xx-binsem/lpc23xx-binsem.s:150

gotlock:
    mov r0, #1
    1744:	e3a00001 	mov	r0, #1
/home/kwilson/Projects/psaseclipse/olimex2378/liblpc23xx/lpc23xx-binsem/lpc23xx-binsem.s:151
    b end_get_binsem
    1748:	ea000002 	b	1758 <end_get_binsem>
/home/kwilson/Projects/psaseclipse/olimex2378/liblpc23xx/lpc23xx-binsem/lpc23xx-binsem.s:152
    nop
    174c:	e1a00000 	nop			; (mov r0, r0)
/home/kwilson/Projects/psaseclipse/olimex2378/liblpc23xx/lpc23xx-binsem/lpc23xx-binsem.s:153
    nop
    1750:	e1a00000 	nop			; (mov r0, r0)

00001754 <timeout>:
timeout():
/home/kwilson/Projects/psaseclipse/olimex2378/liblpc23xx/lpc23xx-binsem/lpc23xx-binsem.s:156

timeout:
    mov r0, #0
    1754:	e3a00000 	mov	r0, #0

00001758 <end_get_binsem>:
end_get_binsem():
/home/kwilson/Projects/psaseclipse/olimex2378/liblpc23xx/lpc23xx-binsem/lpc23xx-binsem.s:161

end_get_binsem:

    ### epilog ###
    ldmia sp!, {r4-r11}
    1758:	e8bd0ff0 	pop	{r4, r5, r6, r7, r8, r9, sl, fp}
/home/kwilson/Projects/psaseclipse/olimex2378/liblpc23xx/lpc23xx-binsem/lpc23xx-binsem.s:164

    # lr contains address of next instruction after function
    mov pc, lr
    175c:	e1a0f00e 	mov	pc, lr

00001760 <release_binsem>:
release_binsem():
/home/kwilson/Projects/psaseclipse/olimex2378/liblpc23xx/lpc23xx-binsem/lpc23xx-binsem.s:176
 * in C define prototype: uint32_t release_binsem(uint32_t* binsem_addr);
 */ 
.global release_binsem
release_binsem:
    ### prolog ###
    stmdb sp!, {r4-r11}
    1760:	e92d0ff0 	push	{r4, r5, r6, r7, r8, r9, sl, fp}
/home/kwilson/Projects/psaseclipse/olimex2378/liblpc23xx/lpc23xx-binsem/lpc23xx-binsem.s:178

    mov r4, binsem_addr
    1764:	e1a04000 	mov	r4, r0
/home/kwilson/Projects/psaseclipse/olimex2378/liblpc23xx/lpc23xx-binsem/lpc23xx-binsem.s:180
  
    ldr r5, =UNLOCKED
    1768:	e3a05001 	mov	r5, #1
/home/kwilson/Projects/psaseclipse/olimex2378/liblpc23xx/lpc23xx-binsem/lpc23xx-binsem.s:182
   
    swp r5, r5, [r4]
    176c:	e1045095 	swp	r5, r5, [r4]
/home/kwilson/Projects/psaseclipse/olimex2378/liblpc23xx/lpc23xx-binsem/lpc23xx-binsem.s:184
    
    cmp r5, #UNLOCKED
    1770:	e3550001 	cmp	r5, #1
/home/kwilson/Projects/psaseclipse/olimex2378/liblpc23xx/lpc23xx-binsem/lpc23xx-binsem.s:185
    beq was_not_locked
    1774:	0a000008 	beq	179c <was_not_locked>
/home/kwilson/Projects/psaseclipse/olimex2378/liblpc23xx/lpc23xx-binsem/lpc23xx-binsem.s:186
    nop
    1778:	e1a00000 	nop			; (mov r0, r0)
/home/kwilson/Projects/psaseclipse/olimex2378/liblpc23xx/lpc23xx-binsem/lpc23xx-binsem.s:187
    nop
    177c:	e1a00000 	nop			; (mov r0, r0)
/home/kwilson/Projects/psaseclipse/olimex2378/liblpc23xx/lpc23xx-binsem/lpc23xx-binsem.s:188
    b released_lock
    1780:	ea000001 	b	178c <released_lock>
/home/kwilson/Projects/psaseclipse/olimex2378/liblpc23xx/lpc23xx-binsem/lpc23xx-binsem.s:189
    nop
    1784:	e1a00000 	nop			; (mov r0, r0)
/home/kwilson/Projects/psaseclipse/olimex2378/liblpc23xx/lpc23xx-binsem/lpc23xx-binsem.s:190
    nop
    1788:	e1a00000 	nop			; (mov r0, r0)

0000178c <released_lock>:
released_lock():
/home/kwilson/Projects/psaseclipse/olimex2378/liblpc23xx/lpc23xx-binsem/lpc23xx-binsem.s:193
 
released_lock:
    mov r0, #1
    178c:	e3a00001 	mov	r0, #1
/home/kwilson/Projects/psaseclipse/olimex2378/liblpc23xx/lpc23xx-binsem/lpc23xx-binsem.s:194
    b end_release_binsem
    1790:	ea000002 	b	17a0 <end_release_binsem>
/home/kwilson/Projects/psaseclipse/olimex2378/liblpc23xx/lpc23xx-binsem/lpc23xx-binsem.s:195
    nop
    1794:	e1a00000 	nop			; (mov r0, r0)
/home/kwilson/Projects/psaseclipse/olimex2378/liblpc23xx/lpc23xx-binsem/lpc23xx-binsem.s:196
    nop
    1798:	e1a00000 	nop			; (mov r0, r0)

0000179c <was_not_locked>:
was_not_locked():
/home/kwilson/Projects/psaseclipse/olimex2378/liblpc23xx/lpc23xx-binsem/lpc23xx-binsem.s:199

was_not_locked:
    mov r0, #0
    179c:	e3a00000 	mov	r0, #0

000017a0 <end_release_binsem>:
end_release_binsem():
/home/kwilson/Projects/psaseclipse/olimex2378/liblpc23xx/lpc23xx-binsem/lpc23xx-binsem.s:203

end_release_binsem:
    ### epilog ###
    ldmia sp!, {r4-r11}
    17a0:	e8bd0ff0 	pop	{r4, r5, r6, r7, r8, r9, sl, fp}
/home/kwilson/Projects/psaseclipse/olimex2378/liblpc23xx/lpc23xx-binsem/lpc23xx-binsem.s:205

    mov pc, lr
    17a4:	e1a0f00e 	mov	pc, lr
    17a8:	e1a00000 	nop			; (mov r0, r0)
    17ac:	e1a00000 	nop			; (mov r0, r0)

000017b0 <init_stat_led>:
init_stat_led():
/home/kwilson/Projects/psaseclipse/olimex2378/olimex2378-util/olimex2378_util.c:22

/*
 * init_stat_led
 */
void init_stat_led() {
    FIO_ENABLE;
    17b0:	e3a0320e 	mov	r3, #-536870912	; 0xe0000000
    17b4:	e283397f 	add	r3, r3, #2080768	; 0x1fc000
    17b8:	e59321a0 	ldr	r2, [r3, #416]	; 0x1a0
    17bc:	e3822001 	orr	r2, r2, #1
    17c0:	e58321a0 	str	r2, [r3, #416]	; 0x1a0
/home/kwilson/Projects/psaseclipse/olimex2378/olimex2378-util/olimex2378_util.c:23
    STAT_LED_ENABLE;
    17c4:	e3e03103 	mvn	r3, #-1073741824	; 0xc0000000
    17c8:	e2433a03 	sub	r3, r3, #12288	; 0x3000
    17cc:	e5132fdf 	ldr	r2, [r3, #-4063]	; 0xfdf
    17d0:	e3822702 	orr	r2, r2, #524288	; 0x80000
    17d4:	e5032fdf 	str	r2, [r3, #-4063]	; 0xfdf
/home/kwilson/Projects/psaseclipse/olimex2378/olimex2378-util/olimex2378_util.c:24
}
    17d8:	e12fff1e 	bx	lr

000017dc <stat_led_flash_slow>:
stat_led_flash_slow():
/home/kwilson/Projects/psaseclipse/olimex2378/olimex2378-util/olimex2378_util.c:29

/*
 * stat_led_flash_slow
 */
void stat_led_flash_slow(uint32_t cycles) {
    17dc:	e92d4010 	push	{r4, lr}
    17e0:	e1a04000 	mov	r4, r0
/home/kwilson/Projects/psaseclipse/olimex2378/olimex2378-util/olimex2378_util.c:35

    int x              = 0;
    int interval       = 100000;

    Freq cclk;
    cclk  =  pllquery_cclk_mhz();
    17e4:	ebfffd74 	bl	dbc <pllquery_cclk_mhz>
/home/kwilson/Projects/psaseclipse/olimex2378/olimex2378-util/olimex2378_util.c:37

    switch(cclk) {
    17e8:	e3a037b7 	mov	r3, #47972352	; 0x2dc0000
    17ec:	e2833b1b 	add	r3, r3, #27648	; 0x6c00
    17f0:	e1500003 	cmp	r0, r3
    17f4:	0a00000e 	beq	1834 <stat_led_flash_slow+0x58>
    17f8:	9a00000b 	bls	182c <stat_led_flash_slow+0x50>
    17fc:	e3a037e5 	mov	r3, #60030976	; 0x3940000
    1800:	e2433c79 	sub	r3, r3, #30976	; 0x7900
    1804:	e1500003 	cmp	r0, r3
    1808:	0a000009 	beq	1834 <stat_led_flash_slow+0x58>
    180c:	e3a03511 	mov	r3, #71303168	; 0x4400000
    1810:	e2833aaa 	add	r3, r3, #696320	; 0xaa000
    1814:	e2833c02 	add	r3, r3, #512	; 0x200
    1818:	e1500003 	cmp	r0, r3
    181c:	0a000004 	beq	1834 <stat_led_flash_slow+0x58>
/home/kwilson/Projects/psaseclipse/olimex2378/olimex2378-util/olimex2378_util.c:32
 * stat_led_flash_slow
 */
void stat_led_flash_slow(uint32_t cycles) {

    int x              = 0;
    int interval       = 100000;
    1820:	e3a02b61 	mov	r2, #99328	; 0x18400
    1824:	e2822e2a 	add	r2, r2, #672	; 0x2a0
    1828:	ea000003 	b	183c <stat_led_flash_slow+0x60>
/home/kwilson/Projects/psaseclipse/olimex2378/olimex2378-util/olimex2378_util.c:37

    Freq cclk;
    cclk  =  pllquery_cclk_mhz();

    switch(cclk) {
    182c:	e3500000 	cmp	r0, #0
    1830:	1afffffa 	bne	1820 <stat_led_flash_slow+0x44>
/home/kwilson/Projects/psaseclipse/olimex2378/olimex2378-util/olimex2378_util.c:45
        case FOURTY_EIGHT_MHZ:
            interval = 0.01 * 48000000;
        case SIXTY_MHZ:
            interval = 0.01 * 60000000;
        case SEVENTY_TWO_MHZ:
            interval = 0.01 * 72000000;
    1834:	e3a02aaf 	mov	r2, #716800	; 0xaf000
    1838:	e2822d32 	add	r2, r2, #3200	; 0xc80
/home/kwilson/Projects/psaseclipse/olimex2378/olimex2378-util/olimex2378_util.c:48
    }

    FIO_ENABLE;
    183c:	e3a0320e 	mov	r3, #-536870912	; 0xe0000000
    1840:	e283397f 	add	r3, r3, #2080768	; 0x1fc000
    1844:	e59311a0 	ldr	r1, [r3, #416]	; 0x1a0
    1848:	e3811001 	orr	r1, r1, #1
    184c:	e58311a0 	str	r1, [r3, #416]	; 0x1a0
/home/kwilson/Projects/psaseclipse/olimex2378/olimex2378-util/olimex2378_util.c:49
    STAT_LED_ENABLE;
    1850:	e3e01103 	mvn	r1, #-1073741824	; 0xc0000000
    1854:	e2411a03 	sub	r1, r1, #12288	; 0x3000
    1858:	e5113fdf 	ldr	r3, [r1, #-4063]	; 0xfdf
/home/kwilson/Projects/psaseclipse/olimex2378/olimex2378-util/olimex2378_util.c:51

    if(cycles > 0) {
    185c:	e3540000 	cmp	r4, #0
/home/kwilson/Projects/psaseclipse/olimex2378/olimex2378-util/olimex2378_util.c:49
        case SEVENTY_TWO_MHZ:
            interval = 0.01 * 72000000;
    }

    FIO_ENABLE;
    STAT_LED_ENABLE;
    1860:	e3833702 	orr	r3, r3, #524288	; 0x80000
    1864:	e5013fdf 	str	r3, [r1, #-4063]	; 0xfdf
/home/kwilson/Projects/psaseclipse/olimex2378/olimex2378-util/olimex2378_util.c:58
            if(cycles==0) break;
            x++;
            if (x == interval) {
                --cycles;
                STAT_LED_ON;
            } else if (x >= (interval * 2)) {
    1868:	11a00082 	lslne	r0, r2, #1
    186c:	13a03000 	movne	r3, #0
/home/kwilson/Projects/psaseclipse/olimex2378/olimex2378-util/olimex2378_util.c:59
                STAT_LED_OFF;
    1870:	13a0c702 	movne	ip, #524288	; 0x80000
/home/kwilson/Projects/psaseclipse/olimex2378/olimex2378-util/olimex2378_util.c:51
    }

    FIO_ENABLE;
    STAT_LED_ENABLE;

    if(cycles > 0) {
    1874:	08bd8010 	popeq	{r4, pc}
/home/kwilson/Projects/psaseclipse/olimex2378/olimex2378-util/olimex2378_util.c:54
        for(;;) {
            if(cycles==0) break;
            x++;
    1878:	e2833001 	add	r3, r3, #1
/home/kwilson/Projects/psaseclipse/olimex2378/olimex2378-util/olimex2378_util.c:55
            if (x == interval) {
    187c:	e1530002 	cmp	r3, r2
/home/kwilson/Projects/psaseclipse/olimex2378/olimex2378-util/olimex2378_util.c:56
                --cycles;
    1880:	02444001 	subeq	r4, r4, #1
/home/kwilson/Projects/psaseclipse/olimex2378/olimex2378-util/olimex2378_util.c:57
                STAT_LED_ON;
    1884:	0501cfc3 	streq	ip, [r1, #-4035]	; 0xfc3
/home/kwilson/Projects/psaseclipse/olimex2378/olimex2378-util/olimex2378_util.c:55

    if(cycles > 0) {
        for(;;) {
            if(cycles==0) break;
            x++;
            if (x == interval) {
    1888:	0a000002 	beq	1898 <stat_led_flash_slow+0xbc>
/home/kwilson/Projects/psaseclipse/olimex2378/olimex2378-util/olimex2378_util.c:58
                --cycles;
                STAT_LED_ON;
            } else if (x >= (interval * 2)) {
    188c:	e1530000 	cmp	r3, r0
/home/kwilson/Projects/psaseclipse/olimex2378/olimex2378-util/olimex2378_util.c:59
                STAT_LED_OFF;
    1890:	a501cfc7 	strge	ip, [r1, #-4039]	; 0xfc7
/home/kwilson/Projects/psaseclipse/olimex2378/olimex2378-util/olimex2378_util.c:60
                x = 0;
    1894:	a3a03000 	movge	r3, #0
/home/kwilson/Projects/psaseclipse/olimex2378/olimex2378-util/olimex2378_util.c:53
    FIO_ENABLE;
    STAT_LED_ENABLE;

    if(cycles > 0) {
        for(;;) {
            if(cycles==0) break;
    1898:	e3540000 	cmp	r4, #0
    189c:	1afffff5 	bne	1878 <stat_led_flash_slow+0x9c>
    18a0:	e8bd8010 	pop	{r4, pc}

000018a4 <stat_led_flash>:
stat_led_flash():
/home/kwilson/Projects/psaseclipse/olimex2378/olimex2378-util/olimex2378_util.c:69
}

/*
 * stat_led_flash
 */
void stat_led_flash(uint32_t cycles) {
    18a4:	e92d4010 	push	{r4, lr}
    18a8:	e1a04000 	mov	r4, r0
/home/kwilson/Projects/psaseclipse/olimex2378/olimex2378-util/olimex2378_util.c:75

    int x              = 0;
    int interval       = 1000000;

    Freq cclk;
    cclk  =  pllquery_cclk_mhz();
    18ac:	ebfffd42 	bl	dbc <pllquery_cclk_mhz>
/home/kwilson/Projects/psaseclipse/olimex2378/olimex2378-util/olimex2378_util.c:77

    switch(cclk) {
    18b0:	e3a037b7 	mov	r3, #47972352	; 0x2dc0000
    18b4:	e2833b1b 	add	r3, r3, #27648	; 0x6c00
    18b8:	e1500003 	cmp	r0, r3
    18bc:	0a00000e 	beq	18fc <stat_led_flash+0x58>
    18c0:	9a00000b 	bls	18f4 <stat_led_flash+0x50>
    18c4:	e3a037e5 	mov	r3, #60030976	; 0x3940000
    18c8:	e2433c79 	sub	r3, r3, #30976	; 0x7900
    18cc:	e1500003 	cmp	r0, r3
    18d0:	0a000009 	beq	18fc <stat_led_flash+0x58>
    18d4:	e3a03511 	mov	r3, #71303168	; 0x4400000
    18d8:	e2833aaa 	add	r3, r3, #696320	; 0xaa000
    18dc:	e2833c02 	add	r3, r3, #512	; 0x200
    18e0:	e1500003 	cmp	r0, r3
    18e4:	0a000004 	beq	18fc <stat_led_flash+0x58>
/home/kwilson/Projects/psaseclipse/olimex2378/olimex2378-util/olimex2378_util.c:72
 * stat_led_flash
 */
void stat_led_flash(uint32_t cycles) {

    int x              = 0;
    int interval       = 1000000;
    18e8:	e3a0293d 	mov	r2, #999424	; 0xf4000
    18ec:	e2822d09 	add	r2, r2, #576	; 0x240
    18f0:	ea000003 	b	1904 <stat_led_flash+0x60>
/home/kwilson/Projects/psaseclipse/olimex2378/olimex2378-util/olimex2378_util.c:77

    Freq cclk;
    cclk  =  pllquery_cclk_mhz();

    switch(cclk) {
    18f4:	e3500000 	cmp	r0, #0
    18f8:	1afffffa 	bne	18e8 <stat_led_flash+0x44>
/home/kwilson/Projects/psaseclipse/olimex2378/olimex2378-util/olimex2378_util.c:85
        case FOURTY_EIGHT_MHZ:
            interval = 0.001 * 48000000;
        case SIXTY_MHZ:
            interval = 0.001 * 60000000;
        case SEVENTY_TWO_MHZ:
            interval = 0.001 * 72000000;
    18fc:	e3a02b46 	mov	r2, #71680	; 0x11800
    1900:	e2822d05 	add	r2, r2, #320	; 0x140
/home/kwilson/Projects/psaseclipse/olimex2378/olimex2378-util/olimex2378_util.c:88
    }

    FIO_ENABLE;
    1904:	e3a0320e 	mov	r3, #-536870912	; 0xe0000000
    1908:	e283397f 	add	r3, r3, #2080768	; 0x1fc000
    190c:	e59311a0 	ldr	r1, [r3, #416]	; 0x1a0
    1910:	e3811001 	orr	r1, r1, #1
    1914:	e58311a0 	str	r1, [r3, #416]	; 0x1a0
/home/kwilson/Projects/psaseclipse/olimex2378/olimex2378-util/olimex2378_util.c:89
    STAT_LED_ENABLE;
    1918:	e3e01103 	mvn	r1, #-1073741824	; 0xc0000000
    191c:	e2411a03 	sub	r1, r1, #12288	; 0x3000
    1920:	e5113fdf 	ldr	r3, [r1, #-4063]	; 0xfdf
/home/kwilson/Projects/psaseclipse/olimex2378/olimex2378-util/olimex2378_util.c:91

    if(cycles > 0) {
    1924:	e3540000 	cmp	r4, #0
/home/kwilson/Projects/psaseclipse/olimex2378/olimex2378-util/olimex2378_util.c:89
        case SEVENTY_TWO_MHZ:
            interval = 0.001 * 72000000;
    }

    FIO_ENABLE;
    STAT_LED_ENABLE;
    1928:	e3833702 	orr	r3, r3, #524288	; 0x80000
    192c:	e5013fdf 	str	r3, [r1, #-4063]	; 0xfdf
/home/kwilson/Projects/psaseclipse/olimex2378/olimex2378-util/olimex2378_util.c:98
            if(cycles==0) break;
            x++;
            if (x == interval) {
                --cycles;
                STAT_LED_ON;
            } else if (x >= (interval * 2)) {
    1930:	11a00082 	lslne	r0, r2, #1
    1934:	13a03000 	movne	r3, #0
/home/kwilson/Projects/psaseclipse/olimex2378/olimex2378-util/olimex2378_util.c:99
                STAT_LED_OFF;
    1938:	13a0c702 	movne	ip, #524288	; 0x80000
/home/kwilson/Projects/psaseclipse/olimex2378/olimex2378-util/olimex2378_util.c:91
    }

    FIO_ENABLE;
    STAT_LED_ENABLE;

    if(cycles > 0) {
    193c:	08bd8010 	popeq	{r4, pc}
/home/kwilson/Projects/psaseclipse/olimex2378/olimex2378-util/olimex2378_util.c:94
        for(;;) {
            if(cycles==0) break;
            x++;
    1940:	e2833001 	add	r3, r3, #1
/home/kwilson/Projects/psaseclipse/olimex2378/olimex2378-util/olimex2378_util.c:95
            if (x == interval) {
    1944:	e1530002 	cmp	r3, r2
/home/kwilson/Projects/psaseclipse/olimex2378/olimex2378-util/olimex2378_util.c:96
                --cycles;
    1948:	02444001 	subeq	r4, r4, #1
/home/kwilson/Projects/psaseclipse/olimex2378/olimex2378-util/olimex2378_util.c:97
                STAT_LED_ON;
    194c:	0501cfc3 	streq	ip, [r1, #-4035]	; 0xfc3
/home/kwilson/Projects/psaseclipse/olimex2378/olimex2378-util/olimex2378_util.c:95

    if(cycles > 0) {
        for(;;) {
            if(cycles==0) break;
            x++;
            if (x == interval) {
    1950:	0a000002 	beq	1960 <stat_led_flash+0xbc>
/home/kwilson/Projects/psaseclipse/olimex2378/olimex2378-util/olimex2378_util.c:98
                --cycles;
                STAT_LED_ON;
            } else if (x >= (interval * 2)) {
    1954:	e1530000 	cmp	r3, r0
/home/kwilson/Projects/psaseclipse/olimex2378/olimex2378-util/olimex2378_util.c:99
                STAT_LED_OFF;
    1958:	a501cfc7 	strge	ip, [r1, #-4039]	; 0xfc7
/home/kwilson/Projects/psaseclipse/olimex2378/olimex2378-util/olimex2378_util.c:100
                x = 0;
    195c:	a3a03000 	movge	r3, #0
/home/kwilson/Projects/psaseclipse/olimex2378/olimex2378-util/olimex2378_util.c:93
    FIO_ENABLE;
    STAT_LED_ENABLE;

    if(cycles > 0) {
        for(;;) {
            if(cycles==0) break;
    1960:	e3540000 	cmp	r4, #0
    1964:	1afffff5 	bne	1940 <stat_led_flash+0x9c>
    1968:	e8bd8010 	pop	{r4, pc}

0000196c <__aeabi_uidiv>:
__aeabi_uidiv():
/home/kwilson/Projects/summon-arm-toolchain/build/arm-elf/libgcc/../../../gcc-4.5.2/libgcc/../gcc/config/arm/lib1funcs.asm:961
    196c:	e2512001 	subs	r2, r1, #1
/home/kwilson/Projects/summon-arm-toolchain/build/arm-elf/libgcc/../../../gcc-4.5.2/libgcc/../gcc/config/arm/lib1funcs.asm:963
    1970:	012fff1e 	bxeq	lr
/home/kwilson/Projects/summon-arm-toolchain/build/arm-elf/libgcc/../../../gcc-4.5.2/libgcc/../gcc/config/arm/lib1funcs.asm:964
    1974:	3a000036 	bcc	1a54 <__aeabi_uidiv+0xe8>
/home/kwilson/Projects/summon-arm-toolchain/build/arm-elf/libgcc/../../../gcc-4.5.2/libgcc/../gcc/config/arm/lib1funcs.asm:965
    1978:	e1500001 	cmp	r0, r1
/home/kwilson/Projects/summon-arm-toolchain/build/arm-elf/libgcc/../../../gcc-4.5.2/libgcc/../gcc/config/arm/lib1funcs.asm:966
    197c:	9a000022 	bls	1a0c <__aeabi_uidiv+0xa0>
/home/kwilson/Projects/summon-arm-toolchain/build/arm-elf/libgcc/../../../gcc-4.5.2/libgcc/../gcc/config/arm/lib1funcs.asm:967
    1980:	e1110002 	tst	r1, r2
/home/kwilson/Projects/summon-arm-toolchain/build/arm-elf/libgcc/../../../gcc-4.5.2/libgcc/../gcc/config/arm/lib1funcs.asm:968
    1984:	0a000023 	beq	1a18 <__aeabi_uidiv+0xac>
/home/kwilson/Projects/summon-arm-toolchain/build/arm-elf/libgcc/../../../gcc-4.5.2/libgcc/../gcc/config/arm/lib1funcs.asm:593
    1988:	e311020e 	tst	r1, #-536870912	; 0xe0000000
    198c:	01a01181 	lsleq	r1, r1, #3
    1990:	03a03008 	moveq	r3, #8
    1994:	13a03001 	movne	r3, #1
    1998:	e3510201 	cmp	r1, #268435456	; 0x10000000
    199c:	31510000 	cmpcc	r1, r0
    19a0:	31a01201 	lslcc	r1, r1, #4
    19a4:	31a03203 	lslcc	r3, r3, #4
    19a8:	3afffffa 	bcc	1998 <__aeabi_uidiv+0x2c>
    19ac:	e3510102 	cmp	r1, #-2147483648	; 0x80000000
    19b0:	31510000 	cmpcc	r1, r0
    19b4:	31a01081 	lslcc	r1, r1, #1
    19b8:	31a03083 	lslcc	r3, r3, #1
    19bc:	3afffffa 	bcc	19ac <__aeabi_uidiv+0x40>
    19c0:	e3a02000 	mov	r2, #0
    19c4:	e1500001 	cmp	r0, r1
    19c8:	20400001 	subcs	r0, r0, r1
    19cc:	21822003 	orrcs	r2, r2, r3
    19d0:	e15000a1 	cmp	r0, r1, lsr #1
    19d4:	204000a1 	subcs	r0, r0, r1, lsr #1
    19d8:	218220a3 	orrcs	r2, r2, r3, lsr #1
    19dc:	e1500121 	cmp	r0, r1, lsr #2
    19e0:	20400121 	subcs	r0, r0, r1, lsr #2
    19e4:	21822123 	orrcs	r2, r2, r3, lsr #2
    19e8:	e15001a1 	cmp	r0, r1, lsr #3
    19ec:	204001a1 	subcs	r0, r0, r1, lsr #3
    19f0:	218221a3 	orrcs	r2, r2, r3, lsr #3
    19f4:	e3500000 	cmp	r0, #0
    19f8:	11b03223 	lsrsne	r3, r3, #4
    19fc:	11a01221 	lsrne	r1, r1, #4
    1a00:	1affffef 	bne	19c4 <__aeabi_uidiv+0x58>
/home/kwilson/Projects/summon-arm-toolchain/build/arm-elf/libgcc/../../../gcc-4.5.2/libgcc/../gcc/config/arm/lib1funcs.asm:972
    1a04:	e1a00002 	mov	r0, r2
/home/kwilson/Projects/summon-arm-toolchain/build/arm-elf/libgcc/../../../gcc-4.5.2/libgcc/../gcc/config/arm/lib1funcs.asm:973
    1a08:	e12fff1e 	bx	lr
/home/kwilson/Projects/summon-arm-toolchain/build/arm-elf/libgcc/../../../gcc-4.5.2/libgcc/../gcc/config/arm/lib1funcs.asm:976
    1a0c:	03a00001 	moveq	r0, #1
/home/kwilson/Projects/summon-arm-toolchain/build/arm-elf/libgcc/../../../gcc-4.5.2/libgcc/../gcc/config/arm/lib1funcs.asm:977
    1a10:	13a00000 	movne	r0, #0
/home/kwilson/Projects/summon-arm-toolchain/build/arm-elf/libgcc/../../../gcc-4.5.2/libgcc/../gcc/config/arm/lib1funcs.asm:978
    1a14:	e12fff1e 	bx	lr
/home/kwilson/Projects/summon-arm-toolchain/build/arm-elf/libgcc/../../../gcc-4.5.2/libgcc/../gcc/config/arm/lib1funcs.asm:660
    1a18:	e3510801 	cmp	r1, #65536	; 0x10000
    1a1c:	21a01821 	lsrcs	r1, r1, #16
    1a20:	23a02010 	movcs	r2, #16
    1a24:	33a02000 	movcc	r2, #0
    1a28:	e3510c01 	cmp	r1, #256	; 0x100
    1a2c:	21a01421 	lsrcs	r1, r1, #8
    1a30:	22822008 	addcs	r2, r2, #8
    1a34:	e3510010 	cmp	r1, #16
    1a38:	21a01221 	lsrcs	r1, r1, #4
    1a3c:	22822004 	addcs	r2, r2, #4
    1a40:	e3510004 	cmp	r1, #4
    1a44:	82822003 	addhi	r2, r2, #3
    1a48:	908220a1 	addls	r2, r2, r1, lsr #1
/home/kwilson/Projects/summon-arm-toolchain/build/arm-elf/libgcc/../../../gcc-4.5.2/libgcc/../gcc/config/arm/lib1funcs.asm:982
    1a4c:	e1a00230 	lsr	r0, r0, r2
/home/kwilson/Projects/summon-arm-toolchain/build/arm-elf/libgcc/../../../gcc-4.5.2/libgcc/../gcc/config/arm/lib1funcs.asm:983
    1a50:	e12fff1e 	bx	lr
/home/kwilson/Projects/summon-arm-toolchain/build/arm-elf/libgcc/../../../gcc-4.5.2/libgcc/../gcc/config/arm/lib1funcs.asm:987
    1a54:	e52de008 	str	lr, [sp, #-8]!
    1a58:	eb00003c 	bl	1b50 <__div0>
    1a5c:	e3a00000 	mov	r0, #0
/home/kwilson/Projects/summon-arm-toolchain/build/arm-elf/libgcc/../../../gcc-4.5.2/libgcc/../gcc/config/arm/lib1funcs.asm:234
    1a60:	e49df008 	ldr	pc, [sp], #8

00001a64 <__aeabi_uidivmod>:
__aeabi_uidivmod():
/home/kwilson/Projects/summon-arm-toolchain/build/arm-elf/libgcc/../../../gcc-4.5.2/libgcc/../gcc/config/arm/lib1funcs.asm:1001
    1a64:	e3510000 	cmp	r1, #0
/home/kwilson/Projects/summon-arm-toolchain/build/arm-elf/libgcc/../../../gcc-4.5.2/libgcc/../gcc/config/arm/lib1funcs.asm:1002
    1a68:	0afffff9 	beq	1a54 <__aeabi_uidiv+0xe8>
/home/kwilson/Projects/summon-arm-toolchain/build/arm-elf/libgcc/../../../gcc-4.5.2/libgcc/../gcc/config/arm/lib1funcs.asm:1003
    1a6c:	e92d4003 	push	{r0, r1, lr}
/home/kwilson/Projects/summon-arm-toolchain/build/arm-elf/libgcc/../../../gcc-4.5.2/libgcc/../gcc/config/arm/lib1funcs.asm:1004
    1a70:	ebffffbd 	bl	196c <__aeabi_uidiv>
/home/kwilson/Projects/summon-arm-toolchain/build/arm-elf/libgcc/../../../gcc-4.5.2/libgcc/../gcc/config/arm/lib1funcs.asm:1005
    1a74:	e8bd4006 	pop	{r1, r2, lr}
/home/kwilson/Projects/summon-arm-toolchain/build/arm-elf/libgcc/../../../gcc-4.5.2/libgcc/../gcc/config/arm/lib1funcs.asm:1006
    1a78:	e0030092 	mul	r3, r2, r0
/home/kwilson/Projects/summon-arm-toolchain/build/arm-elf/libgcc/../../../gcc-4.5.2/libgcc/../gcc/config/arm/lib1funcs.asm:1007
    1a7c:	e0411003 	sub	r1, r1, r3
/home/kwilson/Projects/summon-arm-toolchain/build/arm-elf/libgcc/../../../gcc-4.5.2/libgcc/../gcc/config/arm/lib1funcs.asm:1008
    1a80:	e12fff1e 	bx	lr

00001a84 <__umodsi3>:
__umodsi3():
/home/kwilson/Projects/summon-arm-toolchain/build/arm-elf/libgcc/../../../gcc-4.5.2/libgcc/../gcc/config/arm/lib1funcs.asm:1037
    1a84:	e2512001 	subs	r2, r1, #1
/home/kwilson/Projects/summon-arm-toolchain/build/arm-elf/libgcc/../../../gcc-4.5.2/libgcc/../gcc/config/arm/lib1funcs.asm:1038
    1a88:	3a00002c 	bcc	1b40 <__umodsi3+0xbc>
/home/kwilson/Projects/summon-arm-toolchain/build/arm-elf/libgcc/../../../gcc-4.5.2/libgcc/../gcc/config/arm/lib1funcs.asm:1039
    1a8c:	11500001 	cmpne	r0, r1
/home/kwilson/Projects/summon-arm-toolchain/build/arm-elf/libgcc/../../../gcc-4.5.2/libgcc/../gcc/config/arm/lib1funcs.asm:1040
    1a90:	03a00000 	moveq	r0, #0
/home/kwilson/Projects/summon-arm-toolchain/build/arm-elf/libgcc/../../../gcc-4.5.2/libgcc/../gcc/config/arm/lib1funcs.asm:1041
    1a94:	81110002 	tsthi	r1, r2
/home/kwilson/Projects/summon-arm-toolchain/build/arm-elf/libgcc/../../../gcc-4.5.2/libgcc/../gcc/config/arm/lib1funcs.asm:1042
    1a98:	00000002 	andeq	r0, r0, r2
/home/kwilson/Projects/summon-arm-toolchain/build/arm-elf/libgcc/../../../gcc-4.5.2/libgcc/../gcc/config/arm/lib1funcs.asm:1043
    1a9c:	912fff1e 	bxls	lr
/home/kwilson/Projects/summon-arm-toolchain/build/arm-elf/libgcc/../../../gcc-4.5.2/libgcc/../gcc/config/arm/lib1funcs.asm:708
    1aa0:	e3a02000 	mov	r2, #0
    1aa4:	e3510201 	cmp	r1, #268435456	; 0x10000000
    1aa8:	31510000 	cmpcc	r1, r0
    1aac:	31a01201 	lslcc	r1, r1, #4
    1ab0:	32822004 	addcc	r2, r2, #4
    1ab4:	3afffffa 	bcc	1aa4 <__umodsi3+0x20>
    1ab8:	e3510102 	cmp	r1, #-2147483648	; 0x80000000
    1abc:	31510000 	cmpcc	r1, r0
    1ac0:	31a01081 	lslcc	r1, r1, #1
    1ac4:	32822001 	addcc	r2, r2, #1
    1ac8:	3afffffa 	bcc	1ab8 <__umodsi3+0x34>
    1acc:	e2522003 	subs	r2, r2, #3
    1ad0:	ba00000e 	blt	1b10 <__umodsi3+0x8c>
    1ad4:	e1500001 	cmp	r0, r1
    1ad8:	20400001 	subcs	r0, r0, r1
    1adc:	e15000a1 	cmp	r0, r1, lsr #1
    1ae0:	204000a1 	subcs	r0, r0, r1, lsr #1
    1ae4:	e1500121 	cmp	r0, r1, lsr #2
    1ae8:	20400121 	subcs	r0, r0, r1, lsr #2
    1aec:	e15001a1 	cmp	r0, r1, lsr #3
    1af0:	204001a1 	subcs	r0, r0, r1, lsr #3
    1af4:	e3500001 	cmp	r0, #1
    1af8:	e1a01221 	lsr	r1, r1, #4
    1afc:	a2522004 	subsge	r2, r2, #4
    1b00:	aafffff3 	bge	1ad4 <__umodsi3+0x50>
    1b04:	e3120003 	tst	r2, #3
    1b08:	13300000 	teqne	r0, #0
    1b0c:	0a00000a 	beq	1b3c <__umodsi3+0xb8>
    1b10:	e3720002 	cmn	r2, #2
    1b14:	ba000006 	blt	1b34 <__umodsi3+0xb0>
    1b18:	0a000002 	beq	1b28 <__umodsi3+0xa4>
    1b1c:	e1500001 	cmp	r0, r1
    1b20:	20400001 	subcs	r0, r0, r1
    1b24:	e1a010a1 	lsr	r1, r1, #1
    1b28:	e1500001 	cmp	r0, r1
    1b2c:	20400001 	subcs	r0, r0, r1
    1b30:	e1a010a1 	lsr	r1, r1, #1
    1b34:	e1500001 	cmp	r0, r1
    1b38:	20400001 	subcs	r0, r0, r1
/home/kwilson/Projects/summon-arm-toolchain/build/arm-elf/libgcc/../../../gcc-4.5.2/libgcc/../gcc/config/arm/lib1funcs.asm:1047
    1b3c:	e12fff1e 	bx	lr
/home/kwilson/Projects/summon-arm-toolchain/build/arm-elf/libgcc/../../../gcc-4.5.2/libgcc/../gcc/config/arm/lib1funcs.asm:1051
    1b40:	e52de008 	str	lr, [sp, #-8]!
    1b44:	eb000001 	bl	1b50 <__div0>
    1b48:	e3a00000 	mov	r0, #0
/home/kwilson/Projects/summon-arm-toolchain/build/arm-elf/libgcc/../../../gcc-4.5.2/libgcc/../gcc/config/arm/lib1funcs.asm:234
    1b4c:	e49df008 	ldr	pc, [sp], #8

00001b50 <__div0>:
__div0():
/home/kwilson/Projects/summon-arm-toolchain/build/arm-elf/libgcc/../../../gcc-4.5.2/libgcc/../gcc/config/arm/lib1funcs.asm:1242
    1b50:	e12fff1e 	bx	lr
    1b54:	49434956 	.word	0x49434956
    1b58:	74535152 	.word	0x74535152
    1b5c:	73757461 	.word	0x73757461
    1b60:	3a736920 	.word	0x3a736920
    1b64:	00623009 	.word	0x00623009
    1b68:	52434956 	.word	0x52434956
    1b6c:	6e497761 	.word	0x6e497761
    1b70:	69207274 	.word	0x69207274
    1b74:	30093a73 	.word	0x30093a73
    1b78:	32490062 	.word	0x32490062
    1b7c:	54533043 	.word	0x54533043
    1b80:	69205441 	.word	0x69205441
    1b84:	30093a73 	.word	0x30093a73
    1b88:	61700062 	.word	0x61700062
    1b8c:	73207473 	.word	0x73207473
    1b90:	74726174 	.word	0x74726174
    1b94:	63617820 	.word	0x63617820
    1b98:	6e6f6974 	.word	0x6e6f6974
    1b9c:	69727720 	.word	0x69727720
    1ba0:	2e206574 	.word	0x2e206574
    1ba4:	3269000a 	.word	0x3269000a
    1ba8:	72772063 	.word	0x72772063
    1bac:	20657469 	.word	0x20657469
    1bb0:	74636178 	.word	0x74636178
    1bb4:	206e6f69 	.word	0x206e6f69
    1bb8:	63637573 	.word	0x63637573
    1bbc:	2e737365 	.word	0x2e737365
    1bc0:	3269000a 	.word	0x3269000a
    1bc4:	72772063 	.word	0x72772063
    1bc8:	20657469 	.word	0x20657469
    1bcc:	74636178 	.word	0x74636178
    1bd0:	206e6f69 	.word	0x206e6f69
    1bd4:	6c696166 	.word	0x6c696166
    1bd8:	69000a2e 	.word	0x69000a2e
    1bdc:	52206332 	.word	0x52206332
    1be0:	20646165 	.word	0x20646165
    1be4:	6f6c6f43 	.word	0x6f6c6f43
    1be8:	61542072 	.word	0x61542072
    1bec:	2e2e6b73 	.word	0x2e2e6b73
    1bf0:	69000a2e 	.word	0x69000a2e
    1bf4:	72206332 	.word	0x72206332
    1bf8:	20646165 	.word	0x20646165
    1bfc:	74636178 	.word	0x74636178
    1c00:	206e6f69 	.word	0x206e6f69
    1c04:	63637573 	.word	0x63637573
    1c08:	2e737365 	.word	0x2e737365
    1c0c:	3269000a 	.word	0x3269000a
    1c10:	65722063 	.word	0x65722063
    1c14:	78206461 	.word	0x78206461
    1c18:	69746361 	.word	0x69746361
    1c1c:	66206e6f 	.word	0x66206e6f
    1c20:	2e6c6961 	.word	0x2e6c6961
    1c24:	6552000a 	.word	0x6552000a
    1c28:	64206461 	.word	0x64206461
    1c2c:	20617461 	.word	0x20617461
    1c30:	73692030 	.word	0x73692030
    1c34:	00783020 	.word	0x00783020
    1c38:	2a2a2a0a 	.word	0x2a2a2a0a
    1c3c:	72617453 	.word	0x72617453
    1c40:	676e6974 	.word	0x676e6974
    1c44:	696c6f20 	.word	0x696c6f20
    1c48:	2078656d 	.word	0x2078656d
    1c4c:	6e696c62 	.word	0x6e696c62
    1c50:	74206d6b 	.word	0x74206d6b
    1c54:	2a747365 	.word	0x2a747365
    1c58:	0a0a2a2a 	.word	0x0a0a2a2a
    1c5c:	73706300 	.word	0x73706300
    1c60:	73692072 	.word	0x73692072
    1c64:	6230093a 	.word	0x6230093a
    1c68:	2a0a0a00 	.word	0x2a0a0a00
    1c6c:	6f442a2a 	.word	0x6f442a2a
    1c70:	2a2a656e 	.word	0x2a2a656e
    1c74:	000a0a2a 	.word	0x000a0a2a
    1c78:	65746e45 	.word	0x65746e45
    1c7c:	676e6972 	.word	0x676e6972
    1c80:	63326920 	.word	0x63326920
    1c84:	73695f30 	.word	0x73695f30
    1c88:	00000072 	.word	0x00000072
    1c8c:	74617473 	.word	0x74617473
    1c90:	69207375 	.word	0x69207375
    1c94:	30203a73 	.word	0x30203a73
    1c98:	00000078 	.word	0x00000078
    1c9c:	69206e49 	.word	0x69206e49
    1ca0:	695f6332 	.word	0x695f6332
    1ca4:	0a74696e 	.word	0x0a74696e
    1ca8:	00000000 	.word	0x00000000
    1cac:	49434956 	.word	0x49434956
    1cb0:	6e45746e 	.word	0x6e45746e
    1cb4:	656c6261 	.word	0x656c6261
    1cb8:	3a736920 	.word	0x3a736920
    1cbc:	00623020 	.word	0x00623020
    1cc0:	202a2a2a 	.word	0x202a2a2a
    1cc4:	30433249 	.word	0x30433249
    1cc8:	5252452d 	.word	0x5252452d
    1ccc:	2a20524f 	.word	0x2a20524f
    1cd0:	203a2a2a 	.word	0x203a2a2a
    1cd4:	30433249 	.word	0x30433249
    1cd8:	73616d5f 	.word	0x73616d5f
    1cdc:	5f726574 	.word	0x5f726574
    1ce0:	74636178 	.word	0x74636178
    1ce4:	6954202c 	.word	0x6954202c
    1ce8:	2064656d 	.word	0x2064656d
    1cec:	2074756f 	.word	0x2074756f
    1cf0:	74696177 	.word	0x74696177
    1cf4:	20676e69 	.word	0x20676e69
    1cf8:	20726f66 	.word	0x20726f66
    1cfc:	30633269 	.word	0x30633269
    1d00:	6e69625f 	.word	0x6e69625f
    1d04:	5f6d6573 	.word	0x5f6d6573
    1d08:	53202e67 	.word	0x53202e67
    1d0c:	7070696b 	.word	0x7070696b
    1d10:	20676e69 	.word	0x20676e69
    1d14:	75716552 	.word	0x75716552
    1d18:	2e747365 	.word	0x2e747365
    1d1c:	0000000a 	.word	0x0000000a
    1d20:	202a2a2a 	.word	0x202a2a2a
    1d24:	30433249 	.word	0x30433249
    1d28:	5252452d 	.word	0x5252452d
    1d2c:	2a20524f 	.word	0x2a20524f
    1d30:	203a2a2a 	.word	0x203a2a2a
    1d34:	30433249 	.word	0x30433249
    1d38:	73616d5f 	.word	0x73616d5f
    1d3c:	5f726574 	.word	0x5f726574
    1d40:	74636178 	.word	0x74636178
    1d44:	7473202c 	.word	0x7473202c
    1d48:	74637572 	.word	0x74637572
    1d4c:	20657275 	.word	0x20657275
    1d50:	6e696f70 	.word	0x6e696f70
    1d54:	20726574 	.word	0x20726574
    1d58:	4e207369 	.word	0x4e207369
    1d5c:	2e4c4c55 	.word	0x2e4c4c55
    1d60:	696b5320 	.word	0x696b5320
    1d64:	6e697070 	.word	0x6e697070
    1d68:	000a2e67 	.word	0x000a2e67
    1d6c:	33323130 	.word	0x33323130
    1d70:	37363534 	.word	0x37363534
    1d74:	62613938 	.word	0x62613938
    1d78:	66656463 	.word	0x66656463
    1d7c:	00000000 	.word	0x00000000
